; Listing generated by Microsoft (R) Optimizing Compiler Version 19.37.32824.0 

include listing.inc

INCLUDELIB MSVCRTD
INCLUDELIB OLDNAMES

PUBLIC	?isLeap@@3_NA					; isLeap
_BSS	SEGMENT
?isLeap@@3_NA DB 01H DUP (?)				; isLeap
_BSS	ENDS
msvcjmc	SEGMENT
__7C6FE117_datenumber@h DB 01H
__E170C3D5_leapyear@h DB 01H
__2972590E_concurrencysal@h DB 01H
__196CC136_sal@h DB 01H
__C395F66A_vadefs@h DB 01H
__D5C25611_vcruntime@h DB 01H
__311F130C_xkeycheck@h DB 01H
__AEBEEEE9_yvals_core@h DB 01H
__05EEB633_limits@h DB 01H
__7CE37BCF_climits DB 01H
__1B0272D9_corecrt@h DB 01H
__D5F74309_vcruntime_new@h DB 01H
__ED298667_vcruntime_new_debug@h DB 01H
__935DC21B_crtdbg@h DB 01H
__B40C025A_crtdefs@h DB 01H
__97CA0262_use_ansi@h DB 01H
__4E4CEF82_yvals@h DB 01H
__BB16330F_corecrt_math@h DB 01H
__3BF2A406_math@h DB 01H
__45DED006_corecrt_malloc@h DB 01H
__13F5961F_stddef@h DB 01H
__FD6DBD68_corecrt_search@h DB 01H
__E2E33A61_corecrt_wstdlib@h DB 01H
__6E5ACABA_stdlib@h DB 01H
__F80C593D_cstdlib DB 01H
__6CC4302B_xtr1common DB 01H
__7178C802_intrin0@inl@h DB 01H
__AD21BB51_intrin0@h DB 01H
__7BD6CF81_cmath DB 01H
__44420885_corecrt_stdio_config@h DB 01H
__AB601D8D_corecrt_wstdio@h DB 01H
__C1EC35D3_stdio@h DB 01H
__FAE305CF_cstdio DB 01H
__61CC25A1_errno@h DB 01H
__4BC88476_vcruntime_string@h DB 01H
__E4C945B4_corecrt_memcpy_s@h DB 01H
__8EAFF484_corecrt_memory@h DB 01H
__6490AEC5_corecrt_wstring@h DB 01H
__E8295E1E_string@h DB 01H
__B49EF1DD_cstring DB 01H
__EF1F6BBA_corecrt_wconio@h DB 01H
__74484FB3_corecrt_wctype@h DB 01H
__3D1D430C_corecrt_wdirect@h DB 01H
__8ECB7138_corecrt_share@h DB 01H
__DB7FEBA6_corecrt_wio@h DB 01H
__9A9F0068_corecrt_wprocess@h DB 01H
__369A9BC3_corecrt_wtime@h DB 01H
__CE789B9D_types@h DB 01H
__9901C817_stat@h DB 01H
__3FCAD62E_wchar@h DB 01H
__6068D39C_cwchar DB 01H
__23A856AA_iosfwd DB 01H
__5DC78390_cstddef DB 01H
__33B42F3D_initializer_list DB 01H
__BB98980C_stdint@h DB 01H
__4552B840_cstdint DB 01H
__7FB6D5C7_type_traits DB 01H
__CF01DCB6_utility DB 01H
__12DC71E1___msvc_iter_core@hpp DB 01H
__D740E0F1_xutility DB 01H
__C6EC57B1_iterator DB 01H
__F7972D0B_share@h DB 01H
__3D410F40___msvc_system_error_abi@hpp DB 01H
__67C27134_cerrno DB 01H
__FA77ED4C_malloc@h DB 01H
__89766DA4_corecrt_terminate@h DB 01H
__27A4BD10_eh@h DB 01H
__E5C78335_vcruntime_exception@h DB 01H
__7C536CCC_exception DB 01H
__B9985323_float@h DB 01H
__89A7CE48_cfloat DB 01H
__98438E05_isa_availability@h DB 01H
__EF41832C_limits DB 01H
__0DB0C2E5_new DB 01H
__765FE01A_xatomic@h DB 01H
__A594BF75_xmemory DB 01H
__DFFCB714___msvc_sanitizer_annotate_container@hpp DB 01H
__D14739E9_xstring DB 01H
__F51D5691_stdexcept DB 01H
__ED2630B9_xcall_once@h DB 01H
__E6D9FA8D_xerrc@h DB 01H
__0A9237D2_time@h DB 01H
__BD655389_ctime DB 01H
__618403B0_xtimec@h DB 01H
__F68435D1_xthreads@h DB 01H
__8474DFEE_atomic DB 01H
__527B2299_system_error DB 01H
__0632977E_vcruntime_typeinfo@h DB 01H
__A79F13E8_typeinfo DB 01H
__53EF8FA2_memory DB 01H
__7FAAD8AD_xfacet DB 01H
__53FF2065___msvc_xlocinfo_types@hpp DB 01H
__1EC467ED_ctype@h DB 01H
__F528E268_cctype DB 01H
__791C33B7_locale@h DB 01H
__6BA085EC_clocale DB 01H
__B816F020_xlocinfo DB 01H
__0E794DD8_xlocale DB 01H
__81F38733_xiosbase DB 01H
__F7BDEE2D_streambuf DB 01H
__90FE2BCF_xlocnum DB 01H
__F57DF8F3_ios DB 01H
__1D69971C_ostream DB 01H
__7EB9A226_istream DB 01H
__B5399AEE_iostream DB 01H
__1765562F_ratio DB 01H
__F7A436FA___msvc_chrono@hpp DB 01H
__8BAC85A6_chrono DB 01H
__15C9D805_stdafx@h DB 01H
__0E5718B5_main@cpp DB 01H
msvcjmc	ENDS
PUBLIC	?__empty_global_delete@@YAXPEAX@Z		; __empty_global_delete
PUBLIC	?__empty_global_delete@@YAXPEAX_K@Z		; __empty_global_delete
PUBLIC	??2@YAPEAX_KPEAX@Z				; operator new
PUBLIC	??0exception@std@@QEAA@QEBDH@Z			; std::exception::exception
PUBLIC	??0exception@std@@QEAA@AEBV01@@Z		; std::exception::exception
PUBLIC	??1exception@std@@UEAA@XZ			; std::exception::~exception
PUBLIC	?what@exception@std@@UEBAPEBDXZ			; std::exception::what
PUBLIC	??_Gexception@std@@UEAAPEAXI@Z			; std::exception::`scalar deleting destructor'
PUBLIC	??0bad_alloc@std@@AEAA@QEBD@Z			; std::bad_alloc::bad_alloc
PUBLIC	??1bad_alloc@std@@UEAA@XZ			; std::bad_alloc::~bad_alloc
PUBLIC	??0bad_alloc@std@@QEAA@AEBV01@@Z		; std::bad_alloc::bad_alloc
PUBLIC	??_Gbad_alloc@std@@UEAAPEAXI@Z			; std::bad_alloc::`scalar deleting destructor'
PUBLIC	??0bad_array_new_length@std@@QEAA@XZ		; std::bad_array_new_length::bad_array_new_length
PUBLIC	??1bad_array_new_length@std@@UEAA@XZ		; std::bad_array_new_length::~bad_array_new_length
PUBLIC	??0bad_array_new_length@std@@QEAA@AEBV01@@Z	; std::bad_array_new_length::bad_array_new_length
PUBLIC	??_Gbad_array_new_length@std@@UEAAPEAXI@Z	; std::bad_array_new_length::`scalar deleting destructor'
PUBLIC	?_Throw_bad_array_new_length@std@@YAXXZ		; std::_Throw_bad_array_new_length
PUBLIC	?max@?$numeric_limits@_J@std@@SA_JXZ		; std::numeric_limits<__int64>::max
PUBLIC	?_Allocate@_Default_allocate_traits@std@@SAPEAX_K@Z ; std::_Default_allocate_traits::_Allocate
PUBLIC	?_Adjust_manually_vector_aligned@std@@YAXAEAPEAXAEA_K@Z ; std::_Adjust_manually_vector_aligned
PUBLIC	??0_Container_proxy@std@@QEAA@PEAU_Container_base12@1@@Z ; std::_Container_proxy::_Container_proxy
PUBLIC	??0_Container_base12@std@@QEAA@XZ		; std::_Container_base12::_Container_base12
PUBLIC	?_Orphan_all@_Container_base12@std@@QEAAXXZ	; std::_Container_base12::_Orphan_all
PUBLIC	?_Orphan_all_unlocked_v3@_Container_base12@std@@AEAAXXZ ; std::_Container_base12::_Orphan_all_unlocked_v3
PUBLIC	?_Orphan_all_locked_v3@_Container_base12@std@@AEAAXXZ ; std::_Container_base12::_Orphan_all_locked_v3
PUBLIC	??$exchange@PEAU_Iterator_base12@std@@$$T@std@@YAPEAU_Iterator_base12@0@AEAPEAU10@$$QEA$$T@Z ; std::exchange<std::_Iterator_base12 *,std::nullptr_t>
PUBLIC	?_Release@_Basic_container_proxy_ptr12@std@@QEAAXXZ ; std::_Basic_container_proxy_ptr12::_Release
PUBLIC	??0_Basic_container_proxy_ptr12@std@@IEAA@XZ	; std::_Basic_container_proxy_ptr12::_Basic_container_proxy_ptr12
PUBLIC	??$addressof@U_Container_base12@std@@@std@@YAPEAU_Container_base12@0@AEAU10@@Z ; std::addressof<std::_Container_base12>
PUBLIC	??$_Construct_in_place@U_Container_proxy@std@@PEAU_Container_base12@2@@std@@YAXAEAU_Container_proxy@0@$$QEAPEAU_Container_base12@0@@Z ; std::_Construct_in_place<std::_Container_proxy,std::_Container_base12 *>
PUBLIC	?copy@?$_Char_traits@DH@std@@SAPEADQEADQEBD_K@Z	; std::_Char_traits<char,int>::copy
PUBLIC	?length@?$_Narrow_char_traits@DH@std@@SA_KQEBD@Z ; std::_Narrow_char_traits<char,int>::length
PUBLIC	?assign@?$_Narrow_char_traits@DH@std@@SAXAEADAEBD@Z ; std::_Narrow_char_traits<char,int>::assign
PUBLIC	?eq_int_type@?$_Narrow_char_traits@DH@std@@SA_NAEBH0@Z ; std::_Narrow_char_traits<char,int>::eq_int_type
PUBLIC	?eof@?$_Narrow_char_traits@DH@std@@SAHXZ	; std::_Narrow_char_traits<char,int>::eof
PUBLIC	?_Xlen_string@std@@YAXXZ			; std::_Xlen_string
PUBLIC	??0?$allocator@D@std@@QEAA@XZ			; std::allocator<char>::allocator<char>
PUBLIC	?deallocate@?$allocator@D@std@@QEAAXQEAD_K@Z	; std::allocator<char>::deallocate
PUBLIC	?allocate@?$allocator@D@std@@QEAAPEAD_K@Z	; std::allocator<char>::allocate
PUBLIC	?max_size@?$_Default_allocator_traits@V?$allocator@D@std@@@std@@SA_KAEBV?$allocator@D@2@@Z ; std::_Default_allocator_traits<std::allocator<char> >::max_size
PUBLIC	?select_on_container_copy_construction@?$_Default_allocator_traits@V?$allocator@D@std@@@std@@SA?AV?$allocator@D@2@AEBV32@@Z ; std::_Default_allocator_traits<std::allocator<char> >::select_on_container_copy_construction
PUBLIC	??0?$_String_val@U?$_Simple_types@D@std@@@std@@QEAA@XZ ; std::_String_val<std::_Simple_types<char> >::_String_val<std::_Simple_types<char> >
PUBLIC	?_Myptr@?$_String_val@U?$_Simple_types@D@std@@@std@@QEBAPEBDXZ ; std::_String_val<std::_Simple_types<char> >::_Myptr
PUBLIC	?_Large_string_engaged@?$_String_val@U?$_Simple_types@D@std@@@std@@QEBA_NXZ ; std::_String_val<std::_Simple_types<char> >::_Large_string_engaged
PUBLIC	?_Activate_SSO_buffer@?$_String_val@U?$_Simple_types@D@std@@@std@@QEAAXXZ ; std::_String_val<std::_Simple_types<char> >::_Activate_SSO_buffer
PUBLIC	??0_Bxty@?$_String_val@U?$_Simple_types@D@std@@@std@@QEAA@XZ ; std::_String_val<std::_Simple_types<char> >::_Bxty::_Bxty
PUBLIC	??1_Bxty@?$_String_val@U?$_Simple_types@D@std@@@std@@QEAA@XZ ; std::_String_val<std::_Simple_types<char> >::_Bxty::~_Bxty
PUBLIC	??1?$_String_val@U?$_Simple_types@D@std@@@std@@QEAA@XZ ; std::_String_val<std::_Simple_types<char> >::~_String_val<std::_Simple_types<char> >
PUBLIC	??0?$basic_string@DU?$char_traits@D@std@@V?$allocator@D@2@@std@@QEAA@AEBV01@@Z ; std::basic_string<char,std::char_traits<char>,std::allocator<char> >::basic_string<char,std::char_traits<char>,std::allocator<char> >
PUBLIC	??0?$basic_string@DU?$char_traits@D@std@@V?$allocator@D@2@@std@@QEAA@QEBD@Z ; std::basic_string<char,std::char_traits<char>,std::allocator<char> >::basic_string<char,std::char_traits<char>,std::allocator<char> >
PUBLIC	?_Start_element_lifetimes@?$basic_string@DU?$char_traits@D@std@@V?$allocator@D@2@@std@@CAXQEAD_K@Z ; std::basic_string<char,std::char_traits<char>,std::allocator<char> >::_Start_element_lifetimes
PUBLIC	??1?$basic_string@DU?$char_traits@D@std@@V?$allocator@D@2@@std@@QEAA@XZ ; std::basic_string<char,std::char_traits<char>,std::allocator<char> >::~basic_string<char,std::char_traits<char>,std::allocator<char> >
PUBLIC	?data@?$basic_string@DU?$char_traits@D@std@@V?$allocator@D@2@@std@@QEBAPEBDXZ ; std::basic_string<char,std::char_traits<char>,std::allocator<char> >::data
PUBLIC	?size@?$basic_string@DU?$char_traits@D@std@@V?$allocator@D@2@@std@@QEBA_KXZ ; std::basic_string<char,std::char_traits<char>,std::allocator<char> >::size
PUBLIC	?max_size@?$basic_string@DU?$char_traits@D@std@@V?$allocator@D@2@@std@@QEBA_KXZ ; std::basic_string<char,std::char_traits<char>,std::allocator<char> >::max_size
PUBLIC	?_Calculate_growth@?$basic_string@DU?$char_traits@D@std@@V?$allocator@D@2@@std@@CA_K_K00@Z ; std::basic_string<char,std::char_traits<char>,std::allocator<char> >::_Calculate_growth
PUBLIC	?_Calculate_growth@?$basic_string@DU?$char_traits@D@std@@V?$allocator@D@2@@std@@AEBA_K_K@Z ; std::basic_string<char,std::char_traits<char>,std::allocator<char> >::_Calculate_growth
PUBLIC	?_Tidy_deallocate@?$basic_string@DU?$char_traits@D@std@@V?$allocator@D@2@@std@@AEAAXXZ ; std::basic_string<char,std::char_traits<char>,std::allocator<char> >::_Tidy_deallocate
PUBLIC	?_Getal@?$basic_string@DU?$char_traits@D@std@@V?$allocator@D@2@@std@@AEAAAEAV?$allocator@D@2@XZ ; std::basic_string<char,std::char_traits<char>,std::allocator<char> >::_Getal
PUBLIC	?_Getal@?$basic_string@DU?$char_traits@D@std@@V?$allocator@D@2@@std@@AEBAAEBV?$allocator@D@2@XZ ; std::basic_string<char,std::char_traits<char>,std::allocator<char> >::_Getal
PUBLIC	?_Get_first@?$_Compressed_pair@V?$allocator@D@std@@V?$_String_val@U?$_Simple_types@D@std@@@2@$00@std@@QEAAAEAV?$allocator@D@2@XZ ; std::_Compressed_pair<std::allocator<char>,std::_String_val<std::_Simple_types<char> >,1>::_Get_first
PUBLIC	?_Get_first@?$_Compressed_pair@V?$allocator@D@std@@V?$_String_val@U?$_Simple_types@D@std@@@2@$00@std@@QEBAAEBV?$allocator@D@2@XZ ; std::_Compressed_pair<std::allocator<char>,std::_String_val<std::_Simple_types<char> >,1>::_Get_first
PUBLIC	??1?$_Compressed_pair@V?$allocator@D@std@@V?$_String_val@U?$_Simple_types@D@std@@@2@$00@std@@QEAA@XZ ; std::_Compressed_pair<std::allocator<char>,std::_String_val<std::_Simple_types<char> >,1>::~_Compressed_pair<std::allocator<char>,std::_String_val<std::_Simple_types<char> >,1>
PUBLIC	?mont@@YA?AV?$basic_string@DU?$char_traits@D@std@@V?$allocator@D@2@@std@@H@Z ; mont
PUBLIC	?holiday@@YAXH_NH@Z				; holiday
PUBLIC	??$?6U?$char_traits@D@std@@@std@@YAAEAV?$basic_ostream@DU?$char_traits@D@std@@@0@AEAV10@PEBD@Z ; std::operator<<<std::char_traits<char> >
PUBLIC	??$endl@DU?$char_traits@D@std@@@std@@YAAEAV?$basic_ostream@DU?$char_traits@D@std@@@0@AEAV10@@Z ; std::endl<char,std::char_traits<char> >
PUBLIC	?secondDayNumber@@YAHHHH_N@Z			; secondDayNumber
PUBLIC	?calculateHourDiff@@YAHHHH@Z			; calculateHourDiff
PUBLIC	main
PUBLIC	??$?6DU?$char_traits@D@std@@V?$allocator@D@1@@std@@YAAEAV?$basic_ostream@DU?$char_traits@D@std@@@0@AEAV10@AEBV?$basic_string@DU?$char_traits@D@std@@V?$allocator@D@2@@0@@Z ; std::operator<<<char,std::char_traits<char>,std::allocator<char> >
PUBLIC	??0_Sentry_base@?$basic_ostream@DU?$char_traits@D@std@@@std@@QEAA@AEAV12@@Z ; std::basic_ostream<char,std::char_traits<char> >::_Sentry_base::_Sentry_base
PUBLIC	??1_Sentry_base@?$basic_ostream@DU?$char_traits@D@std@@@std@@QEAA@XZ ; std::basic_ostream<char,std::char_traits<char> >::_Sentry_base::~_Sentry_base
PUBLIC	??0sentry@?$basic_ostream@DU?$char_traits@D@std@@@std@@QEAA@AEAV12@@Z ; std::basic_ostream<char,std::char_traits<char> >::sentry::sentry
PUBLIC	??1sentry@?$basic_ostream@DU?$char_traits@D@std@@@std@@QEAA@XZ ; std::basic_ostream<char,std::char_traits<char> >::sentry::~sentry
PUBLIC	??Bsentry@?$basic_ostream@DU?$char_traits@D@std@@@std@@QEBA_NXZ ; std::basic_ostream<char,std::char_traits<char> >::sentry::operator bool
PUBLIC	??$min@_K@std@@YAAEB_KAEB_K0@Z			; std::min<unsigned __int64>
PUBLIC	?allocate@?$allocator@U_Container_proxy@std@@@std@@QEAAPEAU_Container_proxy@2@_K@Z ; std::allocator<std::_Container_proxy>::allocate
PUBLIC	??$_Delete_plain_internal@V?$allocator@U_Container_proxy@std@@@std@@@std@@YAXAEAV?$allocator@U_Container_proxy@std@@@0@QEAU_Container_proxy@0@@Z ; std::_Delete_plain_internal<std::allocator<std::_Container_proxy> >
PUBLIC	??$_Convert_size@_K_K@std@@YA_K_K@Z		; std::_Convert_size<unsigned __int64,unsigned __int64>
PUBLIC	??$?0D@?$allocator@U_Container_proxy@std@@@std@@QEAA@AEBV?$allocator@D@1@@Z ; std::allocator<std::_Container_proxy>::allocator<std::_Container_proxy><char>
PUBLIC	??$?0V?$allocator@D@std@@$$V@?$_Compressed_pair@V?$allocator@D@std@@V?$_String_val@U?$_Simple_types@D@std@@@2@$00@std@@QEAA@U_One_then_variadic_args_t@1@$$QEAV?$allocator@D@1@@Z ; std::_Compressed_pair<std::allocator<char>,std::_String_val<std::_Simple_types<char> >,1>::_Compressed_pair<std::allocator<char>,std::_String_val<std::_Simple_types<char> >,1><std::allocator<char> >
PUBLIC	??$?0$$V@?$_Compressed_pair@V?$allocator@D@std@@V?$_String_val@U?$_Simple_types@D@std@@@2@$00@std@@QEAA@U_Zero_then_variadic_args_t@1@@Z ; std::_Compressed_pair<std::allocator<char>,std::_String_val<std::_Simple_types<char> >,1>::_Compressed_pair<std::allocator<char>,std::_String_val<std::_Simple_types<char> >,1><>
PUBLIC	??$_Construct@$00PEBD@?$basic_string@DU?$char_traits@D@std@@V?$allocator@D@2@@std@@AEAAXQEBD_K@Z ; std::basic_string<char,std::char_traits<char>,std::allocator<char> >::_Construct<1,char const *>
PUBLIC	??$_Construct@$01PEBD@?$basic_string@DU?$char_traits@D@std@@V?$allocator@D@2@@std@@AEAAXQEBD_K@Z ; std::basic_string<char,std::char_traits<char>,std::allocator<char> >::_Construct<2,char const *>
PUBLIC	??$_Destroy_in_place@PEAD@std@@YAXAEAPEAD@Z	; std::_Destroy_in_place<char *>
PUBLIC	??$_Unfancy@D@std@@YAPEADPEAD@Z			; std::_Unfancy<char>
PUBLIC	??$max@_K@std@@YAAEB_KAEB_K0@Z			; std::max<unsigned __int64>
PUBLIC	??$_Deallocate@$0BA@$0A@@std@@YAXPEAX_K@Z	; std::_Deallocate<16,0>
PUBLIC	??$_Insert_string@DU?$char_traits@D@std@@_K@std@@YAAEAV?$basic_ostream@DU?$char_traits@D@std@@@0@AEAV10@QEBD_K@Z ; std::_Insert_string<char,std::char_traits<char>,unsigned __int64>
PUBLIC	??$_Deallocate_plain@V?$allocator@U_Container_proxy@std@@@std@@@std@@YAXAEAV?$allocator@U_Container_proxy@std@@@0@QEAU_Container_proxy@0@@Z ; std::_Deallocate_plain<std::allocator<std::_Container_proxy> >
PUBLIC	??0?$_Container_proxy_ptr12@V?$allocator@U_Container_proxy@std@@@std@@@std@@QEAA@AEAV?$allocator@U_Container_proxy@std@@@1@AEAU_Container_base12@1@@Z ; std::_Container_proxy_ptr12<std::allocator<std::_Container_proxy> >::_Container_proxy_ptr12<std::allocator<std::_Container_proxy> >
PUBLIC	??1?$_Container_proxy_ptr12@V?$allocator@U_Container_proxy@std@@@std@@@std@@QEAA@XZ ; std::_Container_proxy_ptr12<std::allocator<std::_Container_proxy> >::~_Container_proxy_ptr12<std::allocator<std::_Container_proxy> >
PUBLIC	??$_Unfancy@U_Container_proxy@std@@@std@@YAPEAU_Container_proxy@0@PEAU10@@Z ; std::_Unfancy<std::_Container_proxy>
PUBLIC	??$_Construct_in_place@PEADAEBQEAD@std@@YAXAEAPEADAEBQEAD@Z ; std::_Construct_in_place<char *,char * const &>
PUBLIC	??$addressof@PEAD@std@@YAPEAPEADAEAPEAD@Z	; std::addressof<char *>
PUBLIC	??$_Get_size_of_n@$0BA@@std@@YA_K_K@Z		; std::_Get_size_of_n<16>
PUBLIC	??$_Allocate@$0BA@U_Default_allocate_traits@std@@$0A@@std@@YAPEAX_K@Z ; std::_Allocate<16,std::_Default_allocate_traits,0>
PUBLIC	??$_Get_size_of_n@$00@std@@YA_K_K@Z		; std::_Get_size_of_n<1>
PUBLIC	??$addressof@U_Container_proxy@std@@@std@@YAPEAU_Container_proxy@0@AEAU10@@Z ; std::addressof<std::_Container_proxy>
PUBLIC	?deallocate@?$_Default_allocator_traits@V?$allocator@U_Container_proxy@std@@@std@@@std@@SAXAEAV?$allocator@U_Container_proxy@std@@@2@QEAU_Container_proxy@2@_K@Z ; std::_Default_allocator_traits<std::allocator<std::_Container_proxy> >::deallocate
PUBLIC	??$_Allocate_manually_vector_aligned@U_Default_allocate_traits@std@@@std@@YAPEAX_K@Z ; std::_Allocate_manually_vector_aligned<std::_Default_allocate_traits>
PUBLIC	__JustMyCode_Default
PUBLIC	??_7exception@std@@6B@				; std::exception::`vftable'
PUBLIC	??_C@_0BC@EOODALEL@Unknown?5exception@		; `string'
PUBLIC	??_7bad_alloc@std@@6B@				; std::bad_alloc::`vftable'
PUBLIC	??_7bad_array_new_length@std@@6B@		; std::bad_array_new_length::`vftable'
PUBLIC	??_C@_0BF@KINCDENJ@bad?5array?5new?5length@	; `string'
PUBLIC	_TI3?AVbad_array_new_length@std@@
PUBLIC	_CTA3?AVbad_array_new_length@std@@
PUBLIC	??_R0?AVbad_array_new_length@std@@@8		; std::bad_array_new_length `RTTI Type Descriptor'
PUBLIC	_CT??_R0?AVbad_array_new_length@std@@@8??0bad_array_new_length@std@@QEAA@AEBV01@@Z24
PUBLIC	??_R0?AVbad_alloc@std@@@8			; std::bad_alloc `RTTI Type Descriptor'
PUBLIC	_CT??_R0?AVbad_alloc@std@@@8??0bad_alloc@std@@QEAA@AEBV01@@Z24
PUBLIC	??_R0?AVexception@std@@@8			; std::exception `RTTI Type Descriptor'
PUBLIC	_CT??_R0?AVexception@std@@@8??0exception@std@@QEAA@AEBV01@@Z24
PUBLIC	?__LINE__Var@?0??_Adjust_manually_vector_aligned@std@@YAXAEAPEAXAEA_K@Z@4JA ; `std::_Adjust_manually_vector_aligned'::`1'::__LINE__Var
PUBLIC	??_C@_0BB@FCMFBGOM@invalid?5argument@		; `string'
PUBLIC	??_C@_02DKCKIIND@?$CFs@				; `string'
PUBLIC	??_C@_0GC@JDLAECEI@C?3?2Program?5Files?2Microsoft?5Visu@ ; `string'
PUBLIC	??_C@_1ME@PPIEIJND@?$AAC?$AA?3?$AA?2?$AAP?$AAr?$AAo?$AAg?$AAr?$AAa?$AAm?$AA?5?$AAF?$AAi?$AAl?$AAe@ ; `string'
PUBLIC	??_C@_11LOCGONAA@@				; `string'
PUBLIC	??_C@_1CG@JNLFBNGN@?$AA?$CC?$AAi?$AAn?$AAv?$AAa?$AAl?$AAi?$AAd?$AA?5?$AAa?$AAr?$AAg?$AAu?$AAm?$AAe@ ; `string'
PUBLIC	??_C@_0BA@JFNIOLAK@string?5too?5long@		; `string'
PUBLIC	??_C@_06BMGEFDJH@?$NP?m?b?$OA?p?$PM@		; `string'
PUBLIC	??_C@_07JBGLOLNM@?T?e?b?p?$OA?k?$PM@		; `string'
PUBLIC	??_C@_04FAAJLMOP@?L?$OA?p?r@			; `string'
PUBLIC	??_C@_06PNLHGGPK@?$MA?o?p?e?k?$PM@		; `string'
PUBLIC	??_C@_03MEHOOJFI@?L?$OA?i@			; `string'
PUBLIC	??_C@_04JPDCCHCO@?H?$PO?m?$PM@			; `string'
PUBLIC	??_C@_04JLLPFLJM@?H?$PO?k?$PM@			; `string'
PUBLIC	??_C@_06JMCJJLBN@?$MA?b?c?s?q?r@		; `string'
PUBLIC	??_C@_08ECPNNGFL@?Q?e?m?r?$PP?a?p?$PM@		; `string'
PUBLIC	??_C@_07KDBBAIGI@?N?j?r?$PP?a?p?$PM@		; `string'
PUBLIC	??_C@_06EKHNJIII@?M?n?$PP?a?p?$PM@		; `string'
PUBLIC	??_C@_07MJKMOEOM@?D?e?j?$OA?a?p?$PM@		; `string'
PUBLIC	??_C@_01LFCBOECM@?4@				; `string'
PUBLIC	??_C@_0BG@LDDGAJMP@?D?E?M?$NM?5?O?P?N?C?P?$MA?L?L?H?Q?R?$MA?$CB?$CB?$CB?$CB@ ; `string'
PUBLIC	??_C@_0BA@IEBPNGBA@?D?E?M?$NM?5?O?N?A?E?D?$NL?$CB?$CB?$CB?$CB@ ; `string'
PUBLIC	??_C@_0O@JJICNHLP@?M?N?B?$NL?I?5?C?N?D?$CB?$CB?$CB?$CB@ ; `string'
PUBLIC	??_C@_03EJKFMIHK@rus@				; `string'
PUBLIC	??_C@_0CC@GJFPIFCJ@?B?b?e?d?h?r?e?5?d?$OA?r?s?5?b?5?t?n?p?l?$OA?r?e?5?D?D?L?L?C?C?C?C@ ; `string'
PUBLIC	??_C@_0CA@JIJBLJJE@?B?$PL?5?b?b?e?k?h?5?m?e?o?p?$OA?b?h?k?$PM?m?n?e?5?g?m?$OA?w?e?m?h?e?$CB@ ; `string'
PUBLIC	??_C@_06LMMEPPLN@?D?e?m?$PM?3?5@		; `string'
PUBLIC	??_C@_03NLJIHOMM@?5?9?5@			; `string'
PUBLIC	??_C@_07ONJDPLPB@?L?e?q?$PP?v?3?5@		; `string'
PUBLIC	??_C@_05KLMANJHD@?C?n?d?3?5@			; `string'
PUBLIC	??_C@_0BL@MFLHOIBP@?B?b?e?d?h?r?e?5?o?n?p?$PP?d?j?n?b?$PL?i?5?m?n?l?e?p?3?5@ ; `string'
PUBLIC	??_C@_0CE@OFLADAII@?B?b?e?d?h?r?e?52?5?d?$OA?r?s?5?b?5?t?n?p?l?$OA?r?e?5?D?D?L?L?C?C@ ; `string'
PUBLIC	??_C@_0BH@JBGJPPKB@?P?$OA?g?m?h?v?$OA?5?l?e?f?d?s?5?d?$OA?r?$OA?l?h?3?5@ ; `string'
PUBLIC	??_C@_06HMIDOKGF@?5?w?$OA?q?n?b@		; `string'
PUBLIC	??_C@_0BA@PFJEFFEO@?R?e?j?s?y?e?e?5?b?p?e?l?$PP?3?5@ ; `string'
PUBLIC	??_C@_0BC@PHINAGMK@?P?$OA?g?m?h?v?$OA?5?b?5?w?$OA?q?$OA?u?3?5@ ; `string'
PUBLIC	??_C@_0DG@KGHKKGBC@null?5pointer?5cannot?5point?5to?5a?5@ ; `string'
PUBLIC	??_C@_1HA@FACCKGGH@?$AA?$CC?$AAn?$AAu?$AAl?$AAl?$AA?5?$AAp?$AAo?$AAi?$AAn?$AAt?$AAe?$AAr?$AA?5?$AAc@ ; `string'
PUBLIC	??_R4exception@std@@6B@				; std::exception::`RTTI Complete Object Locator'
PUBLIC	??_R3exception@std@@8				; std::exception::`RTTI Class Hierarchy Descriptor'
PUBLIC	??_R2exception@std@@8				; std::exception::`RTTI Base Class Array'
PUBLIC	??_R1A@?0A@EA@exception@std@@8			; std::exception::`RTTI Base Class Descriptor at (0,-1,0,64)'
PUBLIC	??_R4bad_alloc@std@@6B@				; std::bad_alloc::`RTTI Complete Object Locator'
PUBLIC	??_R3bad_alloc@std@@8				; std::bad_alloc::`RTTI Class Hierarchy Descriptor'
PUBLIC	??_R2bad_alloc@std@@8				; std::bad_alloc::`RTTI Base Class Array'
PUBLIC	??_R1A@?0A@EA@bad_alloc@std@@8			; std::bad_alloc::`RTTI Base Class Descriptor at (0,-1,0,64)'
PUBLIC	??_R4bad_array_new_length@std@@6B@		; std::bad_array_new_length::`RTTI Complete Object Locator'
PUBLIC	??_R3bad_array_new_length@std@@8		; std::bad_array_new_length::`RTTI Class Hierarchy Descriptor'
PUBLIC	??_R2bad_array_new_length@std@@8		; std::bad_array_new_length::`RTTI Base Class Array'
PUBLIC	??_R1A@?0A@EA@bad_array_new_length@std@@8	; std::bad_array_new_length::`RTTI Base Class Descriptor at (0,-1,0,64)'
EXTRN	??_M@YAXPEAX_K1P6AX0@Z@Z:PROC			; `eh vector destructor iterator'
EXTRN	??2@YAPEAX_K@Z:PROC				; operator new
EXTRN	??3@YAXPEAX_K@Z:PROC				; operator delete
EXTRN	?dateNumber@@YAHHHH_N@Z:PROC			; dateNumber
EXTRN	?leapyear@@YA_NH_N@Z:PROC			; leapyear
EXTRN	__imp__invalid_parameter:PROC
EXTRN	__imp__CrtDbgReport:PROC
EXTRN	__imp_??0_Lockit@std@@QEAA@H@Z:PROC
EXTRN	__imp_??1_Lockit@std@@QEAA@XZ:PROC
EXTRN	abs:PROC
EXTRN	memcpy:PROC
EXTRN	strlen:PROC
EXTRN	?_Xlength_error@std@@YAXPEBD@Z:PROC		; std::_Xlength_error
EXTRN	?uncaught_exception@std@@YA_NXZ:PROC		; std::uncaught_exception
EXTRN	__std_exception_copy:PROC
EXTRN	__std_exception_destroy:PROC
EXTRN	??_Eexception@std@@UEAAPEAXI@Z:PROC		; std::exception::`vector deleting destructor'
EXTRN	??_Ebad_alloc@std@@UEAAPEAXI@Z:PROC		; std::bad_alloc::`vector deleting destructor'
EXTRN	??_Ebad_array_new_length@std@@UEAAPEAXI@Z:PROC	; std::bad_array_new_length::`vector deleting destructor'
EXTRN	__imp__localtime64:PROC
EXTRN	__imp__time64:PROC
EXTRN	__imp_setlocale:PROC
EXTRN	__imp_?good@ios_base@std@@QEBA_NXZ:PROC
EXTRN	__imp_?flags@ios_base@std@@QEBAHXZ:PROC
EXTRN	__imp_?width@ios_base@std@@QEBA_JXZ:PROC
EXTRN	__imp_?width@ios_base@std@@QEAA_J_J@Z:PROC
EXTRN	__imp_?sputc@?$basic_streambuf@DU?$char_traits@D@std@@@std@@QEAAHD@Z:PROC
EXTRN	__imp_?sputn@?$basic_streambuf@DU?$char_traits@D@std@@@std@@QEAA_JPEBD_J@Z:PROC
EXTRN	__imp_?setstate@?$basic_ios@DU?$char_traits@D@std@@@std@@QEAAXH_N@Z:PROC
EXTRN	__imp_?tie@?$basic_ios@DU?$char_traits@D@std@@@std@@QEBAPEAV?$basic_ostream@DU?$char_traits@D@std@@@2@XZ:PROC
EXTRN	__imp_?rdbuf@?$basic_ios@DU?$char_traits@D@std@@@std@@QEBAPEAV?$basic_streambuf@DU?$char_traits@D@std@@@2@XZ:PROC
EXTRN	__imp_?fill@?$basic_ios@DU?$char_traits@D@std@@@std@@QEBADXZ:PROC
EXTRN	__imp_?widen@?$basic_ios@DU?$char_traits@D@std@@@std@@QEBADD@Z:PROC
EXTRN	__imp_?_Osfx@?$basic_ostream@DU?$char_traits@D@std@@@std@@QEAAXXZ:PROC
EXTRN	__imp_??6?$basic_ostream@DU?$char_traits@D@std@@@std@@QEAAAEAV01@P6AAEAV01@AEAV01@@Z@Z:PROC
EXTRN	__imp_??6?$basic_ostream@DU?$char_traits@D@std@@@std@@QEAAAEAV01@H@Z:PROC
EXTRN	__imp_?put@?$basic_ostream@DU?$char_traits@D@std@@@std@@QEAAAEAV12@D@Z:PROC
EXTRN	__imp_?flush@?$basic_ostream@DU?$char_traits@D@std@@@std@@QEAAAEAV12@XZ:PROC
EXTRN	__imp_??5?$basic_istream@DU?$char_traits@D@std@@@std@@QEAAAEAV01@AEAH@Z:PROC
EXTRN	_CxxThrowException:PROC
EXTRN	_RTC_CheckStackVars:PROC
EXTRN	_RTC_InitBase:PROC
EXTRN	_RTC_Shutdown:PROC
EXTRN	_RTC_UninitUse:PROC
EXTRN	__CheckForDebuggerJustMyCode:PROC
EXTRN	__CxxFrameHandler4:PROC
EXTRN	__GSHandlerCheck:PROC
EXTRN	__GSHandlerCheck_EH4:PROC
EXTRN	__security_check_cookie:PROC
EXTRN	??_7type_info@@6B@:BYTE				; type_info::`vftable'
EXTRN	__imp_?cin@std@@3V?$basic_istream@DU?$char_traits@D@std@@@1@A:BYTE
EXTRN	__imp_?cout@std@@3V?$basic_ostream@DU?$char_traits@D@std@@@1@A:BYTE
EXTRN	__security_cookie:QWORD
;	COMDAT pdata
pdata	SEGMENT
$pdata$?__empty_global_delete@@YAXPEAX@Z DD imagerel $LN3
	DD	imagerel $LN3+41
	DD	imagerel $unwind$?__empty_global_delete@@YAXPEAX@Z
pdata	ENDS
;	COMDAT pdata
pdata	SEGMENT
$pdata$?__empty_global_delete@@YAXPEAX_K@Z DD imagerel $LN3
	DD	imagerel $LN3+46
	DD	imagerel $unwind$?__empty_global_delete@@YAXPEAX_K@Z
pdata	ENDS
;	COMDAT pdata
pdata	SEGMENT
$pdata$??2@YAPEAX_KPEAX@Z DD imagerel $LN3
	DD	imagerel $LN3+53
	DD	imagerel $unwind$??2@YAPEAX_KPEAX@Z
pdata	ENDS
;	COMDAT pdata
pdata	SEGMENT
$pdata$??0exception@std@@QEAA@QEBDH@Z DD imagerel $LN3
	DD	imagerel $LN3+116
	DD	imagerel $unwind$??0exception@std@@QEAA@QEBDH@Z
pdata	ENDS
;	COMDAT pdata
pdata	SEGMENT
$pdata$??0exception@std@@QEAA@AEBV01@@Z DD imagerel $LN3
	DD	imagerel $LN3+123
	DD	imagerel $unwind$??0exception@std@@QEAA@AEBV01@@Z
pdata	ENDS
;	COMDAT pdata
pdata	SEGMENT
$pdata$??1exception@std@@UEAA@XZ DD imagerel $LN3
	DD	imagerel $LN3+77
	DD	imagerel $unwind$??1exception@std@@UEAA@XZ
pdata	ENDS
;	COMDAT pdata
pdata	SEGMENT
$pdata$?what@exception@std@@UEBAPEBDXZ DD imagerel $LN5
	DD	imagerel $LN5+96
	DD	imagerel $unwind$?what@exception@std@@UEBAPEBDXZ
pdata	ENDS
;	COMDAT pdata
pdata	SEGMENT
$pdata$??_Gexception@std@@UEAAPEAXI@Z DD imagerel $LN4
	DD	imagerel $LN4+82
	DD	imagerel $unwind$??_Gexception@std@@UEAAPEAXI@Z
pdata	ENDS
;	COMDAT pdata
pdata	SEGMENT
$pdata$??0bad_alloc@std@@AEAA@QEBD@Z DD imagerel $LN3
	DD	imagerel $LN3+95
	DD	imagerel $unwind$??0bad_alloc@std@@AEAA@QEBD@Z
pdata	ENDS
;	COMDAT pdata
pdata	SEGMENT
$pdata$??1bad_alloc@std@@UEAA@XZ DD imagerel $LN3
	DD	imagerel $LN3+41
	DD	imagerel $unwind$??1bad_alloc@std@@UEAA@XZ
pdata	ENDS
;	COMDAT pdata
pdata	SEGMENT
$pdata$??0bad_alloc@std@@QEAA@AEBV01@@Z DD imagerel $LN3
	DD	imagerel $LN3+77
	DD	imagerel $unwind$??0bad_alloc@std@@QEAA@AEBV01@@Z
pdata	ENDS
;	COMDAT pdata
pdata	SEGMENT
$pdata$??_Gbad_alloc@std@@UEAAPEAXI@Z DD imagerel $LN4
	DD	imagerel $LN4+82
	DD	imagerel $unwind$??_Gbad_alloc@std@@UEAAPEAXI@Z
pdata	ENDS
;	COMDAT pdata
pdata	SEGMENT
$pdata$??0bad_array_new_length@std@@QEAA@XZ DD imagerel $LN3
	DD	imagerel $LN3+84
	DD	imagerel $unwind$??0bad_array_new_length@std@@QEAA@XZ
pdata	ENDS
;	COMDAT pdata
pdata	SEGMENT
$pdata$??1bad_array_new_length@std@@UEAA@XZ DD imagerel $LN3
	DD	imagerel $LN3+41
	DD	imagerel $unwind$??1bad_array_new_length@std@@UEAA@XZ
pdata	ENDS
;	COMDAT pdata
pdata	SEGMENT
$pdata$??0bad_array_new_length@std@@QEAA@AEBV01@@Z DD imagerel $LN3
	DD	imagerel $LN3+77
	DD	imagerel $unwind$??0bad_array_new_length@std@@QEAA@AEBV01@@Z
pdata	ENDS
;	COMDAT pdata
pdata	SEGMENT
$pdata$??_Gbad_array_new_length@std@@UEAAPEAXI@Z DD imagerel $LN4
	DD	imagerel $LN4+82
	DD	imagerel $unwind$??_Gbad_array_new_length@std@@UEAAPEAXI@Z
pdata	ENDS
;	COMDAT pdata
pdata	SEGMENT
$pdata$?_Throw_bad_array_new_length@std@@YAXXZ DD imagerel $LN3
	DD	imagerel $LN3+68
	DD	imagerel $unwind$?_Throw_bad_array_new_length@std@@YAXXZ
pdata	ENDS
;	COMDAT pdata
pdata	SEGMENT
$pdata$?max@?$numeric_limits@_J@std@@SA_JXZ DD imagerel $LN3
	DD	imagerel $LN3+47
	DD	imagerel $unwind$?max@?$numeric_limits@_J@std@@SA_JXZ
pdata	ENDS
;	COMDAT pdata
pdata	SEGMENT
$pdata$?_Allocate@_Default_allocate_traits@std@@SAPEAX_K@Z DD imagerel $LN3
	DD	imagerel $LN3+53
	DD	imagerel $unwind$?_Allocate@_Default_allocate_traits@std@@SAPEAX_K@Z
pdata	ENDS
;	COMDAT pdata
pdata	SEGMENT
$pdata$?_Adjust_manually_vector_aligned@std@@YAXAEAPEAXAEA_K@Z DD imagerel $LN21
	DD	imagerel $LN21+453
	DD	imagerel $unwind$?_Adjust_manually_vector_aligned@std@@YAXAEAPEAXAEA_K@Z
pdata	ENDS
;	COMDAT pdata
pdata	SEGMENT
$pdata$??0_Container_proxy@std@@QEAA@PEAU_Container_base12@1@@Z DD imagerel $LN3
	DD	imagerel $LN3+85
	DD	imagerel $unwind$??0_Container_proxy@std@@QEAA@PEAU_Container_base12@1@@Z
pdata	ENDS
;	COMDAT pdata
pdata	SEGMENT
$pdata$??0_Container_base12@std@@QEAA@XZ DD imagerel $LN3
	DD	imagerel $LN3+62
	DD	imagerel $unwind$??0_Container_base12@std@@QEAA@XZ
pdata	ENDS
;	COMDAT pdata
pdata	SEGMENT
$pdata$?_Orphan_all@_Container_base12@std@@QEAAXXZ DD imagerel $LN3
	DD	imagerel $LN3+53
	DD	imagerel $unwind$?_Orphan_all@_Container_base12@std@@QEAAXXZ
pdata	ENDS
;	COMDAT pdata
pdata	SEGMENT
$pdata$?_Orphan_all_unlocked_v3@_Container_base12@std@@AEAAXXZ DD imagerel $LN7
	DD	imagerel $LN7+134
	DD	imagerel $unwind$?_Orphan_all_unlocked_v3@_Container_base12@std@@AEAAXXZ
pdata	ENDS
;	COMDAT pdata
pdata	SEGMENT
$pdata$?_Orphan_all_locked_v3@_Container_base12@std@@AEAAXXZ DD imagerel $LN3
	DD	imagerel $LN3+151
	DD	imagerel $unwind$?_Orphan_all_locked_v3@_Container_base12@std@@AEAAXXZ
pdata	ENDS
;	COMDAT pdata
pdata	SEGMENT
$pdata$??$exchange@PEAU_Iterator_base12@std@@$$T@std@@YAPEAU_Iterator_base12@0@AEAPEAU10@$$QEA$$T@Z DD imagerel $LN3
	DD	imagerel $LN3+84
	DD	imagerel $unwind$??$exchange@PEAU_Iterator_base12@std@@$$T@std@@YAPEAU_Iterator_base12@0@AEAPEAU10@$$QEA$$T@Z
pdata	ENDS
;	COMDAT pdata
pdata	SEGMENT
$pdata$?_Release@_Basic_container_proxy_ptr12@std@@QEAAXXZ DD imagerel $LN3
	DD	imagerel $LN3+55
	DD	imagerel $unwind$?_Release@_Basic_container_proxy_ptr12@std@@QEAAXXZ
pdata	ENDS
;	COMDAT pdata
pdata	SEGMENT
$pdata$??0_Basic_container_proxy_ptr12@std@@IEAA@XZ DD imagerel $LN3
	DD	imagerel $LN3+62
	DD	imagerel $unwind$??0_Basic_container_proxy_ptr12@std@@IEAA@XZ
pdata	ENDS
;	COMDAT pdata
pdata	SEGMENT
$pdata$??$addressof@U_Container_base12@std@@@std@@YAPEAU_Container_base12@0@AEAU10@@Z DD imagerel $LN3
	DD	imagerel $LN3+48
	DD	imagerel $unwind$??$addressof@U_Container_base12@std@@@std@@YAPEAU_Container_base12@0@AEAU10@@Z
pdata	ENDS
;	COMDAT pdata
pdata	SEGMENT
$pdata$??$_Construct_in_place@U_Container_proxy@std@@PEAU_Container_base12@2@@std@@YAXAEAU_Container_proxy@0@$$QEAPEAU_Container_base12@0@@Z DD imagerel $LN3
	DD	imagerel $LN3+100
	DD	imagerel $unwind$??$_Construct_in_place@U_Container_proxy@std@@PEAU_Container_base12@2@@std@@YAXAEAU_Container_proxy@0@$$QEAPEAU_Container_base12@0@@Z
pdata	ENDS
;	COMDAT pdata
pdata	SEGMENT
$pdata$?copy@?$_Char_traits@DH@std@@SAPEADQEADQEBD_K@Z DD imagerel $LN3
	DD	imagerel $LN3+84
	DD	imagerel $unwind$?copy@?$_Char_traits@DH@std@@SAPEADQEADQEBD_K@Z
pdata	ENDS
;	COMDAT pdata
pdata	SEGMENT
$pdata$?length@?$_Narrow_char_traits@DH@std@@SA_KQEBD@Z DD imagerel $LN3
	DD	imagerel $LN3+53
	DD	imagerel $unwind$?length@?$_Narrow_char_traits@DH@std@@SA_KQEBD@Z
pdata	ENDS
;	COMDAT pdata
pdata	SEGMENT
$pdata$?assign@?$_Narrow_char_traits@DH@std@@SAXAEADAEBD@Z DD imagerel $LN3
	DD	imagerel $LN3+65
	DD	imagerel $unwind$?assign@?$_Narrow_char_traits@DH@std@@SAXAEADAEBD@Z
pdata	ENDS
;	COMDAT pdata
pdata	SEGMENT
$pdata$?eq_int_type@?$_Narrow_char_traits@DH@std@@SA_NAEBH0@Z DD imagerel $LN5
	DD	imagerel $LN5+95
	DD	imagerel $unwind$?eq_int_type@?$_Narrow_char_traits@DH@std@@SA_NAEBH0@Z
pdata	ENDS
;	COMDAT pdata
pdata	SEGMENT
$pdata$?eof@?$_Narrow_char_traits@DH@std@@SAHXZ DD imagerel $LN3
	DD	imagerel $LN3+42
	DD	imagerel $unwind$?eof@?$_Narrow_char_traits@DH@std@@SAHXZ
pdata	ENDS
;	COMDAT pdata
pdata	SEGMENT
$pdata$?_Xlen_string@std@@YAXXZ DD imagerel $LN3
	DD	imagerel $LN3+49
	DD	imagerel $unwind$?_Xlen_string@std@@YAXXZ
pdata	ENDS
;	COMDAT pdata
pdata	SEGMENT
$pdata$??0?$allocator@D@std@@QEAA@XZ DD imagerel $LN3
	DD	imagerel $LN3+48
	DD	imagerel $unwind$??0?$allocator@D@std@@QEAA@XZ
pdata	ENDS
;	COMDAT pdata
pdata	SEGMENT
$pdata$?deallocate@?$allocator@D@std@@QEAAXQEAD_K@Z DD imagerel $LN13
	DD	imagerel $LN13+209
	DD	imagerel $unwind$?deallocate@?$allocator@D@std@@QEAAXQEAD_K@Z
pdata	ENDS
;	COMDAT pdata
pdata	SEGMENT
$pdata$?allocate@?$allocator@D@std@@QEAAPEAD_K@Z DD imagerel $LN3
	DD	imagerel $LN3+66
	DD	imagerel $unwind$?allocate@?$allocator@D@std@@QEAAPEAD_K@Z
pdata	ENDS
;	COMDAT pdata
pdata	SEGMENT
$pdata$?max_size@?$_Default_allocator_traits@V?$allocator@D@std@@@std@@SA_KAEBV?$allocator@D@2@@Z DD imagerel $LN3
	DD	imagerel $LN3+48
	DD	imagerel $unwind$?max_size@?$_Default_allocator_traits@V?$allocator@D@std@@@std@@SA_KAEBV?$allocator@D@2@@Z
pdata	ENDS
;	COMDAT pdata
pdata	SEGMENT
$pdata$?select_on_container_copy_construction@?$_Default_allocator_traits@V?$allocator@D@std@@@std@@SA?AV?$allocator@D@2@AEBV32@@Z DD imagerel $LN3
	DD	imagerel $LN3+53
	DD	imagerel $unwind$?select_on_container_copy_construction@?$_Default_allocator_traits@V?$allocator@D@std@@@std@@SA?AV?$allocator@D@2@AEBV32@@Z
pdata	ENDS
;	COMDAT pdata
pdata	SEGMENT
$pdata$??0?$_String_val@U?$_Simple_types@D@std@@@std@@QEAA@XZ DD imagerel $LN3
	DD	imagerel $LN3+109
	DD	imagerel $unwind$??0?$_String_val@U?$_Simple_types@D@std@@@std@@QEAA@XZ
pdata	ENDS
;	COMDAT pdata
pdata	SEGMENT
$pdata$?_Myptr@?$_String_val@U?$_Simple_types@D@std@@@std@@QEBAPEBDXZ DD imagerel $LN4
	DD	imagerel $LN4+99
	DD	imagerel $unwind$?_Myptr@?$_String_val@U?$_Simple_types@D@std@@@std@@QEBAPEBDXZ
pdata	ENDS
;	COMDAT pdata
pdata	SEGMENT
$pdata$?_Large_string_engaged@?$_String_val@U?$_Simple_types@D@std@@@std@@QEBA_NXZ DD imagerel $LN5
	DD	imagerel $LN5+84
	DD	imagerel $unwind$?_Large_string_engaged@?$_String_val@U?$_Simple_types@D@std@@@std@@QEBA_NXZ
pdata	ENDS
;	COMDAT pdata
pdata	SEGMENT
$pdata$?_Activate_SSO_buffer@?$_String_val@U?$_Simple_types@D@std@@@std@@QEAAXXZ DD imagerel $LN3
	DD	imagerel $LN3+41
	DD	imagerel $unwind$?_Activate_SSO_buffer@?$_String_val@U?$_Simple_types@D@std@@@std@@QEAAXXZ
pdata	ENDS
;	COMDAT pdata
pdata	SEGMENT
$pdata$??0_Bxty@?$_String_val@U?$_Simple_types@D@std@@@std@@QEAA@XZ DD imagerel $LN3
	DD	imagerel $LN3+71
	DD	imagerel $unwind$??0_Bxty@?$_String_val@U?$_Simple_types@D@std@@@std@@QEAA@XZ
pdata	ENDS
;	COMDAT pdata
pdata	SEGMENT
$pdata$??1_Bxty@?$_String_val@U?$_Simple_types@D@std@@@std@@QEAA@XZ DD imagerel $LN3
	DD	imagerel $LN3+41
	DD	imagerel $unwind$??1_Bxty@?$_String_val@U?$_Simple_types@D@std@@@std@@QEAA@XZ
pdata	ENDS
;	COMDAT pdata
pdata	SEGMENT
$pdata$??1?$_String_val@U?$_Simple_types@D@std@@@std@@QEAA@XZ DD imagerel $LN3
	DD	imagerel $LN3+48
	DD	imagerel $unwind$??1?$_String_val@U?$_Simple_types@D@std@@@std@@QEAA@XZ
pdata	ENDS
;	COMDAT pdata
pdata	SEGMENT
$pdata$??0?$basic_string@DU?$char_traits@D@std@@V?$allocator@D@2@@std@@QEAA@AEBV01@@Z DD imagerel $LN4
	DD	imagerel $LN4+145
	DD	imagerel $unwind$??0?$basic_string@DU?$char_traits@D@std@@V?$allocator@D@2@@std@@QEAA@AEBV01@@Z
pdata	ENDS
;	COMDAT pdata
pdata	SEGMENT
$pdata$?dtor$0@?0???0?$basic_string@DU?$char_traits@D@std@@V?$allocator@D@2@@std@@QEAA@AEBV01@@Z@4HA DD imagerel ?dtor$0@?0???0?$basic_string@DU?$char_traits@D@std@@V?$allocator@D@2@@std@@QEAA@AEBV01@@Z@4HA
	DD	imagerel ?dtor$0@?0???0?$basic_string@DU?$char_traits@D@std@@V?$allocator@D@2@@std@@QEAA@AEBV01@@Z@4HA+39
	DD	imagerel $unwind$?dtor$0@?0???0?$basic_string@DU?$char_traits@D@std@@V?$allocator@D@2@@std@@QEAA@AEBV01@@Z@4HA
pdata	ENDS
;	COMDAT pdata
pdata	SEGMENT
$pdata$??0?$basic_string@DU?$char_traits@D@std@@V?$allocator@D@2@@std@@QEAA@QEBD@Z DD imagerel $LN4
	DD	imagerel $LN4+119
	DD	imagerel $unwind$??0?$basic_string@DU?$char_traits@D@std@@V?$allocator@D@2@@std@@QEAA@QEBD@Z
pdata	ENDS
;	COMDAT pdata
pdata	SEGMENT
$pdata$?dtor$0@?0???0?$basic_string@DU?$char_traits@D@std@@V?$allocator@D@2@@std@@QEAA@QEBD@Z@4HA DD imagerel ?dtor$0@?0???0?$basic_string@DU?$char_traits@D@std@@V?$allocator@D@2@@std@@QEAA@QEBD@Z@4HA
	DD	imagerel ?dtor$0@?0???0?$basic_string@DU?$char_traits@D@std@@V?$allocator@D@2@@std@@QEAA@QEBD@Z@4HA+39
	DD	imagerel $unwind$?dtor$0@?0???0?$basic_string@DU?$char_traits@D@std@@V?$allocator@D@2@@std@@QEAA@QEBD@Z@4HA
pdata	ENDS
;	COMDAT pdata
pdata	SEGMENT
$pdata$?_Start_element_lifetimes@?$basic_string@DU?$char_traits@D@std@@V?$allocator@D@2@@std@@CAXQEAD_K@Z DD imagerel $LN3
	DD	imagerel $LN3+46
	DD	imagerel $unwind$?_Start_element_lifetimes@?$basic_string@DU?$char_traits@D@std@@V?$allocator@D@2@@std@@CAXQEAD_K@Z
pdata	ENDS
;	COMDAT pdata
pdata	SEGMENT
$pdata$??1?$basic_string@DU?$char_traits@D@std@@V?$allocator@D@2@@std@@QEAA@XZ DD imagerel $LN3
	DD	imagerel $LN3+214
	DD	imagerel $unwind$??1?$basic_string@DU?$char_traits@D@std@@V?$allocator@D@2@@std@@QEAA@XZ
pdata	ENDS
;	COMDAT pdata
pdata	SEGMENT
$pdata$?data@?$basic_string@DU?$char_traits@D@std@@V?$allocator@D@2@@std@@QEBAPEBDXZ DD imagerel $LN3
	DD	imagerel $LN3+56
	DD	imagerel $unwind$?data@?$basic_string@DU?$char_traits@D@std@@V?$allocator@D@2@@std@@QEBAPEBDXZ
pdata	ENDS
;	COMDAT pdata
pdata	SEGMENT
$pdata$?size@?$basic_string@DU?$char_traits@D@std@@V?$allocator@D@2@@std@@QEBA_KXZ DD imagerel $LN3
	DD	imagerel $LN3+52
	DD	imagerel $unwind$?size@?$basic_string@DU?$char_traits@D@std@@V?$allocator@D@2@@std@@QEBA_KXZ
pdata	ENDS
;	COMDAT pdata
pdata	SEGMENT
$pdata$?max_size@?$basic_string@DU?$char_traits@D@std@@V?$allocator@D@2@@std@@QEBA_KXZ DD imagerel $LN3
	DD	imagerel $LN3+226
	DD	imagerel $unwind$?max_size@?$basic_string@DU?$char_traits@D@std@@V?$allocator@D@2@@std@@QEBA_KXZ
pdata	ENDS
;	COMDAT pdata
pdata	SEGMENT
$pdata$?_Calculate_growth@?$basic_string@DU?$char_traits@D@std@@V?$allocator@D@2@@std@@CA_K_K00@Z DD imagerel $LN5
	DD	imagerel $LN5+271
	DD	imagerel $unwind$?_Calculate_growth@?$basic_string@DU?$char_traits@D@std@@V?$allocator@D@2@@std@@CA_K_K00@Z
pdata	ENDS
;	COMDAT pdata
pdata	SEGMENT
$pdata$?_Calculate_growth@?$basic_string@DU?$char_traits@D@std@@V?$allocator@D@2@@std@@AEBA_K_K@Z DD imagerel $LN3
	DD	imagerel $LN3+84
	DD	imagerel $unwind$?_Calculate_growth@?$basic_string@DU?$char_traits@D@std@@V?$allocator@D@2@@std@@AEBA_K_K@Z
pdata	ENDS
;	COMDAT pdata
pdata	SEGMENT
$pdata$?_Tidy_deallocate@?$basic_string@DU?$char_traits@D@std@@V?$allocator@D@2@@std@@AEAAXXZ DD imagerel $LN4
	DD	imagerel $LN4+222
	DD	imagerel $unwind$?_Tidy_deallocate@?$basic_string@DU?$char_traits@D@std@@V?$allocator@D@2@@std@@AEAAXXZ
pdata	ENDS
;	COMDAT pdata
pdata	SEGMENT
$pdata$?_Getal@?$basic_string@DU?$char_traits@D@std@@V?$allocator@D@2@@std@@AEAAAEAV?$allocator@D@2@XZ DD imagerel $LN3
	DD	imagerel $LN3+56
	DD	imagerel $unwind$?_Getal@?$basic_string@DU?$char_traits@D@std@@V?$allocator@D@2@@std@@AEAAAEAV?$allocator@D@2@XZ
pdata	ENDS
;	COMDAT pdata
pdata	SEGMENT
$pdata$?_Getal@?$basic_string@DU?$char_traits@D@std@@V?$allocator@D@2@@std@@AEBAAEBV?$allocator@D@2@XZ DD imagerel $LN3
	DD	imagerel $LN3+56
	DD	imagerel $unwind$?_Getal@?$basic_string@DU?$char_traits@D@std@@V?$allocator@D@2@@std@@AEBAAEBV?$allocator@D@2@XZ
pdata	ENDS
;	COMDAT pdata
pdata	SEGMENT
$pdata$?_Get_first@?$_Compressed_pair@V?$allocator@D@std@@V?$_String_val@U?$_Simple_types@D@std@@@2@$00@std@@QEAAAEAV?$allocator@D@2@XZ DD imagerel $LN3
	DD	imagerel $LN3+48
	DD	imagerel $unwind$?_Get_first@?$_Compressed_pair@V?$allocator@D@std@@V?$_String_val@U?$_Simple_types@D@std@@@2@$00@std@@QEAAAEAV?$allocator@D@2@XZ
pdata	ENDS
;	COMDAT pdata
pdata	SEGMENT
$pdata$?_Get_first@?$_Compressed_pair@V?$allocator@D@std@@V?$_String_val@U?$_Simple_types@D@std@@@2@$00@std@@QEBAAEBV?$allocator@D@2@XZ DD imagerel $LN3
	DD	imagerel $LN3+48
	DD	imagerel $unwind$?_Get_first@?$_Compressed_pair@V?$allocator@D@std@@V?$_String_val@U?$_Simple_types@D@std@@@2@$00@std@@QEBAAEBV?$allocator@D@2@XZ
pdata	ENDS
;	COMDAT pdata
pdata	SEGMENT
$pdata$??1?$_Compressed_pair@V?$allocator@D@std@@V?$_String_val@U?$_Simple_types@D@std@@@2@$00@std@@QEAA@XZ DD imagerel $LN3
	DD	imagerel $LN3+44
	DD	imagerel $unwind$??1?$_Compressed_pair@V?$allocator@D@std@@V?$_String_val@U?$_Simple_types@D@std@@@2@$00@std@@QEAA@XZ
pdata	ENDS
;	COMDAT pdata
pdata	SEGMENT
$pdata$localtime DD imagerel localtime
	DD	imagerel localtime+54
	DD	imagerel $unwind$localtime
pdata	ENDS
;	COMDAT pdata
pdata	SEGMENT
$pdata$time DD	imagerel time
	DD	imagerel time+54
	DD	imagerel $unwind$time
pdata	ENDS
;	COMDAT pdata
pdata	SEGMENT
$pdata$?mont@@YA?AV?$basic_string@DU?$char_traits@D@std@@V?$allocator@D@2@@std@@H@Z DD imagerel $LN18
	DD	imagerel $LN18+449
	DD	imagerel $unwind$?mont@@YA?AV?$basic_string@DU?$char_traits@D@std@@V?$allocator@D@2@@std@@H@Z
pdata	ENDS
;	COMDAT pdata
pdata	SEGMENT
$pdata$?dtor$0@?0??mont@@YA?AV?$basic_string@DU?$char_traits@D@std@@V?$allocator@D@2@@std@@H@Z@4HA DD imagerel ?dtor$0@?0??mont@@YA?AV?$basic_string@DU?$char_traits@D@std@@V?$allocator@D@2@@std@@H@Z@4HA
	DD	imagerel ?dtor$0@?0??mont@@YA?AV?$basic_string@DU?$char_traits@D@std@@V?$allocator@D@2@@std@@H@Z@4HA+36
	DD	imagerel $unwind$?dtor$0@?0??mont@@YA?AV?$basic_string@DU?$char_traits@D@std@@V?$allocator@D@2@@std@@H@Z@4HA
pdata	ENDS
;	COMDAT pdata
pdata	SEGMENT
$pdata$?dtor$1@?0??mont@@YA?AV?$basic_string@DU?$char_traits@D@std@@V?$allocator@D@2@@std@@H@Z@4HA DD imagerel ?dtor$1@?0??mont@@YA?AV?$basic_string@DU?$char_traits@D@std@@V?$allocator@D@2@@std@@H@Z@4HA
	DD	imagerel ?dtor$1@?0??mont@@YA?AV?$basic_string@DU?$char_traits@D@std@@V?$allocator@D@2@@std@@H@Z@4HA+36
	DD	imagerel $unwind$?dtor$1@?0??mont@@YA?AV?$basic_string@DU?$char_traits@D@std@@V?$allocator@D@2@@std@@H@Z@4HA
pdata	ENDS
;	COMDAT pdata
pdata	SEGMENT
$pdata$?dtor$2@?0??mont@@YA?AV?$basic_string@DU?$char_traits@D@std@@V?$allocator@D@2@@std@@H@Z@4HA DD imagerel ?dtor$2@?0??mont@@YA?AV?$basic_string@DU?$char_traits@D@std@@V?$allocator@D@2@@std@@H@Z@4HA
	DD	imagerel ?dtor$2@?0??mont@@YA?AV?$basic_string@DU?$char_traits@D@std@@V?$allocator@D@2@@std@@H@Z@4HA+36
	DD	imagerel $unwind$?dtor$2@?0??mont@@YA?AV?$basic_string@DU?$char_traits@D@std@@V?$allocator@D@2@@std@@H@Z@4HA
pdata	ENDS
;	COMDAT pdata
pdata	SEGMENT
$pdata$?dtor$3@?0??mont@@YA?AV?$basic_string@DU?$char_traits@D@std@@V?$allocator@D@2@@std@@H@Z@4HA DD imagerel ?dtor$3@?0??mont@@YA?AV?$basic_string@DU?$char_traits@D@std@@V?$allocator@D@2@@std@@H@Z@4HA
	DD	imagerel ?dtor$3@?0??mont@@YA?AV?$basic_string@DU?$char_traits@D@std@@V?$allocator@D@2@@std@@H@Z@4HA+39
	DD	imagerel $unwind$?dtor$3@?0??mont@@YA?AV?$basic_string@DU?$char_traits@D@std@@V?$allocator@D@2@@std@@H@Z@4HA
pdata	ENDS
;	COMDAT pdata
pdata	SEGMENT
$pdata$?dtor$4@?0??mont@@YA?AV?$basic_string@DU?$char_traits@D@std@@V?$allocator@D@2@@std@@H@Z@4HA DD imagerel ?dtor$4@?0??mont@@YA?AV?$basic_string@DU?$char_traits@D@std@@V?$allocator@D@2@@std@@H@Z@4HA
	DD	imagerel ?dtor$4@?0??mont@@YA?AV?$basic_string@DU?$char_traits@D@std@@V?$allocator@D@2@@std@@H@Z@4HA+39
	DD	imagerel $unwind$?dtor$4@?0??mont@@YA?AV?$basic_string@DU?$char_traits@D@std@@V?$allocator@D@2@@std@@H@Z@4HA
pdata	ENDS
;	COMDAT pdata
pdata	SEGMENT
$pdata$?dtor$5@?0??mont@@YA?AV?$basic_string@DU?$char_traits@D@std@@V?$allocator@D@2@@std@@H@Z@4HA DD imagerel ?dtor$5@?0??mont@@YA?AV?$basic_string@DU?$char_traits@D@std@@V?$allocator@D@2@@std@@H@Z@4HA
	DD	imagerel ?dtor$5@?0??mont@@YA?AV?$basic_string@DU?$char_traits@D@std@@V?$allocator@D@2@@std@@H@Z@4HA+39
	DD	imagerel $unwind$?dtor$5@?0??mont@@YA?AV?$basic_string@DU?$char_traits@D@std@@V?$allocator@D@2@@std@@H@Z@4HA
pdata	ENDS
;	COMDAT pdata
pdata	SEGMENT
$pdata$?dtor$6@?0??mont@@YA?AV?$basic_string@DU?$char_traits@D@std@@V?$allocator@D@2@@std@@H@Z@4HA DD imagerel ?dtor$6@?0??mont@@YA?AV?$basic_string@DU?$char_traits@D@std@@V?$allocator@D@2@@std@@H@Z@4HA
	DD	imagerel ?dtor$6@?0??mont@@YA?AV?$basic_string@DU?$char_traits@D@std@@V?$allocator@D@2@@std@@H@Z@4HA+39
	DD	imagerel $unwind$?dtor$6@?0??mont@@YA?AV?$basic_string@DU?$char_traits@D@std@@V?$allocator@D@2@@std@@H@Z@4HA
pdata	ENDS
;	COMDAT pdata
pdata	SEGMENT
$pdata$?dtor$7@?0??mont@@YA?AV?$basic_string@DU?$char_traits@D@std@@V?$allocator@D@2@@std@@H@Z@4HA DD imagerel ?dtor$7@?0??mont@@YA?AV?$basic_string@DU?$char_traits@D@std@@V?$allocator@D@2@@std@@H@Z@4HA
	DD	imagerel ?dtor$7@?0??mont@@YA?AV?$basic_string@DU?$char_traits@D@std@@V?$allocator@D@2@@std@@H@Z@4HA+39
	DD	imagerel $unwind$?dtor$7@?0??mont@@YA?AV?$basic_string@DU?$char_traits@D@std@@V?$allocator@D@2@@std@@H@Z@4HA
pdata	ENDS
;	COMDAT pdata
pdata	SEGMENT
$pdata$?dtor$8@?0??mont@@YA?AV?$basic_string@DU?$char_traits@D@std@@V?$allocator@D@2@@std@@H@Z@4HA DD imagerel ?dtor$8@?0??mont@@YA?AV?$basic_string@DU?$char_traits@D@std@@V?$allocator@D@2@@std@@H@Z@4HA
	DD	imagerel ?dtor$8@?0??mont@@YA?AV?$basic_string@DU?$char_traits@D@std@@V?$allocator@D@2@@std@@H@Z@4HA+39
	DD	imagerel $unwind$?dtor$8@?0??mont@@YA?AV?$basic_string@DU?$char_traits@D@std@@V?$allocator@D@2@@std@@H@Z@4HA
pdata	ENDS
;	COMDAT pdata
pdata	SEGMENT
$pdata$?dtor$9@?0??mont@@YA?AV?$basic_string@DU?$char_traits@D@std@@V?$allocator@D@2@@std@@H@Z@4HA DD imagerel ?dtor$9@?0??mont@@YA?AV?$basic_string@DU?$char_traits@D@std@@V?$allocator@D@2@@std@@H@Z@4HA
	DD	imagerel ?dtor$9@?0??mont@@YA?AV?$basic_string@DU?$char_traits@D@std@@V?$allocator@D@2@@std@@H@Z@4HA+39
	DD	imagerel $unwind$?dtor$9@?0??mont@@YA?AV?$basic_string@DU?$char_traits@D@std@@V?$allocator@D@2@@std@@H@Z@4HA
pdata	ENDS
;	COMDAT pdata
pdata	SEGMENT
$pdata$?dtor$10@?0??mont@@YA?AV?$basic_string@DU?$char_traits@D@std@@V?$allocator@D@2@@std@@H@Z@4HA DD imagerel ?dtor$10@?0??mont@@YA?AV?$basic_string@DU?$char_traits@D@std@@V?$allocator@D@2@@std@@H@Z@4HA
	DD	imagerel ?dtor$10@?0??mont@@YA?AV?$basic_string@DU?$char_traits@D@std@@V?$allocator@D@2@@std@@H@Z@4HA+39
	DD	imagerel $unwind$?dtor$10@?0??mont@@YA?AV?$basic_string@DU?$char_traits@D@std@@V?$allocator@D@2@@std@@H@Z@4HA
pdata	ENDS
;	COMDAT pdata
pdata	SEGMENT
$pdata$?dtor$12@?0??mont@@YA?AV?$basic_string@DU?$char_traits@D@std@@V?$allocator@D@2@@std@@H@Z@4HA DD imagerel ?dtor$12@?0??mont@@YA?AV?$basic_string@DU?$char_traits@D@std@@V?$allocator@D@2@@std@@H@Z@4HA
	DD	imagerel ?dtor$12@?0??mont@@YA?AV?$basic_string@DU?$char_traits@D@std@@V?$allocator@D@2@@std@@H@Z@4HA+54
	DD	imagerel $unwind$?dtor$12@?0??mont@@YA?AV?$basic_string@DU?$char_traits@D@std@@V?$allocator@D@2@@std@@H@Z@4HA
pdata	ENDS
;	COMDAT pdata
pdata	SEGMENT
$pdata$?dtor$13@?0??mont@@YA?AV?$basic_string@DU?$char_traits@D@std@@V?$allocator@D@2@@std@@H@Z@4HA DD imagerel ?dtor$13@?0??mont@@YA?AV?$basic_string@DU?$char_traits@D@std@@V?$allocator@D@2@@std@@H@Z@4HA
	DD	imagerel ?dtor$13@?0??mont@@YA?AV?$basic_string@DU?$char_traits@D@std@@V?$allocator@D@2@@std@@H@Z@4HA+59
	DD	imagerel $unwind$?dtor$13@?0??mont@@YA?AV?$basic_string@DU?$char_traits@D@std@@V?$allocator@D@2@@std@@H@Z@4HA
pdata	ENDS
;	COMDAT pdata
pdata	SEGMENT
$pdata$?holiday@@YAXH_NH@Z DD imagerel $LN23
	DD	imagerel $LN23+922
	DD	imagerel $unwind$?holiday@@YAXH_NH@Z
pdata	ENDS
;	COMDAT pdata
pdata	SEGMENT
$pdata$??$?6U?$char_traits@D@std@@@std@@YAAEAV?$basic_ostream@DU?$char_traits@D@std@@@0@AEAV10@PEBD@Z DD imagerel $LN25
	DD	imagerel $LN25+991
	DD	imagerel $unwind$??$?6U?$char_traits@D@std@@@std@@YAAEAV?$basic_ostream@DU?$char_traits@D@std@@@0@AEAV10@PEBD@Z
pdata	ENDS
;	COMDAT pdata
pdata	SEGMENT
$pdata$?dtor$0@?0???$?6U?$char_traits@D@std@@@std@@YAAEAV?$basic_ostream@DU?$char_traits@D@std@@@0@AEAV10@PEBD@Z@4HA DD imagerel ?dtor$0@?0???$?6U?$char_traits@D@std@@@std@@YAAEAV?$basic_ostream@DU?$char_traits@D@std@@@0@AEAV10@PEBD@Z@4HA
	DD	imagerel ?dtor$0@?0???$?6U?$char_traits@D@std@@@std@@YAAEAV?$basic_ostream@DU?$char_traits@D@std@@@0@AEAV10@PEBD@Z@4HA+36
	DD	imagerel $unwind$?dtor$0@?0???$?6U?$char_traits@D@std@@@std@@YAAEAV?$basic_ostream@DU?$char_traits@D@std@@@0@AEAV10@PEBD@Z@4HA
pdata	ENDS
;	COMDAT pdata
pdata	SEGMENT
$pdata$?catch$1@?0???$?6U?$char_traits@D@std@@@std@@YAAEAV?$basic_ostream@DU?$char_traits@D@std@@@0@AEAV10@PEBD@Z@4HA DD imagerel ?catch$1@?0???$?6U?$char_traits@D@std@@@std@@YAAEAV?$basic_ostream@DU?$char_traits@D@std@@@0@AEAV10@PEBD@Z@4HA
	DD	imagerel ?catch$1@?0???$?6U?$char_traits@D@std@@@std@@YAAEAV?$basic_ostream@DU?$char_traits@D@std@@@0@AEAV10@PEBD@Z@4HA+80
	DD	imagerel $unwind$?catch$1@?0???$?6U?$char_traits@D@std@@@std@@YAAEAV?$basic_ostream@DU?$char_traits@D@std@@@0@AEAV10@PEBD@Z@4HA
pdata	ENDS
;	COMDAT pdata
pdata	SEGMENT
$pdata$??$endl@DU?$char_traits@D@std@@@std@@YAAEAV?$basic_ostream@DU?$char_traits@D@std@@@0@AEAV10@@Z DD imagerel $LN3
	DD	imagerel $LN3+115
	DD	imagerel $unwind$??$endl@DU?$char_traits@D@std@@@std@@YAAEAV?$basic_ostream@DU?$char_traits@D@std@@@0@AEAV10@@Z
pdata	ENDS
;	COMDAT pdata
pdata	SEGMENT
$pdata$?secondDayNumber@@YAHHHH_N@Z DD imagerel $LN7
	DD	imagerel $LN7+348
	DD	imagerel $unwind$?secondDayNumber@@YAHHHH_N@Z
pdata	ENDS
;	COMDAT pdata
pdata	SEGMENT
$pdata$?calculateHourDiff@@YAHHHH@Z DD imagerel $LN3
	DD	imagerel $LN3+84
	DD	imagerel $unwind$?calculateHourDiff@@YAHHHH@Z
pdata	ENDS
;	COMDAT pdata
pdata	SEGMENT
$pdata$main DD	imagerel $LN15
	DD	imagerel $LN15+1223
	DD	imagerel $unwind$main
pdata	ENDS
;	COMDAT pdata
pdata	SEGMENT
$pdata$main$dtor$0 DD imagerel main$dtor$0
	DD	imagerel main$dtor$0+39
	DD	imagerel $unwind$main$dtor$0
pdata	ENDS
;	COMDAT pdata
pdata	SEGMENT
$pdata$??$?6DU?$char_traits@D@std@@V?$allocator@D@1@@std@@YAAEAV?$basic_ostream@DU?$char_traits@D@std@@@0@AEAV10@AEBV?$basic_string@DU?$char_traits@D@std@@V?$allocator@D@2@@0@@Z DD imagerel $LN3
	DD	imagerel $LN3+102
	DD	imagerel $unwind$??$?6DU?$char_traits@D@std@@V?$allocator@D@1@@std@@YAAEAV?$basic_ostream@DU?$char_traits@D@std@@@0@AEAV10@AEBV?$basic_string@DU?$char_traits@D@std@@V?$allocator@D@2@@0@@Z
pdata	ENDS
;	COMDAT pdata
pdata	SEGMENT
$pdata$??0_Sentry_base@?$basic_ostream@DU?$char_traits@D@std@@@std@@QEAA@AEAV12@@Z DD imagerel $LN4
	DD	imagerel $LN4+148
	DD	imagerel $unwind$??0_Sentry_base@?$basic_ostream@DU?$char_traits@D@std@@@std@@QEAA@AEAV12@@Z
pdata	ENDS
;	COMDAT pdata
pdata	SEGMENT
$pdata$??1_Sentry_base@?$basic_ostream@DU?$char_traits@D@std@@@std@@QEAA@XZ DD imagerel $LN4
	DD	imagerel $LN4+120
	DD	imagerel $unwind$??1_Sentry_base@?$basic_ostream@DU?$char_traits@D@std@@@std@@QEAA@XZ
pdata	ENDS
;	COMDAT pdata
pdata	SEGMENT
$pdata$??0sentry@?$basic_ostream@DU?$char_traits@D@std@@@std@@QEAA@AEAV12@@Z DD imagerel $LN7
	DD	imagerel $LN7+261
	DD	imagerel $unwind$??0sentry@?$basic_ostream@DU?$char_traits@D@std@@@std@@QEAA@AEAV12@@Z
pdata	ENDS
;	COMDAT pdata
pdata	SEGMENT
$pdata$?dtor$0@?0???0sentry@?$basic_ostream@DU?$char_traits@D@std@@@std@@QEAA@AEAV12@@Z@4HA DD imagerel ?dtor$0@?0???0sentry@?$basic_ostream@DU?$char_traits@D@std@@@std@@QEAA@AEAV12@@Z@4HA
	DD	imagerel ?dtor$0@?0???0sentry@?$basic_ostream@DU?$char_traits@D@std@@@std@@QEAA@AEAV12@@Z@4HA+39
	DD	imagerel $unwind$?dtor$0@?0???0sentry@?$basic_ostream@DU?$char_traits@D@std@@@std@@QEAA@AEAV12@@Z@4HA
pdata	ENDS
;	COMDAT pdata
pdata	SEGMENT
$pdata$??1sentry@?$basic_ostream@DU?$char_traits@D@std@@@std@@QEAA@XZ DD imagerel $LN6
	DD	imagerel $LN6+115
	DD	imagerel $unwind$??1sentry@?$basic_ostream@DU?$char_traits@D@std@@@std@@QEAA@XZ
pdata	ENDS
;	COMDAT pdata
pdata	SEGMENT
$pdata$??Bsentry@?$basic_ostream@DU?$char_traits@D@std@@@std@@QEBA_NXZ DD imagerel $LN3
	DD	imagerel $LN3+52
	DD	imagerel $unwind$??Bsentry@?$basic_ostream@DU?$char_traits@D@std@@@std@@QEBA_NXZ
pdata	ENDS
;	COMDAT pdata
pdata	SEGMENT
$pdata$??$min@_K@std@@YAAEB_KAEB_K0@Z DD imagerel $LN5
	DD	imagerel $LN5+119
	DD	imagerel $unwind$??$min@_K@std@@YAAEB_KAEB_K0@Z
pdata	ENDS
;	COMDAT pdata
pdata	SEGMENT
$pdata$?allocate@?$allocator@U_Container_proxy@std@@@std@@QEAAPEAU_Container_proxy@2@_K@Z DD imagerel $LN3
	DD	imagerel $LN3+66
	DD	imagerel $unwind$?allocate@?$allocator@U_Container_proxy@std@@@std@@QEAAPEAU_Container_proxy@2@_K@Z
pdata	ENDS
;	COMDAT pdata
pdata	SEGMENT
$pdata$??$_Delete_plain_internal@V?$allocator@U_Container_proxy@std@@@std@@@std@@YAXAEAV?$allocator@U_Container_proxy@std@@@0@QEAU_Container_proxy@0@@Z DD imagerel $LN3
	DD	imagerel $LN3+65
	DD	imagerel $unwind$??$_Delete_plain_internal@V?$allocator@U_Container_proxy@std@@@std@@@std@@YAXAEAV?$allocator@U_Container_proxy@std@@@0@QEAU_Container_proxy@0@@Z
pdata	ENDS
;	COMDAT pdata
pdata	SEGMENT
$pdata$??$_Convert_size@_K_K@std@@YA_K_K@Z DD imagerel $LN3
	DD	imagerel $LN3+48
	DD	imagerel $unwind$??$_Convert_size@_K_K@std@@YA_K_K@Z
pdata	ENDS
;	COMDAT pdata
pdata	SEGMENT
$pdata$??$?0D@?$allocator@U_Container_proxy@std@@@std@@QEAA@AEBV?$allocator@D@1@@Z DD imagerel $LN3
	DD	imagerel $LN3+53
	DD	imagerel $unwind$??$?0D@?$allocator@U_Container_proxy@std@@@std@@QEAA@AEBV?$allocator@D@1@@Z
pdata	ENDS
;	COMDAT pdata
pdata	SEGMENT
$pdata$??$?0V?$allocator@D@std@@$$V@?$_Compressed_pair@V?$allocator@D@std@@V?$_String_val@U?$_Simple_types@D@std@@@2@$00@std@@QEAA@U_One_then_variadic_args_t@1@$$QEAV?$allocator@D@1@@Z DD imagerel $LN3
	DD	imagerel $LN3+72
	DD	imagerel $unwind$??$?0V?$allocator@D@std@@$$V@?$_Compressed_pair@V?$allocator@D@std@@V?$_String_val@U?$_Simple_types@D@std@@@2@$00@std@@QEAA@U_One_then_variadic_args_t@1@$$QEAV?$allocator@D@1@@Z
pdata	ENDS
;	COMDAT pdata
pdata	SEGMENT
$pdata$??$?0$$V@?$_Compressed_pair@V?$allocator@D@std@@V?$_String_val@U?$_Simple_types@D@std@@@2@$00@std@@QEAA@U_Zero_then_variadic_args_t@1@@Z DD imagerel $LN3
	DD	imagerel $LN3+79
	DD	imagerel $unwind$??$?0$$V@?$_Compressed_pair@V?$allocator@D@std@@V?$_String_val@U?$_Simple_types@D@std@@@2@$00@std@@QEAA@U_Zero_then_variadic_args_t@1@@Z
pdata	ENDS
;	COMDAT pdata
pdata	SEGMENT
$pdata$??$_Construct@$00PEBD@?$basic_string@DU?$char_traits@D@std@@V?$allocator@D@2@@std@@AEAAXQEBD_K@Z DD imagerel $LN7
	DD	imagerel $LN7+621
	DD	imagerel $unwind$??$_Construct@$00PEBD@?$basic_string@DU?$char_traits@D@std@@V?$allocator@D@2@@std@@AEAAXQEBD_K@Z
pdata	ENDS
;	COMDAT pdata
pdata	SEGMENT
$pdata$?dtor$0@?0???$_Construct@$00PEBD@?$basic_string@DU?$char_traits@D@std@@V?$allocator@D@2@@std@@AEAAXQEBD_K@Z@4HA DD imagerel ?dtor$0@?0???$_Construct@$00PEBD@?$basic_string@DU?$char_traits@D@std@@V?$allocator@D@2@@std@@AEAAXQEBD_K@Z@4HA
	DD	imagerel ?dtor$0@?0???$_Construct@$00PEBD@?$basic_string@DU?$char_traits@D@std@@V?$allocator@D@2@@std@@AEAAXQEBD_K@Z@4HA+39
	DD	imagerel $unwind$?dtor$0@?0???$_Construct@$00PEBD@?$basic_string@DU?$char_traits@D@std@@V?$allocator@D@2@@std@@AEAAXQEBD_K@Z@4HA
pdata	ENDS
;	COMDAT pdata
pdata	SEGMENT
$pdata$??$_Construct@$01PEBD@?$basic_string@DU?$char_traits@D@std@@V?$allocator@D@2@@std@@AEAAXQEBD_K@Z DD imagerel $LN7
	DD	imagerel $LN7+561
	DD	imagerel $unwind$??$_Construct@$01PEBD@?$basic_string@DU?$char_traits@D@std@@V?$allocator@D@2@@std@@AEAAXQEBD_K@Z
pdata	ENDS
;	COMDAT pdata
pdata	SEGMENT
$pdata$?dtor$0@?0???$_Construct@$01PEBD@?$basic_string@DU?$char_traits@D@std@@V?$allocator@D@2@@std@@AEAAXQEBD_K@Z@4HA DD imagerel ?dtor$0@?0???$_Construct@$01PEBD@?$basic_string@DU?$char_traits@D@std@@V?$allocator@D@2@@std@@AEAAXQEBD_K@Z@4HA
	DD	imagerel ?dtor$0@?0???$_Construct@$01PEBD@?$basic_string@DU?$char_traits@D@std@@V?$allocator@D@2@@std@@AEAAXQEBD_K@Z@4HA+39
	DD	imagerel $unwind$?dtor$0@?0???$_Construct@$01PEBD@?$basic_string@DU?$char_traits@D@std@@V?$allocator@D@2@@std@@AEAAXQEBD_K@Z@4HA
pdata	ENDS
;	COMDAT pdata
pdata	SEGMENT
$pdata$??$_Destroy_in_place@PEAD@std@@YAXAEAPEAD@Z DD imagerel $LN3
	DD	imagerel $LN3+41
	DD	imagerel $unwind$??$_Destroy_in_place@PEAD@std@@YAXAEAPEAD@Z
pdata	ENDS
;	COMDAT pdata
pdata	SEGMENT
$pdata$??$_Unfancy@D@std@@YAPEADPEAD@Z DD imagerel $LN3
	DD	imagerel $LN3+48
	DD	imagerel $unwind$??$_Unfancy@D@std@@YAPEADPEAD@Z
pdata	ENDS
;	COMDAT pdata
pdata	SEGMENT
$pdata$??$max@_K@std@@YAAEB_KAEB_K0@Z DD imagerel $LN5
	DD	imagerel $LN5+119
	DD	imagerel $unwind$??$max@_K@std@@YAAEB_KAEB_K0@Z
pdata	ENDS
;	COMDAT pdata
pdata	SEGMENT
$pdata$??$_Deallocate@$0BA@$0A@@std@@YAXPEAX_K@Z DD imagerel $LN4
	DD	imagerel $LN4+98
	DD	imagerel $unwind$??$_Deallocate@$0BA@$0A@@std@@YAXPEAX_K@Z
pdata	ENDS
;	COMDAT pdata
pdata	SEGMENT
$pdata$??$_Insert_string@DU?$char_traits@D@std@@_K@std@@YAAEAV?$basic_ostream@DU?$char_traits@D@std@@@0@AEAV10@QEBD_K@Z DD imagerel $LN26
	DD	imagerel $LN26+970
	DD	imagerel $unwind$??$_Insert_string@DU?$char_traits@D@std@@_K@std@@YAAEAV?$basic_ostream@DU?$char_traits@D@std@@@0@AEAV10@QEBD_K@Z
pdata	ENDS
;	COMDAT pdata
pdata	SEGMENT
$pdata$?dtor$0@?0???$_Insert_string@DU?$char_traits@D@std@@_K@std@@YAAEAV?$basic_ostream@DU?$char_traits@D@std@@@0@AEAV10@QEBD_K@Z@4HA DD imagerel ?dtor$0@?0???$_Insert_string@DU?$char_traits@D@std@@_K@std@@YAAEAV?$basic_ostream@DU?$char_traits@D@std@@@0@AEAV10@QEBD_K@Z@4HA
	DD	imagerel ?dtor$0@?0???$_Insert_string@DU?$char_traits@D@std@@_K@std@@YAAEAV?$basic_ostream@DU?$char_traits@D@std@@@0@AEAV10@QEBD_K@Z@4HA+36
	DD	imagerel $unwind$?dtor$0@?0???$_Insert_string@DU?$char_traits@D@std@@_K@std@@YAAEAV?$basic_ostream@DU?$char_traits@D@std@@@0@AEAV10@QEBD_K@Z@4HA
pdata	ENDS
;	COMDAT pdata
pdata	SEGMENT
$pdata$?catch$1@?0???$_Insert_string@DU?$char_traits@D@std@@_K@std@@YAAEAV?$basic_ostream@DU?$char_traits@D@std@@@0@AEAV10@QEBD_K@Z@4HA DD imagerel ?catch$1@?0???$_Insert_string@DU?$char_traits@D@std@@_K@std@@YAAEAV?$basic_ostream@DU?$char_traits@D@std@@@0@AEAV10@QEBD_K@Z@4HA
	DD	imagerel ?catch$1@?0???$_Insert_string@DU?$char_traits@D@std@@_K@std@@YAAEAV?$basic_ostream@DU?$char_traits@D@std@@@0@AEAV10@QEBD_K@Z@4HA+80
	DD	imagerel $unwind$?catch$1@?0???$_Insert_string@DU?$char_traits@D@std@@_K@std@@YAAEAV?$basic_ostream@DU?$char_traits@D@std@@@0@AEAV10@QEBD_K@Z@4HA
pdata	ENDS
;	COMDAT pdata
pdata	SEGMENT
$pdata$??$_Deallocate_plain@V?$allocator@U_Container_proxy@std@@@std@@@std@@YAXAEAV?$allocator@U_Container_proxy@std@@@0@QEAU_Container_proxy@0@@Z DD imagerel $LN3
	DD	imagerel $LN3+72
	DD	imagerel $unwind$??$_Deallocate_plain@V?$allocator@U_Container_proxy@std@@@std@@@std@@YAXAEAV?$allocator@U_Container_proxy@std@@@0@QEAU_Container_proxy@0@@Z
pdata	ENDS
;	COMDAT pdata
pdata	SEGMENT
$pdata$??0?$_Container_proxy_ptr12@V?$allocator@U_Container_proxy@std@@@std@@@std@@QEAA@AEAV?$allocator@U_Container_proxy@std@@@1@AEAU_Container_base12@1@@Z DD imagerel $LN3
	DD	imagerel $LN3+184
	DD	imagerel $unwind$??0?$_Container_proxy_ptr12@V?$allocator@U_Container_proxy@std@@@std@@@std@@QEAA@AEAV?$allocator@U_Container_proxy@std@@@1@AEAU_Container_base12@1@@Z
pdata	ENDS
;	COMDAT pdata
pdata	SEGMENT
$pdata$??1?$_Container_proxy_ptr12@V?$allocator@U_Container_proxy@std@@@std@@@std@@QEAA@XZ DD imagerel $LN4
	DD	imagerel $LN4+80
	DD	imagerel $unwind$??1?$_Container_proxy_ptr12@V?$allocator@U_Container_proxy@std@@@std@@@std@@QEAA@XZ
pdata	ENDS
;	COMDAT pdata
pdata	SEGMENT
$pdata$??$_Unfancy@U_Container_proxy@std@@@std@@YAPEAU_Container_proxy@0@PEAU10@@Z DD imagerel $LN3
	DD	imagerel $LN3+48
	DD	imagerel $unwind$??$_Unfancy@U_Container_proxy@std@@@std@@YAPEAU_Container_proxy@0@PEAU10@@Z
pdata	ENDS
;	COMDAT pdata
pdata	SEGMENT
$pdata$??$_Construct_in_place@PEADAEBQEAD@std@@YAXAEAPEADAEBQEAD@Z DD imagerel $LN3
	DD	imagerel $LN3+98
	DD	imagerel $unwind$??$_Construct_in_place@PEADAEBQEAD@std@@YAXAEAPEADAEBQEAD@Z
pdata	ENDS
;	COMDAT pdata
pdata	SEGMENT
$pdata$??$addressof@PEAD@std@@YAPEAPEADAEAPEAD@Z DD imagerel $LN3
	DD	imagerel $LN3+48
	DD	imagerel $unwind$??$addressof@PEAD@std@@YAPEAPEADAEAPEAD@Z
pdata	ENDS
;	COMDAT pdata
pdata	SEGMENT
$pdata$??$_Get_size_of_n@$0BA@@std@@YA_K_K@Z DD imagerel $LN4
	DD	imagerel $LN4+91
	DD	imagerel $unwind$??$_Get_size_of_n@$0BA@@std@@YA_K_K@Z
pdata	ENDS
;	COMDAT pdata
pdata	SEGMENT
$pdata$??$_Allocate@$0BA@U_Default_allocate_traits@std@@$0A@@std@@YAPEAX_K@Z DD imagerel $LN5
	DD	imagerel $LN5+94
	DD	imagerel $unwind$??$_Allocate@$0BA@U_Default_allocate_traits@std@@$0A@@std@@YAPEAX_K@Z
pdata	ENDS
;	COMDAT pdata
pdata	SEGMENT
$pdata$??$_Get_size_of_n@$00@std@@YA_K_K@Z DD imagerel $LN3
	DD	imagerel $LN3+52
	DD	imagerel $unwind$??$_Get_size_of_n@$00@std@@YA_K_K@Z
pdata	ENDS
;	COMDAT pdata
pdata	SEGMENT
$pdata$??$addressof@U_Container_proxy@std@@@std@@YAPEAU_Container_proxy@0@AEAU10@@Z DD imagerel $LN3
	DD	imagerel $LN3+48
	DD	imagerel $unwind$??$addressof@U_Container_proxy@std@@@std@@YAPEAU_Container_proxy@0@AEAU10@@Z
pdata	ENDS
;	COMDAT pdata
pdata	SEGMENT
$pdata$?deallocate@?$_Default_allocator_traits@V?$allocator@U_Container_proxy@std@@@std@@@std@@SAXAEAV?$allocator@U_Container_proxy@std@@@2@QEAU_Container_proxy@2@_K@Z DD imagerel $LN3
	DD	imagerel $LN3+74
	DD	imagerel $unwind$?deallocate@?$_Default_allocator_traits@V?$allocator@U_Container_proxy@std@@@std@@@std@@SAXAEAV?$allocator@U_Container_proxy@std@@@2@QEAU_Container_proxy@2@_K@Z
pdata	ENDS
;	COMDAT pdata
pdata	SEGMENT
$pdata$??$_Allocate_manually_vector_aligned@U_Default_allocate_traits@std@@@std@@YAPEAX_K@Z DD imagerel $LN13
	DD	imagerel $LN13+277
	DD	imagerel $unwind$??$_Allocate_manually_vector_aligned@U_Default_allocate_traits@std@@@std@@YAPEAX_K@Z
pdata	ENDS
;	COMDAT rtc$TMZ
rtc$TMZ	SEGMENT
_RTC_Shutdown.rtc$TMZ DQ FLAT:_RTC_Shutdown
rtc$TMZ	ENDS
;	COMDAT rtc$IMZ
rtc$IMZ	SEGMENT
_RTC_InitBase.rtc$IMZ DQ FLAT:_RTC_InitBase
rtc$IMZ	ENDS
;	COMDAT ??_R1A@?0A@EA@bad_array_new_length@std@@8
rdata$r	SEGMENT
??_R1A@?0A@EA@bad_array_new_length@std@@8 DD imagerel ??_R0?AVbad_array_new_length@std@@@8 ; std::bad_array_new_length::`RTTI Base Class Descriptor at (0,-1,0,64)'
	DD	02H
	DD	00H
	DD	0ffffffffH
	DD	00H
	DD	040H
	DD	imagerel ??_R3bad_array_new_length@std@@8
rdata$r	ENDS
;	COMDAT ??_R2bad_array_new_length@std@@8
rdata$r	SEGMENT
??_R2bad_array_new_length@std@@8 DD imagerel ??_R1A@?0A@EA@bad_array_new_length@std@@8 ; std::bad_array_new_length::`RTTI Base Class Array'
	DD	imagerel ??_R1A@?0A@EA@bad_alloc@std@@8
	DD	imagerel ??_R1A@?0A@EA@exception@std@@8
	ORG $+3
rdata$r	ENDS
;	COMDAT ??_R3bad_array_new_length@std@@8
rdata$r	SEGMENT
??_R3bad_array_new_length@std@@8 DD 00H			; std::bad_array_new_length::`RTTI Class Hierarchy Descriptor'
	DD	00H
	DD	03H
	DD	imagerel ??_R2bad_array_new_length@std@@8
rdata$r	ENDS
;	COMDAT ??_R4bad_array_new_length@std@@6B@
rdata$r	SEGMENT
??_R4bad_array_new_length@std@@6B@ DD 01H		; std::bad_array_new_length::`RTTI Complete Object Locator'
	DD	00H
	DD	00H
	DD	imagerel ??_R0?AVbad_array_new_length@std@@@8
	DD	imagerel ??_R3bad_array_new_length@std@@8
	DD	imagerel ??_R4bad_array_new_length@std@@6B@
rdata$r	ENDS
;	COMDAT ??_R1A@?0A@EA@bad_alloc@std@@8
rdata$r	SEGMENT
??_R1A@?0A@EA@bad_alloc@std@@8 DD imagerel ??_R0?AVbad_alloc@std@@@8 ; std::bad_alloc::`RTTI Base Class Descriptor at (0,-1,0,64)'
	DD	01H
	DD	00H
	DD	0ffffffffH
	DD	00H
	DD	040H
	DD	imagerel ??_R3bad_alloc@std@@8
rdata$r	ENDS
;	COMDAT ??_R2bad_alloc@std@@8
rdata$r	SEGMENT
??_R2bad_alloc@std@@8 DD imagerel ??_R1A@?0A@EA@bad_alloc@std@@8 ; std::bad_alloc::`RTTI Base Class Array'
	DD	imagerel ??_R1A@?0A@EA@exception@std@@8
	ORG $+3
rdata$r	ENDS
;	COMDAT ??_R3bad_alloc@std@@8
rdata$r	SEGMENT
??_R3bad_alloc@std@@8 DD 00H				; std::bad_alloc::`RTTI Class Hierarchy Descriptor'
	DD	00H
	DD	02H
	DD	imagerel ??_R2bad_alloc@std@@8
rdata$r	ENDS
;	COMDAT ??_R4bad_alloc@std@@6B@
rdata$r	SEGMENT
??_R4bad_alloc@std@@6B@ DD 01H				; std::bad_alloc::`RTTI Complete Object Locator'
	DD	00H
	DD	00H
	DD	imagerel ??_R0?AVbad_alloc@std@@@8
	DD	imagerel ??_R3bad_alloc@std@@8
	DD	imagerel ??_R4bad_alloc@std@@6B@
rdata$r	ENDS
;	COMDAT ??_R1A@?0A@EA@exception@std@@8
rdata$r	SEGMENT
??_R1A@?0A@EA@exception@std@@8 DD imagerel ??_R0?AVexception@std@@@8 ; std::exception::`RTTI Base Class Descriptor at (0,-1,0,64)'
	DD	00H
	DD	00H
	DD	0ffffffffH
	DD	00H
	DD	040H
	DD	imagerel ??_R3exception@std@@8
rdata$r	ENDS
;	COMDAT ??_R2exception@std@@8
rdata$r	SEGMENT
??_R2exception@std@@8 DD imagerel ??_R1A@?0A@EA@exception@std@@8 ; std::exception::`RTTI Base Class Array'
	ORG $+3
rdata$r	ENDS
;	COMDAT ??_R3exception@std@@8
rdata$r	SEGMENT
??_R3exception@std@@8 DD 00H				; std::exception::`RTTI Class Hierarchy Descriptor'
	DD	00H
	DD	01H
	DD	imagerel ??_R2exception@std@@8
rdata$r	ENDS
;	COMDAT ??_R4exception@std@@6B@
rdata$r	SEGMENT
??_R4exception@std@@6B@ DD 01H				; std::exception::`RTTI Complete Object Locator'
	DD	00H
	DD	00H
	DD	imagerel ??_R0?AVexception@std@@@8
	DD	imagerel ??_R3exception@std@@8
	DD	imagerel ??_R4exception@std@@6B@
rdata$r	ENDS
;	COMDAT ??_C@_1HA@FACCKGGH@?$AA?$CC?$AAn?$AAu?$AAl?$AAl?$AA?5?$AAp?$AAo?$AAi?$AAn?$AAt?$AAe?$AAr?$AA?5?$AAc@
CONST	SEGMENT
??_C@_1HA@FACCKGGH@?$AA?$CC?$AAn?$AAu?$AAl?$AAl?$AA?5?$AAp?$AAo?$AAi?$AAn?$AAt?$AAe?$AAr?$AA?5?$AAc@ DB '"'
	DB	00H, 'n', 00H, 'u', 00H, 'l', 00H, 'l', 00H, ' ', 00H, 'p', 00H
	DB	'o', 00H, 'i', 00H, 'n', 00H, 't', 00H, 'e', 00H, 'r', 00H, ' '
	DB	00H, 'c', 00H, 'a', 00H, 'n', 00H, 'n', 00H, 'o', 00H, 't', 00H
	DB	' ', 00H, 'p', 00H, 'o', 00H, 'i', 00H, 'n', 00H, 't', 00H, ' '
	DB	00H, 't', 00H, 'o', 00H, ' ', 00H, 'a', 00H, ' ', 00H, 'b', 00H
	DB	'l', 00H, 'o', 00H, 'c', 00H, 'k', 00H, ' ', 00H, 'o', 00H, 'f'
	DB	00H, ' ', 00H, 'n', 00H, 'o', 00H, 'n', 00H, '-', 00H, 'z', 00H
	DB	'e', 00H, 'r', 00H, 'o', 00H, ' ', 00H, 's', 00H, 'i', 00H, 'z'
	DB	00H, 'e', 00H, '"', 00H, 00H, 00H		; `string'
CONST	ENDS
;	COMDAT ??_C@_0DG@KGHKKGBC@null?5pointer?5cannot?5point?5to?5a?5@
CONST	SEGMENT
??_C@_0DG@KGHKKGBC@null?5pointer?5cannot?5point?5to?5a?5@ DB 'null pointe'
	DB	'r cannot point to a block of non-zero size', 00H ; `string'
CONST	ENDS
;	COMDAT ??_C@_0BC@PHINAGMK@?P?$OA?g?m?h?v?$OA?5?b?5?w?$OA?q?$OA?u?3?5@
CONST	SEGMENT
??_C@_0BC@PHINAGMK@?P?$OA?g?m?h?v?$OA?5?b?5?w?$OA?q?$OA?u?3?5@ DB 0d0H, 0e0H
	DB	0e7H, 0edH, 0e8H, 0f6H, 0e0H, ' ', 0e2H, ' ', 0f7H, 0e0H, 0f1H
	DB	0e0H, 0f5H, ': ', 00H			; `string'
CONST	ENDS
;	COMDAT ??_C@_0BA@PFJEFFEO@?R?e?j?s?y?e?e?5?b?p?e?l?$PP?3?5@
CONST	SEGMENT
??_C@_0BA@PFJEFFEO@?R?e?j?s?y?e?e?5?b?p?e?l?$PP?3?5@ DB 0d2H, 0e5H, 0eaH, 0f3H
	DB	0f9H, 0e5H, 0e5H, ' ', 0e2H, 0f0H, 0e5H, 0ecH, 0ffH, ': ', 00H ; `string'
CONST	ENDS
;	COMDAT ??_C@_06HMIDOKGF@?5?w?$OA?q?n?b@
CONST	SEGMENT
??_C@_06HMIDOKGF@?5?w?$OA?q?n?b@ DB ' ', 0f7H, 0e0H, 0f1H, 0eeH, 0e2H, 00H ; `string'
CONST	ENDS
;	COMDAT ??_C@_0BH@JBGJPPKB@?P?$OA?g?m?h?v?$OA?5?l?e?f?d?s?5?d?$OA?r?$OA?l?h?3?5@
CONST	SEGMENT
??_C@_0BH@JBGJPPKB@?P?$OA?g?m?h?v?$OA?5?l?e?f?d?s?5?d?$OA?r?$OA?l?h?3?5@ DB 0d0H
	DB	0e0H, 0e7H, 0edH, 0e8H, 0f6H, 0e0H, ' ', 0ecH, 0e5H, 0e6H, 0e4H
	DB	0f3H, ' ', 0e4H, 0e0H, 0f2H, 0e0H, 0ecH, 0e8H, ': ', 00H ; `string'
CONST	ENDS
;	COMDAT ??_C@_0CE@OFLADAII@?B?b?e?d?h?r?e?52?5?d?$OA?r?s?5?b?5?t?n?p?l?$OA?r?e?5?D?D?L?L?C?C@
CONST	SEGMENT
??_C@_0CE@OFLADAII@?B?b?e?d?h?r?e?52?5?d?$OA?r?s?5?b?5?t?n?p?l?$OA?r?e?5?D?D?L?L?C?C@ DB 0c2H
	DB	0e2H, 0e5H, 0e4H, 0e8H, 0f2H, 0e5H, ' 2 ', 0e4H, 0e0H, 0f2H, 0f3H
	DB	' ', 0e2H, ' ', 0f4H, 0eeH, 0f0H, 0ecH, 0e0H, 0f2H, 0e5H, ' ', 0c4H
	DB	0c4H, 0ccH, 0ccH, 0c3H, 0c3H, 0c3H, 0c3H, ': ', 00H ; `string'
CONST	ENDS
;	COMDAT ??_C@_0BL@MFLHOIBP@?B?b?e?d?h?r?e?5?o?n?p?$PP?d?j?n?b?$PL?i?5?m?n?l?e?p?3?5@
CONST	SEGMENT
??_C@_0BL@MFLHOIBP@?B?b?e?d?h?r?e?5?o?n?p?$PP?d?j?n?b?$PL?i?5?m?n?l?e?p?3?5@ DB 0c2H
	DB	0e2H, 0e5H, 0e4H, 0e8H, 0f2H, 0e5H, ' ', 0efH, 0eeH, 0f0H, 0ffH
	DB	0e4H, 0eaH, 0eeH, 0e2H, 0fbH, 0e9H, ' ', 0edH, 0eeH, 0ecH, 0e5H
	DB	0f0H, ': ', 00H				; `string'
CONST	ENDS
;	COMDAT ??_C@_05KLMANJHD@?C?n?d?3?5@
CONST	SEGMENT
??_C@_05KLMANJHD@?C?n?d?3?5@ DB 0c3H, 0eeH, 0e4H, ': ', 00H ; `string'
CONST	ENDS
;	COMDAT ??_C@_07ONJDPLPB@?L?e?q?$PP?v?3?5@
CONST	SEGMENT
??_C@_07ONJDPLPB@?L?e?q?$PP?v?3?5@ DB 0ccH, 0e5H, 0f1H, 0ffH, 0f6H, ': ', 00H ; `string'
CONST	ENDS
;	COMDAT ??_C@_03NLJIHOMM@?5?9?5@
CONST	SEGMENT
??_C@_03NLJIHOMM@?5?9?5@ DB ' - ', 00H			; `string'
CONST	ENDS
;	COMDAT ??_C@_06LMMEPPLN@?D?e?m?$PM?3?5@
CONST	SEGMENT
??_C@_06LMMEPPLN@?D?e?m?$PM?3?5@ DB 0c4H, 0e5H, 0edH, 0fcH, ': ', 00H ; `string'
CONST	ENDS
;	COMDAT ??_C@_0CA@JIJBLJJE@?B?$PL?5?b?b?e?k?h?5?m?e?o?p?$OA?b?h?k?$PM?m?n?e?5?g?m?$OA?w?e?m?h?e?$CB@
CONST	SEGMENT
??_C@_0CA@JIJBLJJE@?B?$PL?5?b?b?e?k?h?5?m?e?o?p?$OA?b?h?k?$PM?m?n?e?5?g?m?$OA?w?e?m?h?e?$CB@ DB 0c2H
	DB	0fbH, ' ', 0e2H, 0e2H, 0e5H, 0ebH, 0e8H, ' ', 0edH, 0e5H, 0efH
	DB	0f0H, 0e0H, 0e2H, 0e8H, 0ebH, 0fcH, 0edH, 0eeH, 0e5H, ' ', 0e7H
	DB	0edH, 0e0H, 0f7H, 0e5H, 0edH, 0e8H, 0e5H, '!', 00H ; `string'
CONST	ENDS
;	COMDAT ??_C@_0CC@GJFPIFCJ@?B?b?e?d?h?r?e?5?d?$OA?r?s?5?b?5?t?n?p?l?$OA?r?e?5?D?D?L?L?C?C?C?C@
CONST	SEGMENT
??_C@_0CC@GJFPIFCJ@?B?b?e?d?h?r?e?5?d?$OA?r?s?5?b?5?t?n?p?l?$OA?r?e?5?D?D?L?L?C?C?C?C@ DB 0c2H
	DB	0e2H, 0e5H, 0e4H, 0e8H, 0f2H, 0e5H, ' ', 0e4H, 0e0H, 0f2H, 0f3H
	DB	' ', 0e2H, ' ', 0f4H, 0eeH, 0f0H, 0ecH, 0e0H, 0f2H, 0e5H, ' ', 0c4H
	DB	0c4H, 0ccH, 0ccH, 0c3H, 0c3H, 0c3H, 0c3H, ': ', 00H ; `string'
CONST	ENDS
;	COMDAT ??_C@_03EJKFMIHK@rus@
CONST	SEGMENT
??_C@_03EJKFMIHK@rus@ DB 'rus', 00H			; `string'
CONST	ENDS
;	COMDAT ??_C@_0O@JJICNHLP@?M?N?B?$NL?I?5?C?N?D?$CB?$CB?$CB?$CB@
CONST	SEGMENT
??_C@_0O@JJICNHLP@?M?N?B?$NL?I?5?C?N?D?$CB?$CB?$CB?$CB@ DB 0cdH, 0ceH, 0c2H
	DB	0dbH, 0c9H, ' ', 0c3H, 0ceH, 0c4H, '!!!!', 00H ; `string'
CONST	ENDS
;	COMDAT ??_C@_0BA@IEBPNGBA@?D?E?M?$NM?5?O?N?A?E?D?$NL?$CB?$CB?$CB?$CB@
CONST	SEGMENT
??_C@_0BA@IEBPNGBA@?D?E?M?$NM?5?O?N?A?E?D?$NL?$CB?$CB?$CB?$CB@ DB 0c4H, 0c5H
	DB	0cdH, 0dcH, ' ', 0cfH, 0ceH, 0c1H, 0c5H, 0c4H, 0dbH, '!!!!', 00H ; `string'
CONST	ENDS
;	COMDAT ??_C@_0BG@LDDGAJMP@?D?E?M?$NM?5?O?P?N?C?P?$MA?L?L?H?Q?R?$MA?$CB?$CB?$CB?$CB@
CONST	SEGMENT
??_C@_0BG@LDDGAJMP@?D?E?M?$NM?5?O?P?N?C?P?$MA?L?L?H?Q?R?$MA?$CB?$CB?$CB?$CB@ DB 0c4H
	DB	0c5H, 0cdH, 0dcH, ' ', 0cfH, 0d0H, 0ceH, 0c3H, 0d0H, 0c0H, 0ccH
	DB	0ccH, 0c8H, 0d1H, 0d2H, 0c0H, '!!!!', 00H	; `string'
CONST	ENDS
;	COMDAT ??_C@_01LFCBOECM@?4@
CONST	SEGMENT
??_C@_01LFCBOECM@?4@ DB '.', 00H			; `string'
CONST	ENDS
;	COMDAT ??_C@_07MJKMOEOM@?D?e?j?$OA?a?p?$PM@
CONST	SEGMENT
??_C@_07MJKMOEOM@?D?e?j?$OA?a?p?$PM@ DB 0c4H, 0e5H, 0eaH, 0e0H, 0e1H, 0f0H
	DB	0fcH, 00H					; `string'
CONST	ENDS
;	COMDAT ??_C@_06EKHNJIII@?M?n?$PP?a?p?$PM@
CONST	SEGMENT
??_C@_06EKHNJIII@?M?n?$PP?a?p?$PM@ DB 0cdH, 0eeH, 0ffH, 0e1H, 0f0H, 0fcH, 00H ; `string'
CONST	ENDS
;	COMDAT ??_C@_07KDBBAIGI@?N?j?r?$PP?a?p?$PM@
CONST	SEGMENT
??_C@_07KDBBAIGI@?N?j?r?$PP?a?p?$PM@ DB 0ceH, 0eaH, 0f2H, 0ffH, 0e1H, 0f0H
	DB	0fcH, 00H					; `string'
CONST	ENDS
;	COMDAT ??_C@_08ECPNNGFL@?Q?e?m?r?$PP?a?p?$PM@
CONST	SEGMENT
??_C@_08ECPNNGFL@?Q?e?m?r?$PP?a?p?$PM@ DB 0d1H, 0e5H, 0edH, 0f2H, 0ffH, 0e1H
	DB	0f0H, 0fcH, 00H				; `string'
CONST	ENDS
;	COMDAT ??_C@_06JMCJJLBN@?$MA?b?c?s?q?r@
CONST	SEGMENT
??_C@_06JMCJJLBN@?$MA?b?c?s?q?r@ DB 0c0H, 0e2H, 0e3H, 0f3H, 0f1H, 0f2H, 00H ; `string'
CONST	ENDS
;	COMDAT ??_C@_04JLLPFLJM@?H?$PO?k?$PM@
CONST	SEGMENT
??_C@_04JLLPFLJM@?H?$PO?k?$PM@ DB 0c8H, 0feH, 0ebH, 0fcH, 00H ; `string'
CONST	ENDS
;	COMDAT ??_C@_04JPDCCHCO@?H?$PO?m?$PM@
CONST	SEGMENT
??_C@_04JPDCCHCO@?H?$PO?m?$PM@ DB 0c8H, 0feH, 0edH, 0fcH, 00H ; `string'
CONST	ENDS
;	COMDAT ??_C@_03MEHOOJFI@?L?$OA?i@
CONST	SEGMENT
??_C@_03MEHOOJFI@?L?$OA?i@ DB 0ccH, 0e0H, 0e9H, 00H	; `string'
CONST	ENDS
;	COMDAT ??_C@_06PNLHGGPK@?$MA?o?p?e?k?$PM@
CONST	SEGMENT
??_C@_06PNLHGGPK@?$MA?o?p?e?k?$PM@ DB 0c0H, 0efH, 0f0H, 0e5H, 0ebH, 0fcH, 00H ; `string'
CONST	ENDS
;	COMDAT ??_C@_04FAAJLMOP@?L?$OA?p?r@
CONST	SEGMENT
??_C@_04FAAJLMOP@?L?$OA?p?r@ DB 0ccH, 0e0H, 0f0H, 0f2H, 00H ; `string'
CONST	ENDS
;	COMDAT ??_C@_07JBGLOLNM@?T?e?b?p?$OA?k?$PM@
CONST	SEGMENT
??_C@_07JBGLOLNM@?T?e?b?p?$OA?k?$PM@ DB 0d4H, 0e5H, 0e2H, 0f0H, 0e0H, 0ebH
	DB	0fcH, 00H					; `string'
CONST	ENDS
;	COMDAT ??_C@_06BMGEFDJH@?$NP?m?b?$OA?p?$PM@
CONST	SEGMENT
??_C@_06BMGEFDJH@?$NP?m?b?$OA?p?$PM@ DB 0dfH, 0edH, 0e2H, 0e0H, 0f0H, 0fcH
	DB	00H						; `string'
CONST	ENDS
;	COMDAT ??_C@_0BA@JFNIOLAK@string?5too?5long@
CONST	SEGMENT
??_C@_0BA@JFNIOLAK@string?5too?5long@ DB 'string too long', 00H ; `string'
CONST	ENDS
;	COMDAT ??_C@_1CG@JNLFBNGN@?$AA?$CC?$AAi?$AAn?$AAv?$AAa?$AAl?$AAi?$AAd?$AA?5?$AAa?$AAr?$AAg?$AAu?$AAm?$AAe@
CONST	SEGMENT
??_C@_1CG@JNLFBNGN@?$AA?$CC?$AAi?$AAn?$AAv?$AAa?$AAl?$AAi?$AAd?$AA?5?$AAa?$AAr?$AAg?$AAu?$AAm?$AAe@ DB '"'
	DB	00H, 'i', 00H, 'n', 00H, 'v', 00H, 'a', 00H, 'l', 00H, 'i', 00H
	DB	'd', 00H, ' ', 00H, 'a', 00H, 'r', 00H, 'g', 00H, 'u', 00H, 'm'
	DB	00H, 'e', 00H, 'n', 00H, 't', 00H, '"', 00H, 00H, 00H ; `string'
CONST	ENDS
;	COMDAT ??_C@_11LOCGONAA@@
CONST	SEGMENT
??_C@_11LOCGONAA@@ DB 00H, 00H				; `string'
CONST	ENDS
;	COMDAT ??_C@_1ME@PPIEIJND@?$AAC?$AA?3?$AA?2?$AAP?$AAr?$AAo?$AAg?$AAr?$AAa?$AAm?$AA?5?$AAF?$AAi?$AAl?$AAe@
CONST	SEGMENT
??_C@_1ME@PPIEIJND@?$AAC?$AA?3?$AA?2?$AAP?$AAr?$AAo?$AAg?$AAr?$AAa?$AAm?$AA?5?$AAF?$AAi?$AAl?$AAe@ DB 'C'
	DB	00H, ':', 00H, '\', 00H, 'P', 00H, 'r', 00H, 'o', 00H, 'g', 00H
	DB	'r', 00H, 'a', 00H, 'm', 00H, ' ', 00H, 'F', 00H, 'i', 00H, 'l'
	DB	00H, 'e', 00H, 's', 00H, '\', 00H, 'M', 00H, 'i', 00H, 'c', 00H
	DB	'r', 00H, 'o', 00H, 's', 00H, 'o', 00H, 'f', 00H, 't', 00H, ' '
	DB	00H, 'V', 00H, 'i', 00H, 's', 00H, 'u', 00H, 'a', 00H, 'l', 00H
	DB	' ', 00H, 'S', 00H, 't', 00H, 'u', 00H, 'd', 00H, 'i', 00H, 'o'
	DB	00H, '\', 00H, '2', 00H, '0', 00H, '2', 00H, '2', 00H, '\', 00H
	DB	'C', 00H, 'o', 00H, 'm', 00H, 'm', 00H, 'u', 00H, 'n', 00H, 'i'
	DB	00H, 't', 00H, 'y', 00H, '\', 00H, 'V', 00H, 'C', 00H, '\', 00H
	DB	'T', 00H, 'o', 00H, 'o', 00H, 'l', 00H, 's', 00H, '\', 00H, 'M'
	DB	00H, 'S', 00H, 'V', 00H, 'C', 00H, '\', 00H, '1', 00H, '4', 00H
	DB	'.', 00H, '3', 00H, '7', 00H, '.', 00H, '3', 00H, '2', 00H, '8'
	DB	00H, '2', 00H, '2', 00H, '\', 00H, 'i', 00H, 'n', 00H, 'c', 00H
	DB	'l', 00H, 'u', 00H, 'd', 00H, 'e', 00H, '\', 00H, 'x', 00H, 'm'
	DB	00H, 'e', 00H, 'm', 00H, 'o', 00H, 'r', 00H, 'y', 00H, 00H, 00H ; `string'
CONST	ENDS
;	COMDAT ??_C@_0GC@JDLAECEI@C?3?2Program?5Files?2Microsoft?5Visu@
CONST	SEGMENT
??_C@_0GC@JDLAECEI@C?3?2Program?5Files?2Microsoft?5Visu@ DB 'C:\Program F'
	DB	'iles\Microsoft Visual Studio\2022\Community\VC\Tools\MSVC\14.'
	DB	'37.32822\include\xmemory', 00H		; `string'
CONST	ENDS
;	COMDAT ??_C@_02DKCKIIND@?$CFs@
CONST	SEGMENT
??_C@_02DKCKIIND@?$CFs@ DB '%s', 00H			; `string'
CONST	ENDS
;	COMDAT ??_C@_0BB@FCMFBGOM@invalid?5argument@
CONST	SEGMENT
??_C@_0BB@FCMFBGOM@invalid?5argument@ DB 'invalid argument', 00H ; `string'
CONST	ENDS
;	COMDAT ?__LINE__Var@?0??_Adjust_manually_vector_aligned@std@@YAXAEAPEAXAEA_K@Z@4JA
_DATA	SEGMENT
?__LINE__Var@?0??_Adjust_manually_vector_aligned@std@@YAXAEAPEAXAEA_K@Z@4JA DD 09bH ; `std::_Adjust_manually_vector_aligned'::`1'::__LINE__Var
_DATA	ENDS
;	COMDAT _CT??_R0?AVexception@std@@@8??0exception@std@@QEAA@AEBV01@@Z24
xdata$x	SEGMENT
_CT??_R0?AVexception@std@@@8??0exception@std@@QEAA@AEBV01@@Z24 DD 00H
	DD	imagerel ??_R0?AVexception@std@@@8
	DD	00H
	DD	0ffffffffH
	ORG $+4
	DD	018H
	DD	imagerel ??0exception@std@@QEAA@AEBV01@@Z
xdata$x	ENDS
;	COMDAT ??_R0?AVexception@std@@@8
data$r	SEGMENT
??_R0?AVexception@std@@@8 DQ FLAT:??_7type_info@@6B@	; std::exception `RTTI Type Descriptor'
	DQ	0000000000000000H
	DB	'.?AVexception@std@@', 00H
data$r	ENDS
;	COMDAT _CT??_R0?AVbad_alloc@std@@@8??0bad_alloc@std@@QEAA@AEBV01@@Z24
xdata$x	SEGMENT
_CT??_R0?AVbad_alloc@std@@@8??0bad_alloc@std@@QEAA@AEBV01@@Z24 DD 010H
	DD	imagerel ??_R0?AVbad_alloc@std@@@8
	DD	00H
	DD	0ffffffffH
	ORG $+4
	DD	018H
	DD	imagerel ??0bad_alloc@std@@QEAA@AEBV01@@Z
xdata$x	ENDS
;	COMDAT ??_R0?AVbad_alloc@std@@@8
data$r	SEGMENT
??_R0?AVbad_alloc@std@@@8 DQ FLAT:??_7type_info@@6B@	; std::bad_alloc `RTTI Type Descriptor'
	DQ	0000000000000000H
	DB	'.?AVbad_alloc@std@@', 00H
data$r	ENDS
;	COMDAT _CT??_R0?AVbad_array_new_length@std@@@8??0bad_array_new_length@std@@QEAA@AEBV01@@Z24
xdata$x	SEGMENT
_CT??_R0?AVbad_array_new_length@std@@@8??0bad_array_new_length@std@@QEAA@AEBV01@@Z24 DD 00H
	DD	imagerel ??_R0?AVbad_array_new_length@std@@@8
	DD	00H
	DD	0ffffffffH
	ORG $+4
	DD	018H
	DD	imagerel ??0bad_array_new_length@std@@QEAA@AEBV01@@Z
xdata$x	ENDS
;	COMDAT ??_R0?AVbad_array_new_length@std@@@8
data$r	SEGMENT
??_R0?AVbad_array_new_length@std@@@8 DQ FLAT:??_7type_info@@6B@ ; std::bad_array_new_length `RTTI Type Descriptor'
	DQ	0000000000000000H
	DB	'.?AVbad_array_new_length@std@@', 00H
data$r	ENDS
;	COMDAT _CTA3?AVbad_array_new_length@std@@
xdata$x	SEGMENT
_CTA3?AVbad_array_new_length@std@@ DD 03H
	DD	imagerel _CT??_R0?AVbad_array_new_length@std@@@8??0bad_array_new_length@std@@QEAA@AEBV01@@Z24
	DD	imagerel _CT??_R0?AVbad_alloc@std@@@8??0bad_alloc@std@@QEAA@AEBV01@@Z24
	DD	imagerel _CT??_R0?AVexception@std@@@8??0exception@std@@QEAA@AEBV01@@Z24
xdata$x	ENDS
;	COMDAT _TI3?AVbad_array_new_length@std@@
xdata$x	SEGMENT
_TI3?AVbad_array_new_length@std@@ DD 00H
	DD	imagerel ??1bad_array_new_length@std@@UEAA@XZ
	DD	00H
	DD	imagerel _CTA3?AVbad_array_new_length@std@@
xdata$x	ENDS
;	COMDAT ??_C@_0BF@KINCDENJ@bad?5array?5new?5length@
CONST	SEGMENT
??_C@_0BF@KINCDENJ@bad?5array?5new?5length@ DB 'bad array new length', 00H ; `string'
CONST	ENDS
;	COMDAT ??_7bad_array_new_length@std@@6B@
CONST	SEGMENT
??_7bad_array_new_length@std@@6B@ DQ FLAT:??_R4bad_array_new_length@std@@6B@ ; std::bad_array_new_length::`vftable'
	DQ	FLAT:??_Ebad_array_new_length@std@@UEAAPEAXI@Z
	DQ	FLAT:?what@exception@std@@UEBAPEBDXZ
CONST	ENDS
;	COMDAT ??_7bad_alloc@std@@6B@
CONST	SEGMENT
??_7bad_alloc@std@@6B@ DQ FLAT:??_R4bad_alloc@std@@6B@	; std::bad_alloc::`vftable'
	DQ	FLAT:??_Ebad_alloc@std@@UEAAPEAXI@Z
	DQ	FLAT:?what@exception@std@@UEBAPEBDXZ
CONST	ENDS
;	COMDAT ??_C@_0BC@EOODALEL@Unknown?5exception@
CONST	SEGMENT
??_C@_0BC@EOODALEL@Unknown?5exception@ DB 'Unknown exception', 00H ; `string'
CONST	ENDS
;	COMDAT ??_7exception@std@@6B@
CONST	SEGMENT
??_7exception@std@@6B@ DQ FLAT:??_R4exception@std@@6B@	; std::exception::`vftable'
	DQ	FLAT:??_Eexception@std@@UEAAPEAXI@Z
	DQ	FLAT:?what@exception@std@@UEBAPEBDXZ
CONST	ENDS
;	COMDAT xdata
xdata	SEGMENT
$unwind$??$_Allocate_manually_vector_aligned@U_Default_allocate_traits@std@@@std@@YAPEAX_K@Z DD 035051301H
	DD	010e3313H
	DD	07007002bH
	DD	05006H
xdata	ENDS
;	COMDAT xdata
xdata	SEGMENT
$unwind$?deallocate@?$_Default_allocator_traits@V?$allocator@U_Container_proxy@std@@@std@@@std@@SAXAEAV?$allocator@U_Container_proxy@std@@@2@QEAU_Container_proxy@2@_K@Z DD 025051d01H
	DD	0118231dH
	DD	07011001dH
	DD	05010H
xdata	ENDS
;	COMDAT xdata
xdata	SEGMENT
$unwind$??$addressof@U_Container_proxy@std@@@std@@YAPEAU_Container_proxy@0@AEAU10@@Z DD 025051301H
	DD	010e2313H
	DD	07007001dH
	DD	05006H
xdata	ENDS
;	COMDAT xdata
xdata	SEGMENT
$unwind$??$_Get_size_of_n@$00@std@@YA_K_K@Z DD 025051301H
	DD	010e2313H
	DD	070070021H
	DD	05006H
xdata	ENDS
;	COMDAT xdata
xdata	SEGMENT
$unwind$??$_Allocate@$0BA@U_Default_allocate_traits@std@@$0A@@std@@YAPEAX_K@Z DD 025051301H
	DD	010e2313H
	DD	07007001dH
	DD	05006H
xdata	ENDS
;	COMDAT xdata
xdata	SEGMENT
$unwind$??$_Get_size_of_n@$0BA@@std@@YA_K_K@Z DD 025051301H
	DD	010e2313H
	DD	070070025H
	DD	05006H
xdata	ENDS
;	COMDAT xdata
xdata	SEGMENT
$unwind$??$addressof@PEAD@std@@YAPEAPEADAEAPEAD@Z DD 025051301H
	DD	010e2313H
	DD	07007001dH
	DD	05006H
xdata	ENDS
;	COMDAT xdata
xdata	SEGMENT
$unwind$??$_Construct_in_place@PEADAEBQEAD@std@@YAXAEAPEADAEBQEAD@Z DD 025051801H
	DD	01132318H
	DD	0700c0021H
	DD	0500bH
xdata	ENDS
;	COMDAT xdata
xdata	SEGMENT
$unwind$??$_Unfancy@U_Container_proxy@std@@@std@@YAPEAU_Container_proxy@0@PEAU10@@Z DD 025051301H
	DD	010e2313H
	DD	07007001dH
	DD	05006H
xdata	ENDS
;	COMDAT xdata
xdata	SEGMENT
$unwind$??1?$_Container_proxy_ptr12@V?$allocator@U_Container_proxy@std@@@std@@@std@@QEAA@XZ DD 025051301H
	DD	010e2313H
	DD	07007001dH
	DD	05006H
xdata	ENDS
;	COMDAT xdata
xdata	SEGMENT
$unwind$??0?$_Container_proxy_ptr12@V?$allocator@U_Container_proxy@std@@@std@@@std@@QEAA@AEAV?$allocator@U_Container_proxy@std@@@1@AEAU_Container_base12@1@@Z DD 025051d01H
	DD	0118231dH
	DD	070110021H
	DD	05010H
xdata	ENDS
;	COMDAT xdata
xdata	SEGMENT
$ip2state$??$_Deallocate_plain@V?$allocator@U_Container_proxy@std@@@std@@@std@@YAXAEAV?$allocator@U_Container_proxy@std@@@0@QEAU_Container_proxy@0@@Z DB 02H
	DB	00H
	DB	00H
xdata	ENDS
;	COMDAT xdata
xdata	SEGMENT
$cppxdata$??$_Deallocate_plain@V?$allocator@U_Container_proxy@std@@@std@@@std@@YAXAEAV?$allocator@U_Container_proxy@std@@@0@QEAU_Container_proxy@0@@Z DB 060H
	DD	imagerel $ip2state$??$_Deallocate_plain@V?$allocator@U_Container_proxy@std@@@std@@@std@@YAXAEAV?$allocator@U_Container_proxy@std@@@0@QEAU_Container_proxy@0@@Z
xdata	ENDS
;	COMDAT xdata
xdata	SEGMENT
$unwind$??$_Deallocate_plain@V?$allocator@U_Container_proxy@std@@@std@@@std@@YAXAEAV?$allocator@U_Container_proxy@std@@@0@QEAU_Container_proxy@0@@Z DD 025051819H
	DD	01132318H
	DD	0700c001dH
	DD	0500bH
	DD	imagerel __CxxFrameHandler4
	DD	imagerel $cppxdata$??$_Deallocate_plain@V?$allocator@U_Container_proxy@std@@@std@@@std@@YAXAEAV?$allocator@U_Container_proxy@std@@@0@QEAU_Container_proxy@0@@Z
xdata	ENDS
;	COMDAT voltbl
voltbl	SEGMENT
_volmd	DB	00H
	DB	05H
voltbl	ENDS
;	COMDAT voltbl
voltbl	SEGMENT
_volmd	DB	00H
	DB	05H
voltbl	ENDS
;	COMDAT voltbl
voltbl	SEGMENT
_volmd	DW	040H
	DW	03b1H
voltbl	ENDS
;	COMDAT xdata
xdata	SEGMENT
$unwind$?catch$1@?0???$_Insert_string@DU?$char_traits@D@std@@_K@std@@YAAEAV?$basic_ostream@DU?$char_traits@D@std@@@0@AEAV10@QEBD_K@Z@4HA DD 031001H
	DD	0700c4210H
	DD	0500bH
xdata	ENDS
;	COMDAT xdata
xdata	SEGMENT
$unwind$?dtor$0@?0???$_Insert_string@DU?$char_traits@D@std@@_K@std@@YAAEAV?$basic_ostream@DU?$char_traits@D@std@@@0@AEAV10@QEBD_K@Z@4HA DD 031001H
	DD	0700c4210H
	DD	0500bH
xdata	ENDS
;	COMDAT xdata
xdata	SEGMENT
$ip2state$??$_Insert_string@DU?$char_traits@D@std@@_K@std@@YAAEAV?$basic_ostream@DU?$char_traits@D@std@@@0@AEAV10@QEBD_K@Z DB 0aH
	DB	00H
	DB	00H
	DB	0e9H, 03H
	DB	02H
	DB	'<'
	DB	04H
	DB	0e5H, 08H
	DB	02H
	DB	't'
	DB	00H
xdata	ENDS
;	COMDAT xdata
xdata	SEGMENT
$handlerMap$??$_Insert_string@DU?$char_traits@D@std@@_K@std@@YAAEAV?$basic_ostream@DU?$char_traits@D@std@@@0@AEAV10@QEBD_K@Z DB 02H
	DB	01H
	DB	080H
	DD	imagerel ?catch$1@?0???$_Insert_string@DU?$char_traits@D@std@@_K@std@@YAAEAV?$basic_ostream@DU?$char_traits@D@std@@@0@AEAV10@QEBD_K@Z@4HA
xdata	ENDS
;	COMDAT xdata
xdata	SEGMENT
$tryMap$??$_Insert_string@DU?$char_traits@D@std@@_K@std@@YAAEAV?$basic_ostream@DU?$char_traits@D@std@@@0@AEAV10@QEBD_K@Z DB 02H
	DB	02H
	DB	02H
	DB	04H
	DD	imagerel $handlerMap$??$_Insert_string@DU?$char_traits@D@std@@_K@std@@YAAEAV?$basic_ostream@DU?$char_traits@D@std@@@0@AEAV10@QEBD_K@Z
xdata	ENDS
;	COMDAT xdata
xdata	SEGMENT
$stateUnwindMap$??$_Insert_string@DU?$char_traits@D@std@@_K@std@@YAAEAV?$basic_ostream@DU?$char_traits@D@std@@@0@AEAV10@QEBD_K@Z DB 06H
	DB	0eH
	DD	imagerel ?dtor$0@?0???$_Insert_string@DU?$char_traits@D@std@@_K@std@@YAAEAV?$basic_ostream@DU?$char_traits@D@std@@@0@AEAV10@QEBD_K@Z@4HA
	DB	028H
	DB	030H
xdata	ENDS
;	COMDAT xdata
xdata	SEGMENT
$cppxdata$??$_Insert_string@DU?$char_traits@D@std@@_K@std@@YAAEAV?$basic_ostream@DU?$char_traits@D@std@@@0@AEAV10@QEBD_K@Z DB 038H
	DD	imagerel $stateUnwindMap$??$_Insert_string@DU?$char_traits@D@std@@_K@std@@YAAEAV?$basic_ostream@DU?$char_traits@D@std@@@0@AEAV10@QEBD_K@Z
	DD	imagerel $tryMap$??$_Insert_string@DU?$char_traits@D@std@@_K@std@@YAAEAV?$basic_ostream@DU?$char_traits@D@std@@@0@AEAV10@QEBD_K@Z
	DD	imagerel $ip2state$??$_Insert_string@DU?$char_traits@D@std@@_K@std@@YAAEAV?$basic_ostream@DU?$char_traits@D@std@@@0@AEAV10@QEBD_K@Z
xdata	ENDS
;	COMDAT xdata
xdata	SEGMENT
$unwind$??$_Insert_string@DU?$char_traits@D@std@@_K@std@@YAAEAV?$basic_ostream@DU?$char_traits@D@std@@@0@AEAV10@QEBD_K@Z DD 025054719H
	DD	0118231dH
	DD	070110041H
	DD	05010H
	DD	imagerel __GSHandlerCheck_EH4
	DD	imagerel $cppxdata$??$_Insert_string@DU?$char_traits@D@std@@_K@std@@YAAEAV?$basic_ostream@DU?$char_traits@D@std@@@0@AEAV10@QEBD_K@Z
	DD	01f3H
xdata	ENDS
;	COMDAT CONST
CONST	SEGMENT
??$_Insert_string@DU?$char_traits@D@std@@_K@std@@YAAEAV?$basic_ostream@DU?$char_traits@D@std@@@0@AEAV10@QEBD_K@Z$rtcName$0 DB 05fH ; std::_Insert_string<char,std::char_traits<char>,unsigned __int64>
	DB	04fH
	DB	06bH
	DB	00H
	ORG $+12
??$_Insert_string@DU?$char_traits@D@std@@_K@std@@YAAEAV?$basic_ostream@DU?$char_traits@D@std@@@0@AEAV10@QEBD_K@Z$rtcVarDesc DD 068H ; std::_Insert_string<char,std::char_traits<char>,unsigned __int64>
	DD	010H
	DQ	FLAT:??$_Insert_string@DU?$char_traits@D@std@@_K@std@@YAAEAV?$basic_ostream@DU?$char_traits@D@std@@@0@AEAV10@QEBD_K@Z$rtcName$0
	ORG $+48
??$_Insert_string@DU?$char_traits@D@std@@_K@std@@YAAEAV?$basic_ostream@DU?$char_traits@D@std@@@0@AEAV10@QEBD_K@Z$rtcFrameData DD 01H ; std::_Insert_string<char,std::char_traits<char>,unsigned __int64>
	DD	00H
	DQ	FLAT:??$_Insert_string@DU?$char_traits@D@std@@_K@std@@YAAEAV?$basic_ostream@DU?$char_traits@D@std@@@0@AEAV10@QEBD_K@Z$rtcVarDesc
CONST	ENDS
;	COMDAT xdata
xdata	SEGMENT
$ip2state$??$_Deallocate@$0BA@$0A@@std@@YAXPEAX_K@Z DB 02H
	DB	00H
	DB	00H
xdata	ENDS
;	COMDAT xdata
xdata	SEGMENT
$cppxdata$??$_Deallocate@$0BA@$0A@@std@@YAXPEAX_K@Z DB 060H
	DD	imagerel $ip2state$??$_Deallocate@$0BA@$0A@@std@@YAXPEAX_K@Z
xdata	ENDS
;	COMDAT xdata
xdata	SEGMENT
$unwind$??$_Deallocate@$0BA@$0A@@std@@YAXPEAX_K@Z DD 025051819H
	DD	01132318H
	DD	0700c001dH
	DD	0500bH
	DD	imagerel __CxxFrameHandler4
	DD	imagerel $cppxdata$??$_Deallocate@$0BA@$0A@@std@@YAXPEAX_K@Z
xdata	ENDS
;	COMDAT xdata
xdata	SEGMENT
$unwind$??$max@_K@std@@YAAEB_KAEB_K0@Z DD 025051801H
	DD	01132318H
	DD	0700c0021H
	DD	0500bH
xdata	ENDS
;	COMDAT xdata
xdata	SEGMENT
$unwind$??$_Unfancy@D@std@@YAPEADPEAD@Z DD 025051301H
	DD	010e2313H
	DD	07007001dH
	DD	05006H
xdata	ENDS
;	COMDAT xdata
xdata	SEGMENT
$unwind$??$_Destroy_in_place@PEAD@std@@YAXAEAPEAD@Z DD 025051301H
	DD	010e2313H
	DD	07007001dH
	DD	05006H
xdata	ENDS
;	COMDAT voltbl
voltbl	SEGMENT
_volmd	DB	00H
	DB	05H
voltbl	ENDS
;	COMDAT voltbl
voltbl	SEGMENT
_volmd	DW	040H
	DW	0218H
voltbl	ENDS
;	COMDAT xdata
xdata	SEGMENT
$unwind$?dtor$0@?0???$_Construct@$01PEBD@?$basic_string@DU?$char_traits@D@std@@V?$allocator@D@2@@std@@AEAAXQEBD_K@Z@4HA DD 031001H
	DD	0700c4210H
	DD	0500bH
xdata	ENDS
;	COMDAT xdata
xdata	SEGMENT
$ip2state$??$_Construct@$01PEBD@?$basic_string@DU?$char_traits@D@std@@V?$allocator@D@2@@std@@AEAAXQEBD_K@Z DB 0aH
	DB	00H
	DB	00H
	DB	0c9H, 02H
	DB	02H
	DB	09eH
	DB	00H
	DB	'"'
	DB	02H
	DB	0a9H, 03H
	DB	00H
xdata	ENDS
;	COMDAT xdata
xdata	SEGMENT
$stateUnwindMap$??$_Construct@$01PEBD@?$basic_string@DU?$char_traits@D@std@@V?$allocator@D@2@@std@@AEAAXQEBD_K@Z DB 02H
	DB	0eH
	DD	imagerel ?dtor$0@?0???$_Construct@$01PEBD@?$basic_string@DU?$char_traits@D@std@@V?$allocator@D@2@@std@@AEAAXQEBD_K@Z@4HA
xdata	ENDS
;	COMDAT xdata
xdata	SEGMENT
$cppxdata$??$_Construct@$01PEBD@?$basic_string@DU?$char_traits@D@std@@V?$allocator@D@2@@std@@AEAAXQEBD_K@Z DB 028H
	DD	imagerel $stateUnwindMap$??$_Construct@$01PEBD@?$basic_string@DU?$char_traits@D@std@@V?$allocator@D@2@@std@@AEAAXQEBD_K@Z
	DD	imagerel $ip2state$??$_Construct@$01PEBD@?$basic_string@DU?$char_traits@D@std@@V?$allocator@D@2@@std@@AEAAXQEBD_K@Z
xdata	ENDS
;	COMDAT xdata
xdata	SEGMENT
$unwind$??$_Construct@$01PEBD@?$basic_string@DU?$char_traits@D@std@@V?$allocator@D@2@@std@@AEAAXQEBD_K@Z DD 025054719H
	DD	0118231dH
	DD	07011003dH
	DD	05010H
	DD	imagerel __GSHandlerCheck_EH4
	DD	imagerel $cppxdata$??$_Construct@$01PEBD@?$basic_string@DU?$char_traits@D@std@@V?$allocator@D@2@@std@@AEAAXQEBD_K@Z
	DD	01d2H
xdata	ENDS
;	COMDAT CONST
CONST	SEGMENT
??$_Construct@$01PEBD@?$basic_string@DU?$char_traits@D@std@@V?$allocator@D@2@@std@@AEAAXQEBD_K@Z$rtcName$0 DB 024H ; std::basic_string<char,std::char_traits<char>,std::allocator<char> >::_Construct<2,char const *>
	DB	053H
	DB	039H
	DB	00H
??$_Construct@$01PEBD@?$basic_string@DU?$char_traits@D@std@@V?$allocator@D@2@@std@@AEAAXQEBD_K@Z$rtcName$1 DB 05fH ; std::basic_string<char,std::char_traits<char>,std::allocator<char> >::_Construct<2,char const *>
	DB	050H
	DB	072H
	DB	06fH
	DB	078H
	DB	079H
	DB	00H
	ORG $+5
??$_Construct@$01PEBD@?$basic_string@DU?$char_traits@D@std@@V?$allocator@D@2@@std@@AEAAXQEBD_K@Z$rtcName$2 DB 05fH ; std::basic_string<char,std::char_traits<char>,std::allocator<char> >::_Construct<2,char const *>
	DB	04eH
	DB	065H
	DB	077H
	DB	05fH
	DB	070H
	DB	074H
	DB	072H
	DB	00H
	ORG $+7
??$_Construct@$01PEBD@?$basic_string@DU?$char_traits@D@std@@V?$allocator@D@2@@std@@AEAAXQEBD_K@Z$rtcVarDesc DD 0f8H ; std::basic_string<char,std::char_traits<char>,std::allocator<char> >::_Construct<2,char const *>
	DD	08H
	DQ	FLAT:??$_Construct@$01PEBD@?$basic_string@DU?$char_traits@D@std@@V?$allocator@D@2@@std@@AEAAXQEBD_K@Z$rtcName$2
	DD	0a8H
	DD	010H
	DQ	FLAT:??$_Construct@$01PEBD@?$basic_string@DU?$char_traits@D@std@@V?$allocator@D@2@@std@@AEAAXQEBD_K@Z$rtcName$1
	DD	084H
	DD	01H
	DQ	FLAT:??$_Construct@$01PEBD@?$basic_string@DU?$char_traits@D@std@@V?$allocator@D@2@@std@@AEAAXQEBD_K@Z$rtcName$0
	ORG $+144
??$_Construct@$01PEBD@?$basic_string@DU?$char_traits@D@std@@V?$allocator@D@2@@std@@AEAAXQEBD_K@Z$rtcFrameData DD 03H ; std::basic_string<char,std::char_traits<char>,std::allocator<char> >::_Construct<2,char const *>
	DD	00H
	DQ	FLAT:??$_Construct@$01PEBD@?$basic_string@DU?$char_traits@D@std@@V?$allocator@D@2@@std@@AEAAXQEBD_K@Z$rtcVarDesc
CONST	ENDS
;	COMDAT voltbl
voltbl	SEGMENT
_volmd	DB	00H
	DB	05H
voltbl	ENDS
;	COMDAT voltbl
voltbl	SEGMENT
_volmd	DW	040H
	DW	0254H
voltbl	ENDS
;	COMDAT xdata
xdata	SEGMENT
$unwind$?dtor$0@?0???$_Construct@$00PEBD@?$basic_string@DU?$char_traits@D@std@@V?$allocator@D@2@@std@@AEAAXQEBD_K@Z@4HA DD 031001H
	DD	0700c4210H
	DD	0500bH
xdata	ENDS
;	COMDAT xdata
xdata	SEGMENT
$ip2state$??$_Construct@$00PEBD@?$basic_string@DU?$char_traits@D@std@@V?$allocator@D@2@@std@@AEAAXQEBD_K@Z DB 0aH
	DB	00H
	DB	00H
	DB	0c9H, 02H
	DB	02H
	DB	0ecH
	DB	00H
	DB	'"'
	DB	02H
	DB	0fdH, 03H
	DB	00H
xdata	ENDS
;	COMDAT xdata
xdata	SEGMENT
$stateUnwindMap$??$_Construct@$00PEBD@?$basic_string@DU?$char_traits@D@std@@V?$allocator@D@2@@std@@AEAAXQEBD_K@Z DB 02H
	DB	0eH
	DD	imagerel ?dtor$0@?0???$_Construct@$00PEBD@?$basic_string@DU?$char_traits@D@std@@V?$allocator@D@2@@std@@AEAAXQEBD_K@Z@4HA
xdata	ENDS
;	COMDAT xdata
xdata	SEGMENT
$cppxdata$??$_Construct@$00PEBD@?$basic_string@DU?$char_traits@D@std@@V?$allocator@D@2@@std@@AEAAXQEBD_K@Z DB 028H
	DD	imagerel $stateUnwindMap$??$_Construct@$00PEBD@?$basic_string@DU?$char_traits@D@std@@V?$allocator@D@2@@std@@AEAAXQEBD_K@Z
	DD	imagerel $ip2state$??$_Construct@$00PEBD@?$basic_string@DU?$char_traits@D@std@@V?$allocator@D@2@@std@@AEAAXQEBD_K@Z
xdata	ENDS
;	COMDAT xdata
xdata	SEGMENT
$unwind$??$_Construct@$00PEBD@?$basic_string@DU?$char_traits@D@std@@V?$allocator@D@2@@std@@AEAAXQEBD_K@Z DD 025054719H
	DD	0118231dH
	DD	070110045H
	DD	05010H
	DD	imagerel __GSHandlerCheck_EH4
	DD	imagerel $cppxdata$??$_Construct@$00PEBD@?$basic_string@DU?$char_traits@D@std@@V?$allocator@D@2@@std@@AEAAXQEBD_K@Z
	DD	0212H
xdata	ENDS
;	COMDAT CONST
CONST	SEGMENT
??$_Construct@$00PEBD@?$basic_string@DU?$char_traits@D@std@@V?$allocator@D@2@@std@@AEAAXQEBD_K@Z$rtcName$0 DB 024H ; std::basic_string<char,std::char_traits<char>,std::allocator<char> >::_Construct<1,char const *>
	DB	053H
	DB	038H
	DB	00H
??$_Construct@$00PEBD@?$basic_string@DU?$char_traits@D@std@@V?$allocator@D@2@@std@@AEAAXQEBD_K@Z$rtcName$1 DB 05fH ; std::basic_string<char,std::char_traits<char>,std::allocator<char> >::_Construct<1,char const *>
	DB	050H
	DB	072H
	DB	06fH
	DB	078H
	DB	079H
	DB	00H
	ORG $+5
??$_Construct@$00PEBD@?$basic_string@DU?$char_traits@D@std@@V?$allocator@D@2@@std@@AEAAXQEBD_K@Z$rtcName$2 DB 05fH ; std::basic_string<char,std::char_traits<char>,std::allocator<char> >::_Construct<1,char const *>
	DB	04eH
	DB	065H
	DB	077H
	DB	05fH
	DB	070H
	DB	074H
	DB	072H
	DB	00H
	ORG $+7
??$_Construct@$00PEBD@?$basic_string@DU?$char_traits@D@std@@V?$allocator@D@2@@std@@AEAAXQEBD_K@Z$rtcVarDesc DD 0f8H ; std::basic_string<char,std::char_traits<char>,std::allocator<char> >::_Construct<1,char const *>
	DD	08H
	DQ	FLAT:??$_Construct@$00PEBD@?$basic_string@DU?$char_traits@D@std@@V?$allocator@D@2@@std@@AEAAXQEBD_K@Z$rtcName$2
	DD	0a8H
	DD	010H
	DQ	FLAT:??$_Construct@$00PEBD@?$basic_string@DU?$char_traits@D@std@@V?$allocator@D@2@@std@@AEAAXQEBD_K@Z$rtcName$1
	DD	084H
	DD	01H
	DQ	FLAT:??$_Construct@$00PEBD@?$basic_string@DU?$char_traits@D@std@@V?$allocator@D@2@@std@@AEAAXQEBD_K@Z$rtcName$0
	ORG $+144
??$_Construct@$00PEBD@?$basic_string@DU?$char_traits@D@std@@V?$allocator@D@2@@std@@AEAAXQEBD_K@Z$rtcFrameData DD 03H ; std::basic_string<char,std::char_traits<char>,std::allocator<char> >::_Construct<1,char const *>
	DD	00H
	DQ	FLAT:??$_Construct@$00PEBD@?$basic_string@DU?$char_traits@D@std@@V?$allocator@D@2@@std@@AEAAXQEBD_K@Z$rtcVarDesc
CONST	ENDS
;	COMDAT xdata
xdata	SEGMENT
$unwind$??$?0$$V@?$_Compressed_pair@V?$allocator@D@std@@V?$_String_val@U?$_Simple_types@D@std@@@2@$00@std@@QEAA@U_Zero_then_variadic_args_t@1@@Z DD 025051701H
	DD	01122317H
	DD	0700b001dH
	DD	0500aH
xdata	ENDS
;	COMDAT xdata
xdata	SEGMENT
$unwind$??$?0V?$allocator@D@std@@$$V@?$_Compressed_pair@V?$allocator@D@std@@V?$_String_val@U?$_Simple_types@D@std@@@2@$00@std@@QEAA@U_One_then_variadic_args_t@1@$$QEAV?$allocator@D@1@@Z DD 025051c01H
	DD	0117231cH
	DD	07010001dH
	DD	0500fH
xdata	ENDS
;	COMDAT xdata
xdata	SEGMENT
$unwind$??$?0D@?$allocator@U_Container_proxy@std@@@std@@QEAA@AEBV?$allocator@D@1@@Z DD 025051801H
	DD	01132318H
	DD	0700c001dH
	DD	0500bH
xdata	ENDS
;	COMDAT xdata
xdata	SEGMENT
$unwind$??$_Convert_size@_K_K@std@@YA_K_K@Z DD 025051301H
	DD	010e2313H
	DD	07007001dH
	DD	05006H
xdata	ENDS
;	COMDAT xdata
xdata	SEGMENT
$unwind$??$_Delete_plain_internal@V?$allocator@U_Container_proxy@std@@@std@@@std@@YAXAEAV?$allocator@U_Container_proxy@std@@@0@QEAU_Container_proxy@0@@Z DD 025051801H
	DD	01132318H
	DD	0700c001dH
	DD	0500bH
xdata	ENDS
;	COMDAT xdata
xdata	SEGMENT
$unwind$?allocate@?$allocator@U_Container_proxy@std@@@std@@QEAAPEAU_Container_proxy@2@_K@Z DD 025051801H
	DD	01132318H
	DD	0700c001dH
	DD	0500bH
xdata	ENDS
;	COMDAT xdata
xdata	SEGMENT
$unwind$??$min@_K@std@@YAAEB_KAEB_K0@Z DD 025051801H
	DD	01132318H
	DD	0700c0021H
	DD	0500bH
xdata	ENDS
;	COMDAT xdata
xdata	SEGMENT
$unwind$??Bsentry@?$basic_ostream@DU?$char_traits@D@std@@@std@@QEBA_NXZ DD 025051301H
	DD	010e2313H
	DD	07007001dH
	DD	05006H
xdata	ENDS
;	COMDAT xdata
xdata	SEGMENT
$unwind$??1sentry@?$basic_ostream@DU?$char_traits@D@std@@@std@@QEAA@XZ DD 025051301H
	DD	010e2313H
	DD	070070021H
	DD	05006H
xdata	ENDS
;	COMDAT voltbl
voltbl	SEGMENT
_volmd	DB	00H
	DB	05H
voltbl	ENDS
;	COMDAT xdata
xdata	SEGMENT
$unwind$?dtor$0@?0???0sentry@?$basic_ostream@DU?$char_traits@D@std@@@std@@QEAA@AEAV12@@Z@4HA DD 031001H
	DD	0700c4210H
	DD	0500bH
xdata	ENDS
;	COMDAT xdata
xdata	SEGMENT
$ip2state$??0sentry@?$basic_ostream@DU?$char_traits@D@std@@@std@@QEAA@AEAV12@@Z DB 06H
	DB	00H
	DB	00H
	DB	'p'
	DB	02H
	DB	0f1H, 02H
	DB	00H
xdata	ENDS
;	COMDAT xdata
xdata	SEGMENT
$stateUnwindMap$??0sentry@?$basic_ostream@DU?$char_traits@D@std@@@std@@QEAA@AEAV12@@Z DB 02H
	DB	0eH
	DD	imagerel ?dtor$0@?0???0sentry@?$basic_ostream@DU?$char_traits@D@std@@@std@@QEAA@AEAV12@@Z@4HA
xdata	ENDS
;	COMDAT xdata
xdata	SEGMENT
$cppxdata$??0sentry@?$basic_ostream@DU?$char_traits@D@std@@@std@@QEAA@AEAV12@@Z DB 028H
	DD	imagerel $stateUnwindMap$??0sentry@?$basic_ostream@DU?$char_traits@D@std@@@std@@QEAA@AEAV12@@Z
	DD	imagerel $ip2state$??0sentry@?$basic_ostream@DU?$char_traits@D@std@@@std@@QEAA@AEAV12@@Z
xdata	ENDS
;	COMDAT xdata
xdata	SEGMENT
$unwind$??0sentry@?$basic_ostream@DU?$char_traits@D@std@@@std@@QEAA@AEAV12@@Z DD 025051811H
	DD	01132318H
	DD	0700c0021H
	DD	0500bH
	DD	imagerel __CxxFrameHandler4
	DD	imagerel $cppxdata$??0sentry@?$basic_ostream@DU?$char_traits@D@std@@@std@@QEAA@AEAV12@@Z
xdata	ENDS
;	COMDAT xdata
xdata	SEGMENT
$ip2state$??1_Sentry_base@?$basic_ostream@DU?$char_traits@D@std@@@std@@QEAA@XZ DB 02H
	DB	00H
	DB	00H
xdata	ENDS
;	COMDAT xdata
xdata	SEGMENT
$cppxdata$??1_Sentry_base@?$basic_ostream@DU?$char_traits@D@std@@@std@@QEAA@XZ DB 060H
	DD	imagerel $ip2state$??1_Sentry_base@?$basic_ostream@DU?$char_traits@D@std@@@std@@QEAA@XZ
xdata	ENDS
;	COMDAT xdata
xdata	SEGMENT
$unwind$??1_Sentry_base@?$basic_ostream@DU?$char_traits@D@std@@@std@@QEAA@XZ DD 025051319H
	DD	010e2313H
	DD	070070021H
	DD	05006H
	DD	imagerel __CxxFrameHandler4
	DD	imagerel $cppxdata$??1_Sentry_base@?$basic_ostream@DU?$char_traits@D@std@@@std@@QEAA@XZ
xdata	ENDS
;	COMDAT xdata
xdata	SEGMENT
$unwind$??0_Sentry_base@?$basic_ostream@DU?$char_traits@D@std@@@std@@QEAA@AEAV12@@Z DD 025051801H
	DD	01132318H
	DD	0700c0021H
	DD	0500bH
xdata	ENDS
;	COMDAT xdata
xdata	SEGMENT
$unwind$??$?6DU?$char_traits@D@std@@V?$allocator@D@1@@std@@YAAEAV?$basic_ostream@DU?$char_traits@D@std@@@0@AEAV10@AEBV?$basic_string@DU?$char_traits@D@std@@V?$allocator@D@2@@0@@Z DD 025051801H
	DD	01132318H
	DD	0700c001fH
	DD	0500bH
xdata	ENDS
;	COMDAT voltbl
voltbl	SEGMENT
_volmd	DB	00H
	DB	05H
voltbl	ENDS
;	COMDAT voltbl
voltbl	SEGMENT
_volmd	DW	02aH
	DW	04aeH
voltbl	ENDS
;	COMDAT xdata
xdata	SEGMENT
$unwind$main$dtor$0 DD 031001H
	DD	0700c4210H
	DD	0500bH
xdata	ENDS
;	COMDAT xdata
xdata	SEGMENT
$ip2state$main DB 06H
	DB	00H
	DB	00H
	DB	01dH, 05H
	DB	02H
	DB	09cH
	DB	00H
xdata	ENDS
;	COMDAT xdata
xdata	SEGMENT
$stateUnwindMap$main DB 02H
	DB	0eH
	DD	imagerel main$dtor$0
xdata	ENDS
;	COMDAT xdata
xdata	SEGMENT
$cppxdata$main DB 028H
	DD	imagerel $stateUnwindMap$main
	DD	imagerel $ip2state$main
xdata	ENDS
;	COMDAT xdata
xdata	SEGMENT
$unwind$main DD	025053119H
	DD	010a230fH
	DD	070030053H
	DD	05002H
	DD	imagerel __GSHandlerCheck_EH4
	DD	imagerel $cppxdata$main
	DD	028aH
xdata	ENDS
;	COMDAT CONST
CONST	SEGMENT
main$rtcName$0 DB 064H
	DB	061H
	DB	074H
	DB	065H
	DB	00H
	ORG $+3
main$rtcName$1 DB 069H
	DB	06eH
	DB	064H
	DB	00H
	ORG $+4
main$rtcName$2 DB 063H
	DB	075H
	DB	072H
	DB	072H
	DB	065H
	DB	06eH
	DB	074H
	DB	054H
	DB	069H
	DB	06dH
	DB	065H
	DB	00H
	ORG $+4
main$rtcVarDesc DD 0128H
	DD	08H
	DQ	FLAT:main$rtcName$2
	DD	0a4H
	DD	04H
	DQ	FLAT:main$rtcName$1
	DD	024H
	DD	04H
	DQ	FLAT:main$rtcName$0
	ORG $+144
main$rtcFrameData DD 03H
	DD	00H
	DQ	FLAT:main$rtcVarDesc
CONST	ENDS
;	COMDAT xdata
xdata	SEGMENT
$unwind$?calculateHourDiff@@YAHHHH@Z DD 025051b01H
	DD	0116231bH
	DD	0700f0021H
	DD	0500eH
xdata	ENDS
;	COMDAT xdata
xdata	SEGMENT
$unwind$?secondDayNumber@@YAHHHH_N@Z DD 025053801H
	DD	011b2320H
	DD	07014002fH
	DD	05013H
xdata	ENDS
;	COMDAT CONST
CONST	SEGMENT
?secondDayNumber@@YAHHHH_N@Z$rtcName$0 DB 06dH		; secondDayNumber
	DB	06fH
	DB	06eH
	DB	074H
	DB	068H
	DB	073H
	DB	06eH
	DB	06fH
	DB	06cH
	DB	065H
	DB	061H
	DB	070H
	DB	00H
	ORG $+3
?secondDayNumber@@YAHHHH_N@Z$rtcVarDesc DD 048H		; secondDayNumber
	DD	030H
	DQ	FLAT:?secondDayNumber@@YAHHHH_N@Z$rtcName$0
	ORG $+48
?secondDayNumber@@YAHHHH_N@Z$rtcFrameData DD 01H	; secondDayNumber
	DD	00H
	DQ	FLAT:?secondDayNumber@@YAHHHH_N@Z$rtcVarDesc
CONST	ENDS
;	COMDAT xdata
xdata	SEGMENT
$unwind$??$endl@DU?$char_traits@D@std@@@std@@YAAEAV?$basic_ostream@DU?$char_traits@D@std@@@0@AEAV10@@Z DD 025051301H
	DD	010e2313H
	DD	07007001dH
	DD	05006H
xdata	ENDS
;	COMDAT voltbl
voltbl	SEGMENT
_volmd	DB	00H
	DB	05H
voltbl	ENDS
;	COMDAT voltbl
voltbl	SEGMENT
_volmd	DB	00H
	DB	05H
voltbl	ENDS
;	COMDAT voltbl
voltbl	SEGMENT
_volmd	DW	03bH
	DW	03c6H
voltbl	ENDS
;	COMDAT xdata
xdata	SEGMENT
$unwind$?catch$1@?0???$?6U?$char_traits@D@std@@@std@@YAAEAV?$basic_ostream@DU?$char_traits@D@std@@@0@AEAV10@PEBD@Z@4HA DD 031001H
	DD	0700c4210H
	DD	0500bH
xdata	ENDS
;	COMDAT xdata
xdata	SEGMENT
$unwind$?dtor$0@?0???$?6U?$char_traits@D@std@@@std@@YAAEAV?$basic_ostream@DU?$char_traits@D@std@@@0@AEAV10@PEBD@Z@4HA DD 031001H
	DD	0700c4210H
	DD	0500bH
xdata	ENDS
;	COMDAT xdata
xdata	SEGMENT
$ip2state$??$?6U?$char_traits@D@std@@@std@@YAAEAV?$basic_ostream@DU?$char_traits@D@std@@@0@AEAV10@PEBD@Z DB 0aH
	DB	00H
	DB	00H
	DB	'A', 04H
	DB	02H
	DB	'<'
	DB	04H
	DB	0e1H, 08H
	DB	02H
	DB	't'
	DB	00H
xdata	ENDS
;	COMDAT xdata
xdata	SEGMENT
$handlerMap$??$?6U?$char_traits@D@std@@@std@@YAAEAV?$basic_ostream@DU?$char_traits@D@std@@@0@AEAV10@PEBD@Z DB 02H
	DB	01H
	DB	080H
	DD	imagerel ?catch$1@?0???$?6U?$char_traits@D@std@@@std@@YAAEAV?$basic_ostream@DU?$char_traits@D@std@@@0@AEAV10@PEBD@Z@4HA
xdata	ENDS
;	COMDAT xdata
xdata	SEGMENT
$tryMap$??$?6U?$char_traits@D@std@@@std@@YAAEAV?$basic_ostream@DU?$char_traits@D@std@@@0@AEAV10@PEBD@Z DB 02H
	DB	02H
	DB	02H
	DB	04H
	DD	imagerel $handlerMap$??$?6U?$char_traits@D@std@@@std@@YAAEAV?$basic_ostream@DU?$char_traits@D@std@@@0@AEAV10@PEBD@Z
xdata	ENDS
;	COMDAT xdata
xdata	SEGMENT
$stateUnwindMap$??$?6U?$char_traits@D@std@@@std@@YAAEAV?$basic_ostream@DU?$char_traits@D@std@@@0@AEAV10@PEBD@Z DB 06H
	DB	0eH
	DD	imagerel ?dtor$0@?0???$?6U?$char_traits@D@std@@@std@@YAAEAV?$basic_ostream@DU?$char_traits@D@std@@@0@AEAV10@PEBD@Z@4HA
	DB	028H
	DB	030H
xdata	ENDS
;	COMDAT xdata
xdata	SEGMENT
$cppxdata$??$?6U?$char_traits@D@std@@@std@@YAAEAV?$basic_ostream@DU?$char_traits@D@std@@@0@AEAV10@PEBD@Z DB 038H
	DD	imagerel $stateUnwindMap$??$?6U?$char_traits@D@std@@@std@@YAAEAV?$basic_ostream@DU?$char_traits@D@std@@@0@AEAV10@PEBD@Z
	DD	imagerel $tryMap$??$?6U?$char_traits@D@std@@@std@@YAAEAV?$basic_ostream@DU?$char_traits@D@std@@@0@AEAV10@PEBD@Z
	DD	imagerel $ip2state$??$?6U?$char_traits@D@std@@@std@@YAAEAV?$basic_ostream@DU?$char_traits@D@std@@@0@AEAV10@PEBD@Z
xdata	ENDS
;	COMDAT xdata
xdata	SEGMENT
$unwind$??$?6U?$char_traits@D@std@@@std@@YAAEAV?$basic_ostream@DU?$char_traits@D@std@@@0@AEAV10@PEBD@Z DD 025054219H
	DD	01132318H
	DD	0700c0045H
	DD	0500bH
	DD	imagerel __GSHandlerCheck_EH4
	DD	imagerel $cppxdata$??$?6U?$char_traits@D@std@@@std@@YAAEAV?$basic_ostream@DU?$char_traits@D@std@@@0@AEAV10@PEBD@Z
	DD	0213H
xdata	ENDS
;	COMDAT CONST
CONST	SEGMENT
??$?6U?$char_traits@D@std@@@std@@YAAEAV?$basic_ostream@DU?$char_traits@D@std@@@0@AEAV10@PEBD@Z$rtcName$0 DB 05fH ; std::operator<<<std::char_traits<char> >
	DB	04fH
	DB	06bH
	DB	00H
	ORG $+12
??$?6U?$char_traits@D@std@@@std@@YAAEAV?$basic_ostream@DU?$char_traits@D@std@@@0@AEAV10@PEBD@Z$rtcVarDesc DD 088H ; std::operator<<<std::char_traits<char> >
	DD	010H
	DQ	FLAT:??$?6U?$char_traits@D@std@@@std@@YAAEAV?$basic_ostream@DU?$char_traits@D@std@@@0@AEAV10@PEBD@Z$rtcName$0
	ORG $+48
??$?6U?$char_traits@D@std@@@std@@YAAEAV?$basic_ostream@DU?$char_traits@D@std@@@0@AEAV10@PEBD@Z$rtcFrameData DD 01H ; std::operator<<<std::char_traits<char> >
	DD	00H
	DQ	FLAT:??$?6U?$char_traits@D@std@@@std@@YAAEAV?$basic_ostream@DU?$char_traits@D@std@@@0@AEAV10@PEBD@Z$rtcVarDesc
CONST	ENDS
;	COMDAT xdata
xdata	SEGMENT
$unwind$?holiday@@YAXH_NH@Z DD 025053301H
	DD	0116231bH
	DD	0700f0043H
	DD	0500eH
xdata	ENDS
;	COMDAT CONST
CONST	SEGMENT
?holiday@@YAXH_NH@Z$rtcName$0 DB 06dH			; holiday
	DB	06fH
	DB	06eH
	DB	074H
	DB	068H
	DB	00H
	ORG $+2
?holiday@@YAXH_NH@Z$rtcName$1 DB 064H			; holiday
	DB	061H
	DB	079H
	DB	00H
	ORG $+4
?holiday@@YAXH_NH@Z$rtcName$2 DB 06dH			; holiday
	DB	06fH
	DB	06eH
	DB	074H
	DB	068H
	DB	073H
	DB	065H
	DB	073H
	DB	00H
	ORG $+7
?holiday@@YAXH_NH@Z$rtcVarDesc DD 088H			; holiday
	DD	030H
	DQ	FLAT:?holiday@@YAXH_NH@Z$rtcName$2
	ORG $+48
?holiday@@YAXH_NH@Z$rtcFrameData DD 01H			; holiday
	DD	00H
	DQ	FLAT:?holiday@@YAXH_NH@Z$rtcVarDesc
CONST	ENDS
;	COMDAT voltbl
voltbl	SEGMENT
_volmd	DB	00H
	DB	05H
voltbl	ENDS
;	COMDAT voltbl
voltbl	SEGMENT
_volmd	DB	00H
	DB	05H
voltbl	ENDS
;	COMDAT voltbl
voltbl	SEGMENT
_volmd	DB	00H
	DB	05H
voltbl	ENDS
;	COMDAT voltbl
voltbl	SEGMENT
_volmd	DB	00H
	DB	05H
voltbl	ENDS
;	COMDAT voltbl
voltbl	SEGMENT
_volmd	DB	00H
	DB	05H
voltbl	ENDS
;	COMDAT voltbl
voltbl	SEGMENT
_volmd	DB	00H
	DB	05H
voltbl	ENDS
;	COMDAT voltbl
voltbl	SEGMENT
_volmd	DB	00H
	DB	05H
voltbl	ENDS
;	COMDAT voltbl
voltbl	SEGMENT
_volmd	DB	00H
	DB	05H
voltbl	ENDS
;	COMDAT voltbl
voltbl	SEGMENT
_volmd	DB	00H
	DB	05H
voltbl	ENDS
;	COMDAT voltbl
voltbl	SEGMENT
_volmd	DB	00H
	DB	05H
voltbl	ENDS
;	COMDAT voltbl
voltbl	SEGMENT
_volmd	DB	00H
	DB	05H
voltbl	ENDS
;	COMDAT voltbl
voltbl	SEGMENT
_volmd	DB	00H
	DB	05H
voltbl	ENDS
;	COMDAT voltbl
voltbl	SEGMENT
_volmd	DB	00H
	DB	05H
voltbl	ENDS
;	COMDAT voltbl
voltbl	SEGMENT
_volmd	DW	03aH
	DW	01a7H
voltbl	ENDS
;	COMDAT xdata
xdata	SEGMENT
$unwind$?dtor$13@?0??mont@@YA?AV?$basic_string@DU?$char_traits@D@std@@V?$allocator@D@2@@std@@H@Z@4HA DD 031001H
	DD	0700c4210H
	DD	0500bH
xdata	ENDS
;	COMDAT xdata
xdata	SEGMENT
$unwind$?dtor$12@?0??mont@@YA?AV?$basic_string@DU?$char_traits@D@std@@V?$allocator@D@2@@std@@H@Z@4HA DD 031001H
	DD	0700c4210H
	DD	0500bH
xdata	ENDS
;	COMDAT xdata
xdata	SEGMENT
$unwind$?dtor$10@?0??mont@@YA?AV?$basic_string@DU?$char_traits@D@std@@V?$allocator@D@2@@std@@H@Z@4HA DD 031001H
	DD	0700c4210H
	DD	0500bH
xdata	ENDS
;	COMDAT xdata
xdata	SEGMENT
$unwind$?dtor$9@?0??mont@@YA?AV?$basic_string@DU?$char_traits@D@std@@V?$allocator@D@2@@std@@H@Z@4HA DD 031001H
	DD	0700c4210H
	DD	0500bH
xdata	ENDS
;	COMDAT xdata
xdata	SEGMENT
$unwind$?dtor$8@?0??mont@@YA?AV?$basic_string@DU?$char_traits@D@std@@V?$allocator@D@2@@std@@H@Z@4HA DD 031001H
	DD	0700c4210H
	DD	0500bH
xdata	ENDS
;	COMDAT xdata
xdata	SEGMENT
$unwind$?dtor$7@?0??mont@@YA?AV?$basic_string@DU?$char_traits@D@std@@V?$allocator@D@2@@std@@H@Z@4HA DD 031001H
	DD	0700c4210H
	DD	0500bH
xdata	ENDS
;	COMDAT xdata
xdata	SEGMENT
$unwind$?dtor$6@?0??mont@@YA?AV?$basic_string@DU?$char_traits@D@std@@V?$allocator@D@2@@std@@H@Z@4HA DD 031001H
	DD	0700c4210H
	DD	0500bH
xdata	ENDS
;	COMDAT xdata
xdata	SEGMENT
$unwind$?dtor$5@?0??mont@@YA?AV?$basic_string@DU?$char_traits@D@std@@V?$allocator@D@2@@std@@H@Z@4HA DD 031001H
	DD	0700c4210H
	DD	0500bH
xdata	ENDS
;	COMDAT xdata
xdata	SEGMENT
$unwind$?dtor$4@?0??mont@@YA?AV?$basic_string@DU?$char_traits@D@std@@V?$allocator@D@2@@std@@H@Z@4HA DD 031001H
	DD	0700c4210H
	DD	0500bH
xdata	ENDS
;	COMDAT xdata
xdata	SEGMENT
$unwind$?dtor$3@?0??mont@@YA?AV?$basic_string@DU?$char_traits@D@std@@V?$allocator@D@2@@std@@H@Z@4HA DD 031001H
	DD	0700c4210H
	DD	0500bH
xdata	ENDS
;	COMDAT xdata
xdata	SEGMENT
$unwind$?dtor$2@?0??mont@@YA?AV?$basic_string@DU?$char_traits@D@std@@V?$allocator@D@2@@std@@H@Z@4HA DD 031001H
	DD	0700c4210H
	DD	0500bH
xdata	ENDS
;	COMDAT xdata
xdata	SEGMENT
$unwind$?dtor$1@?0??mont@@YA?AV?$basic_string@DU?$char_traits@D@std@@V?$allocator@D@2@@std@@H@Z@4HA DD 031001H
	DD	0700c4210H
	DD	0500bH
xdata	ENDS
;	COMDAT xdata
xdata	SEGMENT
$unwind$?dtor$0@?0??mont@@YA?AV?$basic_string@DU?$char_traits@D@std@@V?$allocator@D@2@@std@@H@Z@4HA DD 031001H
	DD	0700c4210H
	DD	0500bH
xdata	ENDS
;	COMDAT xdata
xdata	SEGMENT
$ip2state$?mont@@YA?AV?$basic_string@DU?$char_traits@D@std@@V?$allocator@D@2@@std@@H@Z DB 01cH
	DB	00H
	DB	00H
	DB	0d0H
	DB	04H
	DB	'"'
	DB	06H
	DB	'"'
	DB	08H
	DB	'('
	DB	0aH
	DB	'('
	DB	0cH
	DB	'('
	DB	0eH
	DB	'('
	DB	010H
	DB	'('
	DB	012H
	DB	'('
	DB	014H
	DB	'('
	DB	016H
	DB	'('
	DB	018H
	DB	'('
	DB	01aH
	DB	'b'
	DB	02H
xdata	ENDS
;	COMDAT xdata
xdata	SEGMENT
$stateUnwindMap$?mont@@YA?AV?$basic_string@DU?$char_traits@D@std@@V?$allocator@D@2@@std@@H@Z DB 01aH
	DB	0eH
	DD	imagerel ?dtor$13@?0??mont@@YA?AV?$basic_string@DU?$char_traits@D@std@@V?$allocator@D@2@@std@@H@Z@4HA
	DB	02eH
	DD	imagerel ?dtor$0@?0??mont@@YA?AV?$basic_string@DU?$char_traits@D@std@@V?$allocator@D@2@@std@@H@Z@4HA
	DB	02eH
	DD	imagerel ?dtor$1@?0??mont@@YA?AV?$basic_string@DU?$char_traits@D@std@@V?$allocator@D@2@@std@@H@Z@4HA
	DB	02eH
	DD	imagerel ?dtor$2@?0??mont@@YA?AV?$basic_string@DU?$char_traits@D@std@@V?$allocator@D@2@@std@@H@Z@4HA
	DB	02eH
	DD	imagerel ?dtor$3@?0??mont@@YA?AV?$basic_string@DU?$char_traits@D@std@@V?$allocator@D@2@@std@@H@Z@4HA
	DB	02eH
	DD	imagerel ?dtor$4@?0??mont@@YA?AV?$basic_string@DU?$char_traits@D@std@@V?$allocator@D@2@@std@@H@Z@4HA
	DB	02eH
	DD	imagerel ?dtor$5@?0??mont@@YA?AV?$basic_string@DU?$char_traits@D@std@@V?$allocator@D@2@@std@@H@Z@4HA
	DB	02eH
	DD	imagerel ?dtor$6@?0??mont@@YA?AV?$basic_string@DU?$char_traits@D@std@@V?$allocator@D@2@@std@@H@Z@4HA
	DB	02eH
	DD	imagerel ?dtor$7@?0??mont@@YA?AV?$basic_string@DU?$char_traits@D@std@@V?$allocator@D@2@@std@@H@Z@4HA
	DB	02eH
	DD	imagerel ?dtor$8@?0??mont@@YA?AV?$basic_string@DU?$char_traits@D@std@@V?$allocator@D@2@@std@@H@Z@4HA
	DB	02eH
	DD	imagerel ?dtor$9@?0??mont@@YA?AV?$basic_string@DU?$char_traits@D@std@@V?$allocator@D@2@@std@@H@Z@4HA
	DB	02eH
	DD	imagerel ?dtor$10@?0??mont@@YA?AV?$basic_string@DU?$char_traits@D@std@@V?$allocator@D@2@@std@@H@Z@4HA
	DB	0cdH
	DB	03H
	DD	imagerel ?dtor$12@?0??mont@@YA?AV?$basic_string@DU?$char_traits@D@std@@V?$allocator@D@2@@std@@H@Z@4HA
xdata	ENDS
;	COMDAT xdata
xdata	SEGMENT
$cppxdata$?mont@@YA?AV?$basic_string@DU?$char_traits@D@std@@V?$allocator@D@2@@std@@H@Z DB 028H
	DD	imagerel $stateUnwindMap$?mont@@YA?AV?$basic_string@DU?$char_traits@D@std@@V?$allocator@D@2@@std@@H@Z
	DD	imagerel $ip2state$?mont@@YA?AV?$basic_string@DU?$char_traits@D@std@@V?$allocator@D@2@@std@@H@Z
xdata	ENDS
;	COMDAT xdata
xdata	SEGMENT
$unwind$?mont@@YA?AV?$basic_string@DU?$char_traits@D@std@@V?$allocator@D@2@@std@@H@Z DD 025054119H
	DD	01122317H
	DD	0700b0079H
	DD	0500aH
	DD	imagerel __GSHandlerCheck_EH4
	DD	imagerel $cppxdata$?mont@@YA?AV?$basic_string@DU?$char_traits@D@std@@V?$allocator@D@2@@std@@H@Z
	DD	03baH
xdata	ENDS
;	COMDAT CONST
CONST	SEGMENT
?mont@@YA?AV?$basic_string@DU?$char_traits@D@std@@V?$allocator@D@2@@std@@H@Z$rtcName$0 DB 06dH ; mont
	DB	06fH
	DB	06eH
	DB	074H
	DB	068H
	DB	073H
	DB	065H
	DB	073H
	DB	073H
	DB	00H
	ORG $+6
?mont@@YA?AV?$basic_string@DU?$char_traits@D@std@@V?$allocator@D@2@@std@@H@Z$rtcVarDesc DD 030H ; mont
	DD	01e0H
	DQ	FLAT:?mont@@YA?AV?$basic_string@DU?$char_traits@D@std@@V?$allocator@D@2@@std@@H@Z$rtcName$0
	ORG $+48
?mont@@YA?AV?$basic_string@DU?$char_traits@D@std@@V?$allocator@D@2@@std@@H@Z$rtcFrameData DD 01H ; mont
	DD	00H
	DQ	FLAT:?mont@@YA?AV?$basic_string@DU?$char_traits@D@std@@V?$allocator@D@2@@std@@H@Z$rtcVarDesc
CONST	ENDS
;	COMDAT xdata
xdata	SEGMENT
$unwind$time DD	025051301H
	DD	010e2313H
	DD	07007001dH
	DD	05006H
xdata	ENDS
;	COMDAT xdata
xdata	SEGMENT
$unwind$localtime DD 025051301H
	DD	010e2313H
	DD	07007001dH
	DD	05006H
xdata	ENDS
;	COMDAT xdata
xdata	SEGMENT
$unwind$??1?$_Compressed_pair@V?$allocator@D@std@@V?$_String_val@U?$_Simple_types@D@std@@@2@$00@std@@QEAA@XZ DD 025051301H
	DD	010e2313H
	DD	07007001dH
	DD	05006H
xdata	ENDS
;	COMDAT xdata
xdata	SEGMENT
$unwind$?_Get_first@?$_Compressed_pair@V?$allocator@D@std@@V?$_String_val@U?$_Simple_types@D@std@@@2@$00@std@@QEBAAEBV?$allocator@D@2@XZ DD 025051301H
	DD	010e2313H
	DD	07007001dH
	DD	05006H
xdata	ENDS
;	COMDAT xdata
xdata	SEGMENT
$unwind$?_Get_first@?$_Compressed_pair@V?$allocator@D@std@@V?$_String_val@U?$_Simple_types@D@std@@@2@$00@std@@QEAAAEAV?$allocator@D@2@XZ DD 025051301H
	DD	010e2313H
	DD	07007001dH
	DD	05006H
xdata	ENDS
;	COMDAT xdata
xdata	SEGMENT
$unwind$?_Getal@?$basic_string@DU?$char_traits@D@std@@V?$allocator@D@2@@std@@AEBAAEBV?$allocator@D@2@XZ DD 025051301H
	DD	010e2313H
	DD	07007001dH
	DD	05006H
xdata	ENDS
;	COMDAT xdata
xdata	SEGMENT
$unwind$?_Getal@?$basic_string@DU?$char_traits@D@std@@V?$allocator@D@2@@std@@AEAAAEAV?$allocator@D@2@XZ DD 025051301H
	DD	010e2313H
	DD	07007001dH
	DD	05006H
xdata	ENDS
;	COMDAT xdata
xdata	SEGMENT
$ip2state$?_Tidy_deallocate@?$basic_string@DU?$char_traits@D@std@@V?$allocator@D@2@@std@@AEAAXXZ DB 02H
	DB	00H
	DB	00H
xdata	ENDS
;	COMDAT xdata
xdata	SEGMENT
$cppxdata$?_Tidy_deallocate@?$basic_string@DU?$char_traits@D@std@@V?$allocator@D@2@@std@@AEAAXXZ DB 060H
	DD	imagerel $ip2state$?_Tidy_deallocate@?$basic_string@DU?$char_traits@D@std@@V?$allocator@D@2@@std@@AEAAXXZ
xdata	ENDS
;	COMDAT xdata
xdata	SEGMENT
$unwind$?_Tidy_deallocate@?$basic_string@DU?$char_traits@D@std@@V?$allocator@D@2@@std@@AEAAXXZ DD 025051319H
	DD	010e2313H
	DD	07007002dH
	DD	05006H
	DD	imagerel __CxxFrameHandler4
	DD	imagerel $cppxdata$?_Tidy_deallocate@?$basic_string@DU?$char_traits@D@std@@V?$allocator@D@2@@std@@AEAAXXZ
xdata	ENDS
;	COMDAT xdata
xdata	SEGMENT
$unwind$?_Calculate_growth@?$basic_string@DU?$char_traits@D@std@@V?$allocator@D@2@@std@@AEBA_K_K@Z DD 025051801H
	DD	01132318H
	DD	0700c001dH
	DD	0500bH
xdata	ENDS
;	COMDAT voltbl
voltbl	SEGMENT
_volmd	DB	040H
	DB	0f6H
voltbl	ENDS
;	COMDAT xdata
xdata	SEGMENT
$unwind$?_Calculate_growth@?$basic_string@DU?$char_traits@D@std@@V?$allocator@D@2@@std@@CA_K_K00@Z DD 025054719H
	DD	0118231dH
	DD	070110025H
	DD	05010H
	DD	imagerel __GSHandlerCheck
	DD	0118H
xdata	ENDS
;	COMDAT CONST
CONST	SEGMENT
?_Calculate_growth@?$basic_string@DU?$char_traits@D@std@@V?$allocator@D@2@@std@@CA_K_K00@Z$rtcName$0 DB 05fH ; std::basic_string<char,std::char_traits<char>,std::allocator<char> >::_Calculate_growth
	DB	04dH
	DB	061H
	DB	073H
	DB	06bH
	DB	065H
	DB	064H
	DB	00H
	ORG $+8
?_Calculate_growth@?$basic_string@DU?$char_traits@D@std@@V?$allocator@D@2@@std@@CA_K_K00@Z$rtcVarDesc DD 028H ; std::basic_string<char,std::char_traits<char>,std::allocator<char> >::_Calculate_growth
	DD	08H
	DQ	FLAT:?_Calculate_growth@?$basic_string@DU?$char_traits@D@std@@V?$allocator@D@2@@std@@CA_K_K00@Z$rtcName$0
	ORG $+48
?_Calculate_growth@?$basic_string@DU?$char_traits@D@std@@V?$allocator@D@2@@std@@CA_K_K00@Z$rtcFrameData DD 01H ; std::basic_string<char,std::char_traits<char>,std::allocator<char> >::_Calculate_growth
	DD	00H
	DQ	FLAT:?_Calculate_growth@?$basic_string@DU?$char_traits@D@std@@V?$allocator@D@2@@std@@CA_K_K00@Z$rtcVarDesc
CONST	ENDS
;	COMDAT voltbl
voltbl	SEGMENT
_volmd	DB	036H
	DB	0c9H
voltbl	ENDS
;	COMDAT xdata
xdata	SEGMENT
$unwind$?max_size@?$basic_string@DU?$char_traits@D@std@@V?$allocator@D@2@@std@@QEBA_KXZ DD 025053d19H
	DD	010e2313H
	DD	070070031H
	DD	05006H
	DD	imagerel __GSHandlerCheck
	DD	0178H
xdata	ENDS
;	COMDAT CONST
CONST	SEGMENT
?max_size@?$basic_string@DU?$char_traits@D@std@@V?$allocator@D@2@@std@@QEBA_KXZ$rtcName$0 DB 05fH ; std::basic_string<char,std::char_traits<char>,std::allocator<char> >::max_size
	DB	041H
	DB	06cH
	DB	06cH
	DB	06fH
	DB	063H
	DB	05fH
	DB	06dH
	DB	061H
	DB	078H
	DB	00H
	ORG $+5
?max_size@?$basic_string@DU?$char_traits@D@std@@V?$allocator@D@2@@std@@QEBA_KXZ$rtcVarDesc DD 028H ; std::basic_string<char,std::char_traits<char>,std::allocator<char> >::max_size
	DD	08H
	DQ	FLAT:?max_size@?$basic_string@DU?$char_traits@D@std@@V?$allocator@D@2@@std@@QEBA_KXZ$rtcName$0
	ORG $+48
?max_size@?$basic_string@DU?$char_traits@D@std@@V?$allocator@D@2@@std@@QEBA_KXZ$rtcFrameData DD 01H ; std::basic_string<char,std::char_traits<char>,std::allocator<char> >::max_size
	DD	00H
	DQ	FLAT:?max_size@?$basic_string@DU?$char_traits@D@std@@V?$allocator@D@2@@std@@QEBA_KXZ$rtcVarDesc
CONST	ENDS
;	COMDAT xdata
xdata	SEGMENT
$unwind$?size@?$basic_string@DU?$char_traits@D@std@@V?$allocator@D@2@@std@@QEBA_KXZ DD 025051301H
	DD	010e2313H
	DD	07007001dH
	DD	05006H
xdata	ENDS
;	COMDAT xdata
xdata	SEGMENT
$unwind$?data@?$basic_string@DU?$char_traits@D@std@@V?$allocator@D@2@@std@@QEBAPEBDXZ DD 025051301H
	DD	010e2313H
	DD	07007001dH
	DD	05006H
xdata	ENDS
;	COMDAT voltbl
voltbl	SEGMENT
_volmd	DB	036H
	DB	0bdH
voltbl	ENDS
;	COMDAT xdata
xdata	SEGMENT
$unwind$??1?$basic_string@DU?$char_traits@D@std@@V?$allocator@D@2@@std@@QEAA@XZ DD 025053d19H
	DD	010e2313H
	DD	070070029H
	DD	05006H
	DD	imagerel __GSHandlerCheck
	DD	0138H
xdata	ENDS
;	COMDAT CONST
CONST	SEGMENT
??1?$basic_string@DU?$char_traits@D@std@@V?$allocator@D@2@@std@@QEAA@XZ$rtcName$0 DB 024H ; std::basic_string<char,std::char_traits<char>,std::allocator<char> >::~basic_string<char,std::char_traits<char>,std::allocator<char> >
	DB	053H
	DB	034H
	DB	00H
	ORG $+12
??1?$basic_string@DU?$char_traits@D@std@@V?$allocator@D@2@@std@@QEAA@XZ$rtcVarDesc DD 044H ; std::basic_string<char,std::char_traits<char>,std::allocator<char> >::~basic_string<char,std::char_traits<char>,std::allocator<char> >
	DD	01H
	DQ	FLAT:??1?$basic_string@DU?$char_traits@D@std@@V?$allocator@D@2@@std@@QEAA@XZ$rtcName$0
	ORG $+48
??1?$basic_string@DU?$char_traits@D@std@@V?$allocator@D@2@@std@@QEAA@XZ$rtcFrameData DD 01H ; std::basic_string<char,std::char_traits<char>,std::allocator<char> >::~basic_string<char,std::char_traits<char>,std::allocator<char> >
	DD	00H
	DQ	FLAT:??1?$basic_string@DU?$char_traits@D@std@@V?$allocator@D@2@@std@@QEAA@XZ$rtcVarDesc
CONST	ENDS
;	COMDAT xdata
xdata	SEGMENT
$unwind$?_Start_element_lifetimes@?$basic_string@DU?$char_traits@D@std@@V?$allocator@D@2@@std@@CAXQEAD_K@Z DD 025051801H
	DD	01132318H
	DD	0700c001dH
	DD	0500bH
xdata	ENDS
;	COMDAT voltbl
voltbl	SEGMENT
_volmd	DB	00H
	DB	05H
voltbl	ENDS
;	COMDAT xdata
xdata	SEGMENT
$unwind$?dtor$0@?0???0?$basic_string@DU?$char_traits@D@std@@V?$allocator@D@2@@std@@QEAA@QEBD@Z@4HA DD 031001H
	DD	0700c4210H
	DD	0500bH
xdata	ENDS
;	COMDAT xdata
xdata	SEGMENT
$ip2state$??0?$basic_string@DU?$char_traits@D@std@@V?$allocator@D@2@@std@@QEAA@QEBD@Z DB 06H
	DB	00H
	DB	00H
	DB	'v'
	DB	02H
	DB	'V'
	DB	00H
xdata	ENDS
;	COMDAT xdata
xdata	SEGMENT
$stateUnwindMap$??0?$basic_string@DU?$char_traits@D@std@@V?$allocator@D@2@@std@@QEAA@QEBD@Z DB 02H
	DB	0eH
	DD	imagerel ?dtor$0@?0???0?$basic_string@DU?$char_traits@D@std@@V?$allocator@D@2@@std@@QEAA@QEBD@Z@4HA
xdata	ENDS
;	COMDAT xdata
xdata	SEGMENT
$cppxdata$??0?$basic_string@DU?$char_traits@D@std@@V?$allocator@D@2@@std@@QEAA@QEBD@Z DB 028H
	DD	imagerel $stateUnwindMap$??0?$basic_string@DU?$char_traits@D@std@@V?$allocator@D@2@@std@@QEAA@QEBD@Z
	DD	imagerel $ip2state$??0?$basic_string@DU?$char_traits@D@std@@V?$allocator@D@2@@std@@QEAA@QEBD@Z
xdata	ENDS
;	COMDAT xdata
xdata	SEGMENT
$unwind$??0?$basic_string@DU?$char_traits@D@std@@V?$allocator@D@2@@std@@QEAA@QEBD@Z DD 025051811H
	DD	01132318H
	DD	0700c0021H
	DD	0500bH
	DD	imagerel __CxxFrameHandler4
	DD	imagerel $cppxdata$??0?$basic_string@DU?$char_traits@D@std@@V?$allocator@D@2@@std@@QEAA@QEBD@Z
xdata	ENDS
;	COMDAT voltbl
voltbl	SEGMENT
_volmd	DB	00H
	DB	05H
voltbl	ENDS
;	COMDAT xdata
xdata	SEGMENT
$unwind$?dtor$0@?0???0?$basic_string@DU?$char_traits@D@std@@V?$allocator@D@2@@std@@QEAA@AEBV01@@Z@4HA DD 031001H
	DD	0700c4210H
	DD	0500bH
xdata	ENDS
;	COMDAT xdata
xdata	SEGMENT
$ip2state$??0?$basic_string@DU?$char_traits@D@std@@V?$allocator@D@2@@std@@QEAA@AEBV01@@Z DB 06H
	DB	00H
	DB	00H
	DB	0acH
	DB	02H
	DB	'T'
	DB	00H
xdata	ENDS
;	COMDAT xdata
xdata	SEGMENT
$stateUnwindMap$??0?$basic_string@DU?$char_traits@D@std@@V?$allocator@D@2@@std@@QEAA@AEBV01@@Z DB 02H
	DB	0eH
	DD	imagerel ?dtor$0@?0???0?$basic_string@DU?$char_traits@D@std@@V?$allocator@D@2@@std@@QEAA@AEBV01@@Z@4HA
xdata	ENDS
;	COMDAT xdata
xdata	SEGMENT
$cppxdata$??0?$basic_string@DU?$char_traits@D@std@@V?$allocator@D@2@@std@@QEAA@AEBV01@@Z DB 028H
	DD	imagerel $stateUnwindMap$??0?$basic_string@DU?$char_traits@D@std@@V?$allocator@D@2@@std@@QEAA@AEBV01@@Z
	DD	imagerel $ip2state$??0?$basic_string@DU?$char_traits@D@std@@V?$allocator@D@2@@std@@QEAA@AEBV01@@Z
xdata	ENDS
;	COMDAT xdata
xdata	SEGMENT
$unwind$??0?$basic_string@DU?$char_traits@D@std@@V?$allocator@D@2@@std@@QEAA@AEBV01@@Z DD 025051811H
	DD	01132318H
	DD	0700c0025H
	DD	0500bH
	DD	imagerel __CxxFrameHandler4
	DD	imagerel $cppxdata$??0?$basic_string@DU?$char_traits@D@std@@V?$allocator@D@2@@std@@QEAA@AEBV01@@Z
xdata	ENDS
;	COMDAT xdata
xdata	SEGMENT
$unwind$??1?$_String_val@U?$_Simple_types@D@std@@@std@@QEAA@XZ DD 025051301H
	DD	010e2313H
	DD	07007001dH
	DD	05006H
xdata	ENDS
;	COMDAT xdata
xdata	SEGMENT
$unwind$??1_Bxty@?$_String_val@U?$_Simple_types@D@std@@@std@@QEAA@XZ DD 025051301H
	DD	010e2313H
	DD	07007001dH
	DD	05006H
xdata	ENDS
;	COMDAT xdata
xdata	SEGMENT
$unwind$??0_Bxty@?$_String_val@U?$_Simple_types@D@std@@@std@@QEAA@XZ DD 025051301H
	DD	010e2313H
	DD	07007001dH
	DD	05006H
xdata	ENDS
;	COMDAT xdata
xdata	SEGMENT
$unwind$?_Activate_SSO_buffer@?$_String_val@U?$_Simple_types@D@std@@@std@@QEAAXXZ DD 025051301H
	DD	010e2313H
	DD	07007001dH
	DD	05006H
xdata	ENDS
;	COMDAT xdata
xdata	SEGMENT
$unwind$?_Large_string_engaged@?$_String_val@U?$_Simple_types@D@std@@@std@@QEBA_NXZ DD 025051301H
	DD	010e2313H
	DD	07007001fH
	DD	05006H
xdata	ENDS
;	COMDAT xdata
xdata	SEGMENT
$unwind$?_Myptr@?$_String_val@U?$_Simple_types@D@std@@@std@@QEBAPEBDXZ DD 025051301H
	DD	010e2313H
	DD	070070021H
	DD	05006H
xdata	ENDS
;	COMDAT xdata
xdata	SEGMENT
$unwind$??0?$_String_val@U?$_Simple_types@D@std@@@std@@QEAA@XZ DD 025051301H
	DD	010e2313H
	DD	07007001dH
	DD	05006H
xdata	ENDS
;	COMDAT xdata
xdata	SEGMENT
$unwind$?select_on_container_copy_construction@?$_Default_allocator_traits@V?$allocator@D@std@@@std@@SA?AV?$allocator@D@2@AEBV32@@Z DD 025051801H
	DD	01132318H
	DD	0700c001dH
	DD	0500bH
xdata	ENDS
;	COMDAT xdata
xdata	SEGMENT
$unwind$?max_size@?$_Default_allocator_traits@V?$allocator@D@std@@@std@@SA_KAEBV?$allocator@D@2@@Z DD 025051301H
	DD	010e2313H
	DD	07007001dH
	DD	05006H
xdata	ENDS
;	COMDAT xdata
xdata	SEGMENT
$unwind$?allocate@?$allocator@D@std@@QEAAPEAD_K@Z DD 025051801H
	DD	01132318H
	DD	0700c001dH
	DD	0500bH
xdata	ENDS
;	COMDAT xdata
xdata	SEGMENT
$unwind$?deallocate@?$allocator@D@std@@QEAAXQEAD_K@Z DD 035051d01H
	DD	0118331dH
	DD	07011001fH
	DD	05010H
xdata	ENDS
;	COMDAT xdata
xdata	SEGMENT
$unwind$??0?$allocator@D@std@@QEAA@XZ DD 025051301H
	DD	010e2313H
	DD	07007001dH
	DD	05006H
xdata	ENDS
;	COMDAT xdata
xdata	SEGMENT
$unwind$?_Xlen_string@std@@YAXXZ DD 025050f01H
	DD	010a230fH
	DD	07003001dH
	DD	05002H
xdata	ENDS
;	COMDAT xdata
xdata	SEGMENT
$unwind$?eof@?$_Narrow_char_traits@DH@std@@SAHXZ DD 025050f01H
	DD	010a230fH
	DD	07003001dH
	DD	05002H
xdata	ENDS
;	COMDAT xdata
xdata	SEGMENT
$unwind$?eq_int_type@?$_Narrow_char_traits@DH@std@@SA_NAEBH0@Z DD 025051801H
	DD	01132318H
	DD	0700c001fH
	DD	0500bH
xdata	ENDS
;	COMDAT xdata
xdata	SEGMENT
$unwind$?assign@?$_Narrow_char_traits@DH@std@@SAXAEADAEBD@Z DD 025051801H
	DD	01132318H
	DD	0700c001dH
	DD	0500bH
xdata	ENDS
;	COMDAT xdata
xdata	SEGMENT
$unwind$?length@?$_Narrow_char_traits@DH@std@@SA_KQEBD@Z DD 025051301H
	DD	010e2313H
	DD	07007001dH
	DD	05006H
xdata	ENDS
;	COMDAT xdata
xdata	SEGMENT
$unwind$?copy@?$_Char_traits@DH@std@@SAPEADQEADQEBD_K@Z DD 025051d01H
	DD	0118231dH
	DD	07011001dH
	DD	05010H
xdata	ENDS
;	COMDAT xdata
xdata	SEGMENT
$unwind$??$_Construct_in_place@U_Container_proxy@std@@PEAU_Container_base12@2@@std@@YAXAEAU_Container_proxy@0@$$QEAPEAU_Container_base12@0@@Z DD 025051801H
	DD	01132318H
	DD	0700c0021H
	DD	0500bH
xdata	ENDS
;	COMDAT xdata
xdata	SEGMENT
$unwind$??$addressof@U_Container_base12@std@@@std@@YAPEAU_Container_base12@0@AEAU10@@Z DD 025051301H
	DD	010e2313H
	DD	07007001dH
	DD	05006H
xdata	ENDS
;	COMDAT xdata
xdata	SEGMENT
$unwind$??0_Basic_container_proxy_ptr12@std@@IEAA@XZ DD 025051301H
	DD	010e2313H
	DD	07007001dH
	DD	05006H
xdata	ENDS
;	COMDAT xdata
xdata	SEGMENT
$unwind$?_Release@_Basic_container_proxy_ptr12@std@@QEAAXXZ DD 025051301H
	DD	010e2313H
	DD	07007001dH
	DD	05006H
xdata	ENDS
;	COMDAT xdata
xdata	SEGMENT
$unwind$??$exchange@PEAU_Iterator_base12@std@@$$T@std@@YAPEAU_Iterator_base12@0@AEAPEAU10@$$QEA$$T@Z DD 025051801H
	DD	01132318H
	DD	0700c0021H
	DD	0500bH
xdata	ENDS
;	COMDAT voltbl
voltbl	SEGMENT
_volmd	DB	036H
	DB	07eH
voltbl	ENDS
;	COMDAT xdata
xdata	SEGMENT
$unwind$?_Orphan_all_locked_v3@_Container_base12@std@@AEAAXXZ DD 025053d19H
	DD	010e2313H
	DD	070070021H
	DD	05006H
	DD	imagerel __GSHandlerCheck
	DD	0f8H
xdata	ENDS
;	COMDAT CONST
CONST	SEGMENT
?_Orphan_all_locked_v3@_Container_base12@std@@AEAAXXZ$rtcName$0 DB 05fH ; std::_Container_base12::_Orphan_all_locked_v3
	DB	04cH
	DB	06fH
	DB	063H
	DB	06bH
	DB	00H
	ORG $+10
?_Orphan_all_locked_v3@_Container_base12@std@@AEAAXXZ$rtcVarDesc DD 024H ; std::_Container_base12::_Orphan_all_locked_v3
	DD	04H
	DQ	FLAT:?_Orphan_all_locked_v3@_Container_base12@std@@AEAAXXZ$rtcName$0
	ORG $+48
?_Orphan_all_locked_v3@_Container_base12@std@@AEAAXXZ$rtcFrameData DD 01H ; std::_Container_base12::_Orphan_all_locked_v3
	DD	00H
	DQ	FLAT:?_Orphan_all_locked_v3@_Container_base12@std@@AEAAXXZ$rtcVarDesc
CONST	ENDS
;	COMDAT xdata
xdata	SEGMENT
$unwind$?_Orphan_all_unlocked_v3@_Container_base12@std@@AEAAXXZ DD 025051301H
	DD	010e2313H
	DD	070070025H
	DD	05006H
xdata	ENDS
;	COMDAT xdata
xdata	SEGMENT
$unwind$?_Orphan_all@_Container_base12@std@@QEAAXXZ DD 025051301H
	DD	010e2313H
	DD	07007001dH
	DD	05006H
xdata	ENDS
;	COMDAT xdata
xdata	SEGMENT
$unwind$??0_Container_base12@std@@QEAA@XZ DD 025051301H
	DD	010e2313H
	DD	07007001dH
	DD	05006H
xdata	ENDS
;	COMDAT xdata
xdata	SEGMENT
$unwind$??0_Container_proxy@std@@QEAA@PEAU_Container_base12@1@@Z DD 025051801H
	DD	01132318H
	DD	0700c001dH
	DD	0500bH
xdata	ENDS
;	COMDAT xdata
xdata	SEGMENT
$unwind$?_Adjust_manually_vector_aligned@std@@YAXAEAPEAXAEA_K@Z DD 035051801H
	DD	01133318H
	DD	0700c002fH
	DD	0500bH
xdata	ENDS
;	COMDAT xdata
xdata	SEGMENT
$unwind$?_Allocate@_Default_allocate_traits@std@@SAPEAX_K@Z DD 025051301H
	DD	010e2313H
	DD	07007001dH
	DD	05006H
xdata	ENDS
;	COMDAT xdata
xdata	SEGMENT
$unwind$?max@?$numeric_limits@_J@std@@SA_JXZ DD 025050f01H
	DD	010a230fH
	DD	07003001dH
	DD	05002H
xdata	ENDS
;	COMDAT xdata
xdata	SEGMENT
$unwind$?_Throw_bad_array_new_length@std@@YAXXZ DD 025050f01H
	DD	010a230fH
	DD	070030023H
	DD	05002H
xdata	ENDS
;	COMDAT xdata
xdata	SEGMENT
$unwind$??_Gbad_array_new_length@std@@UEAAPEAXI@Z DD 025051701H
	DD	01122317H
	DD	0700b001dH
	DD	0500aH
xdata	ENDS
;	COMDAT xdata
xdata	SEGMENT
$unwind$??0bad_array_new_length@std@@QEAA@AEBV01@@Z DD 025051801H
	DD	01132318H
	DD	0700c001dH
	DD	0500bH
xdata	ENDS
;	COMDAT xdata
xdata	SEGMENT
$unwind$??1bad_array_new_length@std@@UEAA@XZ DD 025051301H
	DD	010e2313H
	DD	07007001dH
	DD	05006H
xdata	ENDS
;	COMDAT xdata
xdata	SEGMENT
$unwind$??0bad_array_new_length@std@@QEAA@XZ DD 025051301H
	DD	010e2313H
	DD	07007001dH
	DD	05006H
xdata	ENDS
;	COMDAT xdata
xdata	SEGMENT
$unwind$??_Gbad_alloc@std@@UEAAPEAXI@Z DD 025051701H
	DD	01122317H
	DD	0700b001dH
	DD	0500aH
xdata	ENDS
;	COMDAT xdata
xdata	SEGMENT
$unwind$??0bad_alloc@std@@QEAA@AEBV01@@Z DD 025051801H
	DD	01132318H
	DD	0700c001dH
	DD	0500bH
xdata	ENDS
;	COMDAT xdata
xdata	SEGMENT
$unwind$??1bad_alloc@std@@UEAA@XZ DD 025051301H
	DD	010e2313H
	DD	07007001dH
	DD	05006H
xdata	ENDS
;	COMDAT xdata
xdata	SEGMENT
$unwind$??0bad_alloc@std@@AEAA@QEBD@Z DD 025051801H
	DD	01132318H
	DD	0700c001dH
	DD	0500bH
xdata	ENDS
;	COMDAT xdata
xdata	SEGMENT
$unwind$??_Gexception@std@@UEAAPEAXI@Z DD 025051701H
	DD	01122317H
	DD	0700b001dH
	DD	0500aH
xdata	ENDS
;	COMDAT xdata
xdata	SEGMENT
$unwind$?what@exception@std@@UEBAPEBDXZ DD 025051301H
	DD	010e2313H
	DD	07007001fH
	DD	05006H
xdata	ENDS
;	COMDAT xdata
xdata	SEGMENT
$unwind$??1exception@std@@UEAA@XZ DD 025051301H
	DD	010e2313H
	DD	07007001dH
	DD	05006H
xdata	ENDS
;	COMDAT xdata
xdata	SEGMENT
$unwind$??0exception@std@@QEAA@AEBV01@@Z DD 025051801H
	DD	01132318H
	DD	0700c001dH
	DD	0500bH
xdata	ENDS
;	COMDAT xdata
xdata	SEGMENT
$unwind$??0exception@std@@QEAA@QEBDH@Z DD 025051d01H
	DD	0118231dH
	DD	07011001dH
	DD	05010H
xdata	ENDS
;	COMDAT xdata
xdata	SEGMENT
$unwind$??2@YAPEAX_KPEAX@Z DD 025051801H
	DD	01132318H
	DD	0700c001dH
	DD	0500bH
xdata	ENDS
;	COMDAT xdata
xdata	SEGMENT
$unwind$?__empty_global_delete@@YAXPEAX_K@Z DD 025051801H
	DD	01132318H
	DD	0700c001dH
	DD	0500bH
xdata	ENDS
;	COMDAT xdata
xdata	SEGMENT
$unwind$?__empty_global_delete@@YAXPEAX@Z DD 025051301H
	DD	010e2313H
	DD	07007001dH
	DD	05006H
xdata	ENDS
; Function compile flags: /Odt
;	COMDAT __JustMyCode_Default
_TEXT	SEGMENT
__JustMyCode_Default PROC				; COMDAT
  00000	c2 00 00	 ret	 0
__JustMyCode_Default ENDP
_TEXT	ENDS
; Function compile flags: /Odtp /RTCsu /ZI
; File C:\Program Files\Microsoft Visual Studio\2022\Community\VC\Tools\MSVC\14.37.32822\include\xmemory
;	COMDAT ??$_Allocate_manually_vector_aligned@U_Default_allocate_traits@std@@@std@@YAPEAX_K@Z
_TEXT	SEGMENT
_Block_size$ = 8
_Ptr_container$ = 40
_Ptr$ = 72
_Bytes$ = 320
??$_Allocate_manually_vector_aligned@U_Default_allocate_traits@std@@@std@@YAPEAX_K@Z PROC ; std::_Allocate_manually_vector_aligned<std::_Default_allocate_traits>, COMDAT

; 137  : __declspec(allocator) void* _Allocate_manually_vector_aligned(const size_t _Bytes) {

$LN13:
  00000	48 89 4c 24 08	 mov	 QWORD PTR [rsp+8], rcx
  00005	55		 push	 rbp
  00006	57		 push	 rdi
  00007	48 81 ec 58 01
	00 00		 sub	 rsp, 344		; 00000158H
  0000e	48 8d 6c 24 30	 lea	 rbp, QWORD PTR [rsp+48]
  00013	48 8d 0d 00 00
	00 00		 lea	 rcx, OFFSET FLAT:__A594BF75_xmemory
  0001a	e8 00 00 00 00	 call	 __CheckForDebuggerJustMyCode

; 138  :     // allocate _Bytes manually aligned to at least _Big_allocation_alignment
; 139  :     const size_t _Block_size = _Non_user_size + _Bytes;

  0001f	48 8b 85 40 01
	00 00		 mov	 rax, QWORD PTR _Bytes$[rbp]
  00026	48 83 c0 2f	 add	 rax, 47			; 0000002fH
  0002a	48 89 45 08	 mov	 QWORD PTR _Block_size$[rbp], rax

; 140  :     if (_Block_size <= _Bytes) {

  0002e	48 8b 85 40 01
	00 00		 mov	 rax, QWORD PTR _Bytes$[rbp]
  00035	48 39 45 08	 cmp	 QWORD PTR _Block_size$[rbp], rax
  00039	77 05		 ja	 SHORT $LN8@Allocate_m

; 141  :         _Throw_bad_array_new_length(); // add overflow

  0003b	e8 00 00 00 00	 call	 ?_Throw_bad_array_new_length@std@@YAXXZ ; std::_Throw_bad_array_new_length
$LN8@Allocate_m:

; 142  :     }
; 143  : 
; 144  :     const uintptr_t _Ptr_container = reinterpret_cast<uintptr_t>(_Traits::_Allocate(_Block_size));

  00040	48 8b 4d 08	 mov	 rcx, QWORD PTR _Block_size$[rbp]
  00044	e8 00 00 00 00	 call	 ?_Allocate@_Default_allocate_traits@std@@SAPEAX_K@Z ; std::_Default_allocate_traits::_Allocate
  00049	48 89 45 28	 mov	 QWORD PTR _Ptr_container$[rbp], rax
$LN4@Allocate_m:

; 145  :     _STL_VERIFY(_Ptr_container != 0, "invalid argument"); // validate even in release since we're doing p[-1]

  0004d	48 83 7d 28 00	 cmp	 QWORD PTR _Ptr_container$[rbp], 0
  00052	74 02		 je	 SHORT $LN9@Allocate_m
  00054	eb 6b		 jmp	 SHORT $LN10@Allocate_m
$LN9@Allocate_m:
$LN7@Allocate_m:
  00056	48 8d 05 00 00
	00 00		 lea	 rax, OFFSET FLAT:??_C@_0BB@FCMFBGOM@invalid?5argument@
  0005d	48 89 44 24 28	 mov	 QWORD PTR [rsp+40], rax
  00062	48 8d 05 00 00
	00 00		 lea	 rax, OFFSET FLAT:??_C@_02DKCKIIND@?$CFs@
  00069	48 89 44 24 20	 mov	 QWORD PTR [rsp+32], rax
  0006e	45 33 c9	 xor	 r9d, r9d
  00071	41 b8 91 00 00
	00		 mov	 r8d, 145		; 00000091H
  00077	48 8d 15 00 00
	00 00		 lea	 rdx, OFFSET FLAT:??_C@_0GC@JDLAECEI@C?3?2Program?5Files?2Microsoft?5Visu@
  0007e	b9 02 00 00 00	 mov	 ecx, 2
  00083	ff 15 00 00 00
	00		 call	 QWORD PTR __imp__CrtDbgReport
  00089	83 f8 01	 cmp	 eax, 1
  0008c	75 03		 jne	 SHORT $LN12@Allocate_m
  0008e	cc		 int	 3
  0008f	33 c0		 xor	 eax, eax
$LN12@Allocate_m:
  00091	48 c7 44 24 20
	00 00 00 00	 mov	 QWORD PTR [rsp+32], 0
  0009a	41 b9 91 00 00
	00		 mov	 r9d, 145		; 00000091H
  000a0	4c 8d 05 00 00
	00 00		 lea	 r8, OFFSET FLAT:??_C@_1ME@PPIEIJND@?$AAC?$AA?3?$AA?2?$AAP?$AAr?$AAo?$AAg?$AAr?$AAa?$AAm?$AA?5?$AAF?$AAi?$AAl?$AAe@
  000a7	48 8d 15 00 00
	00 00		 lea	 rdx, OFFSET FLAT:??_C@_11LOCGONAA@@
  000ae	48 8d 0d 00 00
	00 00		 lea	 rcx, OFFSET FLAT:??_C@_1CG@JNLFBNGN@?$AA?$CC?$AAi?$AAn?$AAv?$AAa?$AAl?$AAi?$AAd?$AA?5?$AAa?$AAr?$AAg?$AAu?$AAm?$AAe@
  000b5	ff 15 00 00 00
	00		 call	 QWORD PTR __imp__invalid_parameter
  000bb	33 c0		 xor	 eax, eax
  000bd	85 c0		 test	 eax, eax
  000bf	75 95		 jne	 SHORT $LN7@Allocate_m
$LN10@Allocate_m:
  000c1	33 c0		 xor	 eax, eax
  000c3	85 c0		 test	 eax, eax
  000c5	75 86		 jne	 SHORT $LN4@Allocate_m

; 146  :     void* const _Ptr = reinterpret_cast<void*>((_Ptr_container + _Non_user_size) & ~(_Big_allocation_alignment - 1));

  000c7	48 8b 45 28	 mov	 rax, QWORD PTR _Ptr_container$[rbp]
  000cb	48 83 c0 2f	 add	 rax, 47			; 0000002fH
  000cf	48 83 e0 e0	 and	 rax, -32		; ffffffffffffffe0H
  000d3	48 89 45 48	 mov	 QWORD PTR _Ptr$[rbp], rax

; 147  :     static_cast<uintptr_t*>(_Ptr)[-1] = _Ptr_container;

  000d7	b8 08 00 00 00	 mov	 eax, 8
  000dc	48 6b c0 ff	 imul	 rax, rax, -1
  000e0	48 8b 4d 48	 mov	 rcx, QWORD PTR _Ptr$[rbp]
  000e4	48 8b 55 28	 mov	 rdx, QWORD PTR _Ptr_container$[rbp]
  000e8	48 89 14 01	 mov	 QWORD PTR [rcx+rax], rdx

; 148  : 
; 149  : #ifdef _DEBUG
; 150  :     static_cast<uintptr_t*>(_Ptr)[-2] = _Big_allocation_sentinel;

  000ec	b8 08 00 00 00	 mov	 eax, 8
  000f1	48 6b c0 fe	 imul	 rax, rax, -2
  000f5	48 8b 4d 48	 mov	 rcx, QWORD PTR _Ptr$[rbp]
  000f9	48 ba fa fa fa
	fa fa fa fa fa	 mov	 rdx, -361700864190383366 ; fafafafafafafafaH
  00103	48 89 14 01	 mov	 QWORD PTR [rcx+rax], rdx

; 151  : #endif // _DEBUG
; 152  :     return _Ptr;

  00107	48 8b 45 48	 mov	 rax, QWORD PTR _Ptr$[rbp]
$LN11@Allocate_m:

; 153  : }

  0010b	48 8d a5 28 01
	00 00		 lea	 rsp, QWORD PTR [rbp+296]
  00112	5f		 pop	 rdi
  00113	5d		 pop	 rbp
  00114	c3		 ret	 0
??$_Allocate_manually_vector_aligned@U_Default_allocate_traits@std@@@std@@YAPEAX_K@Z ENDP ; std::_Allocate_manually_vector_aligned<std::_Default_allocate_traits>
_TEXT	ENDS
; Function compile flags: /Odtp /RTCsu /ZI
; File C:\Program Files\Microsoft Visual Studio\2022\Community\VC\Tools\MSVC\14.37.32822\include\xmemory
;	COMDAT ?deallocate@?$_Default_allocator_traits@V?$allocator@U_Container_proxy@std@@@std@@@std@@SAXAEAV?$allocator@U_Container_proxy@std@@@2@QEAU_Container_proxy@2@_K@Z
_TEXT	SEGMENT
_Al$ = 224
_Ptr$ = 232
_Count$ = 240
?deallocate@?$_Default_allocator_traits@V?$allocator@U_Container_proxy@std@@@std@@@std@@SAXAEAV?$allocator@U_Container_proxy@std@@@2@QEAU_Container_proxy@2@_K@Z PROC ; std::_Default_allocator_traits<std::allocator<std::_Container_proxy> >::deallocate, COMDAT

; 701  :     static _CONSTEXPR20 void deallocate(_Alloc& _Al, const pointer _Ptr, const size_type _Count) {

$LN3:
  00000	4c 89 44 24 18	 mov	 QWORD PTR [rsp+24], r8
  00005	48 89 54 24 10	 mov	 QWORD PTR [rsp+16], rdx
  0000a	48 89 4c 24 08	 mov	 QWORD PTR [rsp+8], rcx
  0000f	55		 push	 rbp
  00010	57		 push	 rdi
  00011	48 81 ec e8 00
	00 00		 sub	 rsp, 232		; 000000e8H
  00018	48 8d 6c 24 20	 lea	 rbp, QWORD PTR [rsp+32]
  0001d	48 8d 0d 00 00
	00 00		 lea	 rcx, OFFSET FLAT:__A594BF75_xmemory
  00024	e8 00 00 00 00	 call	 __CheckForDebuggerJustMyCode

; 702  :         // no overflow check on the following multiply; we assume _Allocate did that check
; 703  : #if _HAS_CXX20 // TRANSITION, GH-1532
; 704  :         if (_STD is_constant_evaluated()) {
; 705  :             _Al.deallocate(_Ptr, _Count);
; 706  :         } else
; 707  : #endif // _HAS_CXX20
; 708  :         {
; 709  :             (void) _Al;
; 710  :             _Deallocate<_New_alignof<value_type>>(_Ptr, sizeof(value_type) * _Count);

  00029	48 6b 85 f0 00
	00 00 10	 imul	 rax, QWORD PTR _Count$[rbp], 16
  00031	48 8b d0	 mov	 rdx, rax
  00034	48 8b 8d e8 00
	00 00		 mov	 rcx, QWORD PTR _Ptr$[rbp]
  0003b	e8 00 00 00 00	 call	 ??$_Deallocate@$0BA@$0A@@std@@YAXPEAX_K@Z ; std::_Deallocate<16,0>

; 711  :         }
; 712  :     }

  00040	48 8d a5 c8 00
	00 00		 lea	 rsp, QWORD PTR [rbp+200]
  00047	5f		 pop	 rdi
  00048	5d		 pop	 rbp
  00049	c3		 ret	 0
?deallocate@?$_Default_allocator_traits@V?$allocator@U_Container_proxy@std@@@std@@@std@@SAXAEAV?$allocator@U_Container_proxy@std@@@2@QEAU_Container_proxy@2@_K@Z ENDP ; std::_Default_allocator_traits<std::allocator<std::_Container_proxy> >::deallocate
_TEXT	ENDS
; Function compile flags: /Odtp /RTCsu /ZI
; File C:\Program Files\Microsoft Visual Studio\2022\Community\VC\Tools\MSVC\14.37.32822\include\type_traits
;	COMDAT ??$addressof@U_Container_proxy@std@@@std@@YAPEAU_Container_proxy@0@AEAU10@@Z
_TEXT	SEGMENT
_Val$ = 224
??$addressof@U_Container_proxy@std@@@std@@YAPEAU_Container_proxy@0@AEAU10@@Z PROC ; std::addressof<std::_Container_proxy>, COMDAT

; 1606 : _NODISCARD constexpr _Ty* addressof(_Ty& _Val) noexcept {

$LN3:
  00000	48 89 4c 24 08	 mov	 QWORD PTR [rsp+8], rcx
  00005	55		 push	 rbp
  00006	57		 push	 rdi
  00007	48 81 ec e8 00
	00 00		 sub	 rsp, 232		; 000000e8H
  0000e	48 8d 6c 24 20	 lea	 rbp, QWORD PTR [rsp+32]
  00013	48 8d 0d 00 00
	00 00		 lea	 rcx, OFFSET FLAT:__7FB6D5C7_type_traits
  0001a	e8 00 00 00 00	 call	 __CheckForDebuggerJustMyCode

; 1607 :     return __builtin_addressof(_Val);

  0001f	48 8b 85 e0 00
	00 00		 mov	 rax, QWORD PTR _Val$[rbp]

; 1608 : }

  00026	48 8d a5 c8 00
	00 00		 lea	 rsp, QWORD PTR [rbp+200]
  0002d	5f		 pop	 rdi
  0002e	5d		 pop	 rbp
  0002f	c3		 ret	 0
??$addressof@U_Container_proxy@std@@@std@@YAPEAU_Container_proxy@0@AEAU10@@Z ENDP ; std::addressof<std::_Container_proxy>
_TEXT	ENDS
; Function compile flags: /Odtp /RTCsu /ZI
; File C:\Program Files\Microsoft Visual Studio\2022\Community\VC\Tools\MSVC\14.37.32822\include\xmemory
;	COMDAT ??$_Get_size_of_n@$00@std@@YA_K_K@Z
_TEXT	SEGMENT
_Overflow_is_possible$ = 4
_Count$ = 256
??$_Get_size_of_n@$00@std@@YA_K_K@Z PROC		; std::_Get_size_of_n<1>, COMDAT

; 65   : _NODISCARD constexpr size_t _Get_size_of_n(const size_t _Count) {

$LN3:
  00000	48 89 4c 24 08	 mov	 QWORD PTR [rsp+8], rcx
  00005	55		 push	 rbp
  00006	57		 push	 rdi
  00007	48 81 ec 08 01
	00 00		 sub	 rsp, 264		; 00000108H
  0000e	48 8d 6c 24 20	 lea	 rbp, QWORD PTR [rsp+32]
  00013	48 8d 0d 00 00
	00 00		 lea	 rcx, OFFSET FLAT:__A594BF75_xmemory
  0001a	e8 00 00 00 00	 call	 __CheckForDebuggerJustMyCode

; 66   :     constexpr bool _Overflow_is_possible = _Ty_size > 1;

  0001f	c6 45 04 00	 mov	 BYTE PTR _Overflow_is_possible$[rbp], 0

; 67   : 
; 68   :     if constexpr (_Overflow_is_possible) {
; 69   :         constexpr size_t _Max_possible = static_cast<size_t>(-1) / _Ty_size;
; 70   :         if (_Count > _Max_possible) {
; 71   :             _Throw_bad_array_new_length(); // multiply overflow
; 72   :         }
; 73   :     }
; 74   : 
; 75   :     return _Count * _Ty_size;

  00023	48 8b 85 00 01
	00 00		 mov	 rax, QWORD PTR _Count$[rbp]

; 76   : }

  0002a	48 8d a5 e8 00
	00 00		 lea	 rsp, QWORD PTR [rbp+232]
  00031	5f		 pop	 rdi
  00032	5d		 pop	 rbp
  00033	c3		 ret	 0
??$_Get_size_of_n@$00@std@@YA_K_K@Z ENDP		; std::_Get_size_of_n<1>
_TEXT	ENDS
; Function compile flags: /Odtp /RTCsu /ZI
; File C:\Program Files\Microsoft Visual Studio\2022\Community\VC\Tools\MSVC\14.37.32822\include\xmemory
;	COMDAT ??$_Allocate@$0BA@U_Default_allocate_traits@std@@$0A@@std@@YAPEAX_K@Z
_TEXT	SEGMENT
_Bytes$ = 224
??$_Allocate@$0BA@U_Default_allocate_traits@std@@$0A@@std@@YAPEAX_K@Z PROC ; std::_Allocate<16,std::_Default_allocate_traits,0>, COMDAT

; 231  : __declspec(allocator) _CONSTEXPR20 void* _Allocate(const size_t _Bytes) {

$LN5:
  00000	48 89 4c 24 08	 mov	 QWORD PTR [rsp+8], rcx
  00005	55		 push	 rbp
  00006	57		 push	 rdi
  00007	48 81 ec e8 00
	00 00		 sub	 rsp, 232		; 000000e8H
  0000e	48 8d 6c 24 20	 lea	 rbp, QWORD PTR [rsp+32]
  00013	48 8d 0d 00 00
	00 00		 lea	 rcx, OFFSET FLAT:__A594BF75_xmemory
  0001a	e8 00 00 00 00	 call	 __CheckForDebuggerJustMyCode

; 232  :     // allocate _Bytes when !_HAS_ALIGNED_NEW || _Align <= __STDCPP_DEFAULT_NEW_ALIGNMENT__
; 233  : #if defined(_M_IX86) || defined(_M_X64)
; 234  : #if _HAS_CXX20 // TRANSITION, GH-1532
; 235  :     if (!_STD is_constant_evaluated())
; 236  : #endif // _HAS_CXX20
; 237  :     {
; 238  :         if (_Bytes >= _Big_allocation_threshold) { // boost the alignment of big allocations to help autovectorization

  0001f	48 81 bd e0 00
	00 00 00 10 00
	00		 cmp	 QWORD PTR _Bytes$[rbp], 4096 ; 00001000H
  0002a	72 0e		 jb	 SHORT $LN2@Allocate

; 239  :             return _Allocate_manually_vector_aligned<_Traits>(_Bytes);

  0002c	48 8b 8d e0 00
	00 00		 mov	 rcx, QWORD PTR _Bytes$[rbp]
  00033	e8 00 00 00 00	 call	 ??$_Allocate_manually_vector_aligned@U_Default_allocate_traits@std@@@std@@YAPEAX_K@Z ; std::_Allocate_manually_vector_aligned<std::_Default_allocate_traits>
  00038	eb 1a		 jmp	 SHORT $LN1@Allocate
$LN2@Allocate:

; 240  :         }
; 241  :     }
; 242  : #endif // defined(_M_IX86) || defined(_M_X64)
; 243  : 
; 244  :     if (_Bytes != 0) {

  0003a	48 83 bd e0 00
	00 00 00	 cmp	 QWORD PTR _Bytes$[rbp], 0
  00042	74 0e		 je	 SHORT $LN3@Allocate

; 245  :         return _Traits::_Allocate(_Bytes);

  00044	48 8b 8d e0 00
	00 00		 mov	 rcx, QWORD PTR _Bytes$[rbp]
  0004b	e8 00 00 00 00	 call	 ?_Allocate@_Default_allocate_traits@std@@SAPEAX_K@Z ; std::_Default_allocate_traits::_Allocate
  00050	eb 02		 jmp	 SHORT $LN1@Allocate
$LN3@Allocate:

; 246  :     }
; 247  : 
; 248  :     return nullptr;

  00052	33 c0		 xor	 eax, eax
$LN1@Allocate:

; 249  : }

  00054	48 8d a5 c8 00
	00 00		 lea	 rsp, QWORD PTR [rbp+200]
  0005b	5f		 pop	 rdi
  0005c	5d		 pop	 rbp
  0005d	c3		 ret	 0
??$_Allocate@$0BA@U_Default_allocate_traits@std@@$0A@@std@@YAPEAX_K@Z ENDP ; std::_Allocate<16,std::_Default_allocate_traits,0>
_TEXT	ENDS
; Function compile flags: /Odtp /RTCsu /ZI
; File C:\Program Files\Microsoft Visual Studio\2022\Community\VC\Tools\MSVC\14.37.32822\include\xmemory
;	COMDAT ??$_Get_size_of_n@$0BA@@std@@YA_K_K@Z
_TEXT	SEGMENT
_Overflow_is_possible$ = 4
_Max_possible$1 = 40
_Count$ = 288
??$_Get_size_of_n@$0BA@@std@@YA_K_K@Z PROC		; std::_Get_size_of_n<16>, COMDAT

; 65   : _NODISCARD constexpr size_t _Get_size_of_n(const size_t _Count) {

$LN4:
  00000	48 89 4c 24 08	 mov	 QWORD PTR [rsp+8], rcx
  00005	55		 push	 rbp
  00006	57		 push	 rdi
  00007	48 81 ec 28 01
	00 00		 sub	 rsp, 296		; 00000128H
  0000e	48 8d 6c 24 20	 lea	 rbp, QWORD PTR [rsp+32]
  00013	48 8d 0d 00 00
	00 00		 lea	 rcx, OFFSET FLAT:__A594BF75_xmemory
  0001a	e8 00 00 00 00	 call	 __CheckForDebuggerJustMyCode

; 66   :     constexpr bool _Overflow_is_possible = _Ty_size > 1;

  0001f	c6 45 04 01	 mov	 BYTE PTR _Overflow_is_possible$[rbp], 1

; 67   : 
; 68   :     if constexpr (_Overflow_is_possible) {
; 69   :         constexpr size_t _Max_possible = static_cast<size_t>(-1) / _Ty_size;

  00023	48 b8 ff ff ff
	ff ff ff ff 0f	 mov	 rax, 1152921504606846975 ; 0fffffffffffffffH
  0002d	48 89 45 28	 mov	 QWORD PTR _Max_possible$1[rbp], rax

; 70   :         if (_Count > _Max_possible) {

  00031	48 b8 ff ff ff
	ff ff ff ff 0f	 mov	 rax, 1152921504606846975 ; 0fffffffffffffffH
  0003b	48 39 85 20 01
	00 00		 cmp	 QWORD PTR _Count$[rbp], rax
  00042	76 05		 jbe	 SHORT $LN2@Get_size_o

; 71   :             _Throw_bad_array_new_length(); // multiply overflow

  00044	e8 00 00 00 00	 call	 ?_Throw_bad_array_new_length@std@@YAXXZ ; std::_Throw_bad_array_new_length
$LN2@Get_size_o:

; 72   :         }
; 73   :     }
; 74   : 
; 75   :     return _Count * _Ty_size;

  00049	48 6b 85 20 01
	00 00 10	 imul	 rax, QWORD PTR _Count$[rbp], 16
$LN3@Get_size_o:

; 76   : }

  00051	48 8d a5 08 01
	00 00		 lea	 rsp, QWORD PTR [rbp+264]
  00058	5f		 pop	 rdi
  00059	5d		 pop	 rbp
  0005a	c3		 ret	 0
??$_Get_size_of_n@$0BA@@std@@YA_K_K@Z ENDP		; std::_Get_size_of_n<16>
_TEXT	ENDS
; Function compile flags: /Odtp /RTCsu /ZI
; File C:\Program Files\Microsoft Visual Studio\2022\Community\VC\Tools\MSVC\14.37.32822\include\type_traits
;	COMDAT ??$addressof@PEAD@std@@YAPEAPEADAEAPEAD@Z
_TEXT	SEGMENT
_Val$ = 224
??$addressof@PEAD@std@@YAPEAPEADAEAPEAD@Z PROC		; std::addressof<char *>, COMDAT

; 1606 : _NODISCARD constexpr _Ty* addressof(_Ty& _Val) noexcept {

$LN3:
  00000	48 89 4c 24 08	 mov	 QWORD PTR [rsp+8], rcx
  00005	55		 push	 rbp
  00006	57		 push	 rdi
  00007	48 81 ec e8 00
	00 00		 sub	 rsp, 232		; 000000e8H
  0000e	48 8d 6c 24 20	 lea	 rbp, QWORD PTR [rsp+32]
  00013	48 8d 0d 00 00
	00 00		 lea	 rcx, OFFSET FLAT:__7FB6D5C7_type_traits
  0001a	e8 00 00 00 00	 call	 __CheckForDebuggerJustMyCode

; 1607 :     return __builtin_addressof(_Val);

  0001f	48 8b 85 e0 00
	00 00		 mov	 rax, QWORD PTR _Val$[rbp]

; 1608 : }

  00026	48 8d a5 c8 00
	00 00		 lea	 rsp, QWORD PTR [rbp+200]
  0002d	5f		 pop	 rdi
  0002e	5d		 pop	 rbp
  0002f	c3		 ret	 0
??$addressof@PEAD@std@@YAPEAPEADAEAPEAD@Z ENDP		; std::addressof<char *>
_TEXT	ENDS
; Function compile flags: /Odtp /RTCsu /ZI
; File C:\Program Files\Microsoft Visual Studio\2022\Community\VC\Tools\MSVC\14.37.32822\include\xutility
;	COMDAT ??$_Construct_in_place@PEADAEBQEAD@std@@YAXAEAPEADAEBQEAD@Z
_TEXT	SEGMENT
$T1 = 200
_Obj$ = 256
<_Args_0>$ = 264
??$_Construct_in_place@PEADAEBQEAD@std@@YAXAEAPEADAEBQEAD@Z PROC ; std::_Construct_in_place<char *,char * const &>, COMDAT

; 247  :     is_nothrow_constructible_v<_Ty, _Types...>) {

$LN3:
  00000	48 89 54 24 10	 mov	 QWORD PTR [rsp+16], rdx
  00005	48 89 4c 24 08	 mov	 QWORD PTR [rsp+8], rcx
  0000a	55		 push	 rbp
  0000b	57		 push	 rdi
  0000c	48 81 ec 08 01
	00 00		 sub	 rsp, 264		; 00000108H
  00013	48 8d 6c 24 20	 lea	 rbp, QWORD PTR [rsp+32]
  00018	48 8d 0d 00 00
	00 00		 lea	 rcx, OFFSET FLAT:__D740E0F1_xutility
  0001f	e8 00 00 00 00	 call	 __CheckForDebuggerJustMyCode

; 248  : #if _HAS_CXX20
; 249  :     if (_STD is_constant_evaluated()) {
; 250  :         _STD construct_at(_STD addressof(_Obj), _STD forward<_Types>(_Args)...);
; 251  :     } else
; 252  : #endif // _HAS_CXX20
; 253  :     {
; 254  :         ::new (static_cast<void*>(_STD addressof(_Obj))) _Ty(_STD forward<_Types>(_Args)...);

  00024	48 8b 8d 00 01
	00 00		 mov	 rcx, QWORD PTR _Obj$[rbp]
  0002b	e8 00 00 00 00	 call	 ??$addressof@PEAD@std@@YAPEAPEADAEAPEAD@Z ; std::addressof<char *>
  00030	48 8b d0	 mov	 rdx, rax
  00033	b9 08 00 00 00	 mov	 ecx, 8
  00038	e8 00 00 00 00	 call	 ??2@YAPEAX_KPEAX@Z	; operator new
  0003d	48 89 85 c8 00
	00 00		 mov	 QWORD PTR $T1[rbp], rax
  00044	48 8b 85 c8 00
	00 00		 mov	 rax, QWORD PTR $T1[rbp]
  0004b	48 8b 8d 08 01
	00 00		 mov	 rcx, QWORD PTR <_Args_0>$[rbp]
  00052	48 8b 09	 mov	 rcx, QWORD PTR [rcx]
  00055	48 89 08	 mov	 QWORD PTR [rax], rcx

; 255  :     }
; 256  : }

  00058	48 8d a5 e8 00
	00 00		 lea	 rsp, QWORD PTR [rbp+232]
  0005f	5f		 pop	 rdi
  00060	5d		 pop	 rbp
  00061	c3		 ret	 0
??$_Construct_in_place@PEADAEBQEAD@std@@YAXAEAPEADAEBQEAD@Z ENDP ; std::_Construct_in_place<char *,char * const &>
_TEXT	ENDS
; Function compile flags: /Odtp /RTCsu /ZI
; File C:\Program Files\Microsoft Visual Studio\2022\Community\VC\Tools\MSVC\14.37.32822\include\xmemory
;	COMDAT ??$_Unfancy@U_Container_proxy@std@@@std@@YAPEAU_Container_proxy@0@PEAU10@@Z
_TEXT	SEGMENT
_Ptr$ = 224
??$_Unfancy@U_Container_proxy@std@@@std@@YAPEAU_Container_proxy@0@PEAU10@@Z PROC ; std::_Unfancy<std::_Container_proxy>, COMDAT

; 36   : _NODISCARD constexpr _Ty* _Unfancy(_Ty* _Ptr) noexcept { // do nothing for plain pointers

$LN3:
  00000	48 89 4c 24 08	 mov	 QWORD PTR [rsp+8], rcx
  00005	55		 push	 rbp
  00006	57		 push	 rdi
  00007	48 81 ec e8 00
	00 00		 sub	 rsp, 232		; 000000e8H
  0000e	48 8d 6c 24 20	 lea	 rbp, QWORD PTR [rsp+32]
  00013	48 8d 0d 00 00
	00 00		 lea	 rcx, OFFSET FLAT:__A594BF75_xmemory
  0001a	e8 00 00 00 00	 call	 __CheckForDebuggerJustMyCode

; 37   :     return _Ptr;

  0001f	48 8b 85 e0 00
	00 00		 mov	 rax, QWORD PTR _Ptr$[rbp]

; 38   : }

  00026	48 8d a5 c8 00
	00 00		 lea	 rsp, QWORD PTR [rbp+200]
  0002d	5f		 pop	 rdi
  0002e	5d		 pop	 rbp
  0002f	c3		 ret	 0
??$_Unfancy@U_Container_proxy@std@@@std@@YAPEAU_Container_proxy@0@PEAU10@@Z ENDP ; std::_Unfancy<std::_Container_proxy>
_TEXT	ENDS
; Function compile flags: /Odtp /RTCsu /ZI
; File C:\Program Files\Microsoft Visual Studio\2022\Community\VC\Tools\MSVC\14.37.32822\include\xmemory
;	COMDAT ??1?$_Container_proxy_ptr12@V?$allocator@U_Container_proxy@std@@@std@@@std@@QEAA@XZ
_TEXT	SEGMENT
this$ = 224
??1?$_Container_proxy_ptr12@V?$allocator@U_Container_proxy@std@@@std@@@std@@QEAA@XZ PROC ; std::_Container_proxy_ptr12<std::allocator<std::_Container_proxy> >::~_Container_proxy_ptr12<std::allocator<std::_Container_proxy> >, COMDAT

; 1479 :     _CONSTEXPR20 ~_Container_proxy_ptr12() {

$LN4:
  00000	48 89 4c 24 08	 mov	 QWORD PTR [rsp+8], rcx
  00005	55		 push	 rbp
  00006	57		 push	 rdi
  00007	48 81 ec e8 00
	00 00		 sub	 rsp, 232		; 000000e8H
  0000e	48 8d 6c 24 20	 lea	 rbp, QWORD PTR [rsp+32]
  00013	48 8d 0d 00 00
	00 00		 lea	 rcx, OFFSET FLAT:__A594BF75_xmemory
  0001a	e8 00 00 00 00	 call	 __CheckForDebuggerJustMyCode

; 1480 :         if (_Ptr) {

  0001f	48 8b 85 e0 00
	00 00		 mov	 rax, QWORD PTR this$[rbp]
  00026	48 83 38 00	 cmp	 QWORD PTR [rax], 0
  0002a	74 1a		 je	 SHORT $LN2@Container_

; 1481 :             _Delete_plain_internal(_Al, _Ptr);

  0002c	48 8b 85 e0 00
	00 00		 mov	 rax, QWORD PTR this$[rbp]
  00033	48 8b 10	 mov	 rdx, QWORD PTR [rax]
  00036	48 8b 85 e0 00
	00 00		 mov	 rax, QWORD PTR this$[rbp]
  0003d	48 8b 48 08	 mov	 rcx, QWORD PTR [rax+8]
  00041	e8 00 00 00 00	 call	 ??$_Delete_plain_internal@V?$allocator@U_Container_proxy@std@@@std@@@std@@YAXAEAV?$allocator@U_Container_proxy@std@@@0@QEAU_Container_proxy@0@@Z ; std::_Delete_plain_internal<std::allocator<std::_Container_proxy> >
$LN2@Container_:

; 1482 :         }
; 1483 :     }

  00046	48 8d a5 c8 00
	00 00		 lea	 rsp, QWORD PTR [rbp+200]
  0004d	5f		 pop	 rdi
  0004e	5d		 pop	 rbp
  0004f	c3		 ret	 0
??1?$_Container_proxy_ptr12@V?$allocator@U_Container_proxy@std@@@std@@@std@@QEAA@XZ ENDP ; std::_Container_proxy_ptr12<std::allocator<std::_Container_proxy> >::~_Container_proxy_ptr12<std::allocator<std::_Container_proxy> >
_TEXT	ENDS
; Function compile flags: /Odtp /RTCsu /ZI
; File C:\Program Files\Microsoft Visual Studio\2022\Community\VC\Tools\MSVC\14.37.32822\include\xmemory
;	COMDAT ??0?$_Container_proxy_ptr12@V?$allocator@U_Container_proxy@std@@@std@@@std@@QEAA@AEAV?$allocator@U_Container_proxy@std@@@1@AEAU_Container_base12@1@@Z
_TEXT	SEGMENT
$T1 = 200
this$ = 256
_Al_$ = 264
_Mycont$ = 272
??0?$_Container_proxy_ptr12@V?$allocator@U_Container_proxy@std@@@std@@@std@@QEAA@AEAV?$allocator@U_Container_proxy@std@@@1@AEAU_Container_base12@1@@Z PROC ; std::_Container_proxy_ptr12<std::allocator<std::_Container_proxy> >::_Container_proxy_ptr12<std::allocator<std::_Container_proxy> >, COMDAT

; 1465 :     _CONSTEXPR20 _Container_proxy_ptr12(_Alloc& _Al_, _Container_base12& _Mycont) : _Al(_Al_) {

$LN3:
  00000	4c 89 44 24 18	 mov	 QWORD PTR [rsp+24], r8
  00005	48 89 54 24 10	 mov	 QWORD PTR [rsp+16], rdx
  0000a	48 89 4c 24 08	 mov	 QWORD PTR [rsp+8], rcx
  0000f	55		 push	 rbp
  00010	57		 push	 rdi
  00011	48 81 ec 08 01
	00 00		 sub	 rsp, 264		; 00000108H
  00018	48 8d 6c 24 20	 lea	 rbp, QWORD PTR [rsp+32]
  0001d	48 8d 0d 00 00
	00 00		 lea	 rcx, OFFSET FLAT:__A594BF75_xmemory
  00024	e8 00 00 00 00	 call	 __CheckForDebuggerJustMyCode
  00029	48 8b 8d 00 01
	00 00		 mov	 rcx, QWORD PTR this$[rbp]
  00030	e8 00 00 00 00	 call	 ??0_Basic_container_proxy_ptr12@std@@IEAA@XZ ; std::_Basic_container_proxy_ptr12::_Basic_container_proxy_ptr12
  00035	48 8b 85 00 01
	00 00		 mov	 rax, QWORD PTR this$[rbp]
  0003c	48 8b 8d 08 01
	00 00		 mov	 rcx, QWORD PTR _Al_$[rbp]
  00043	48 89 48 08	 mov	 QWORD PTR [rax+8], rcx

; 1466 :         // create a new _Container_proxy pointing at _Mycont
; 1467 :         _Ptr = _Unfancy(_Al_.allocate(1));

  00047	ba 01 00 00 00	 mov	 edx, 1
  0004c	48 8b 8d 08 01
	00 00		 mov	 rcx, QWORD PTR _Al_$[rbp]
  00053	e8 00 00 00 00	 call	 ?allocate@?$allocator@U_Container_proxy@std@@@std@@QEAAPEAU_Container_proxy@2@_K@Z ; std::allocator<std::_Container_proxy>::allocate
  00058	48 8b c8	 mov	 rcx, rax
  0005b	e8 00 00 00 00	 call	 ??$_Unfancy@U_Container_proxy@std@@@std@@YAPEAU_Container_proxy@0@PEAU10@@Z ; std::_Unfancy<std::_Container_proxy>
  00060	48 8b 8d 00 01
	00 00		 mov	 rcx, QWORD PTR this$[rbp]
  00067	48 89 01	 mov	 QWORD PTR [rcx], rax

; 1468 :         _Construct_in_place(*_Ptr, _STD addressof(_Mycont));

  0006a	48 8b 8d 10 01
	00 00		 mov	 rcx, QWORD PTR _Mycont$[rbp]
  00071	e8 00 00 00 00	 call	 ??$addressof@U_Container_base12@std@@@std@@YAPEAU_Container_base12@0@AEAU10@@Z ; std::addressof<std::_Container_base12>
  00076	48 89 85 c8 00
	00 00		 mov	 QWORD PTR $T1[rbp], rax
  0007d	48 8d 95 c8 00
	00 00		 lea	 rdx, QWORD PTR $T1[rbp]
  00084	48 8b 85 00 01
	00 00		 mov	 rax, QWORD PTR this$[rbp]
  0008b	48 8b 08	 mov	 rcx, QWORD PTR [rax]
  0008e	e8 00 00 00 00	 call	 ??$_Construct_in_place@U_Container_proxy@std@@PEAU_Container_base12@2@@std@@YAXAEAU_Container_proxy@0@$$QEAPEAU_Container_base12@0@@Z ; std::_Construct_in_place<std::_Container_proxy,std::_Container_base12 *>

; 1469 :         _Mycont._Myproxy = _Ptr;

  00093	48 8b 85 10 01
	00 00		 mov	 rax, QWORD PTR _Mycont$[rbp]
  0009a	48 8b 8d 00 01
	00 00		 mov	 rcx, QWORD PTR this$[rbp]
  000a1	48 8b 09	 mov	 rcx, QWORD PTR [rcx]
  000a4	48 89 08	 mov	 QWORD PTR [rax], rcx

; 1470 :     }

  000a7	48 8b 85 00 01
	00 00		 mov	 rax, QWORD PTR this$[rbp]
  000ae	48 8d a5 e8 00
	00 00		 lea	 rsp, QWORD PTR [rbp+232]
  000b5	5f		 pop	 rdi
  000b6	5d		 pop	 rbp
  000b7	c3		 ret	 0
??0?$_Container_proxy_ptr12@V?$allocator@U_Container_proxy@std@@@std@@@std@@QEAA@AEAV?$allocator@U_Container_proxy@std@@@1@AEAU_Container_base12@1@@Z ENDP ; std::_Container_proxy_ptr12<std::allocator<std::_Container_proxy> >::_Container_proxy_ptr12<std::allocator<std::_Container_proxy> >
_TEXT	ENDS
; Function compile flags: /Odtp /RTCsu /ZI
; File C:\Program Files\Microsoft Visual Studio\2022\Community\VC\Tools\MSVC\14.37.32822\include\xmemory
;	COMDAT ??$_Deallocate_plain@V?$allocator@U_Container_proxy@std@@@std@@@std@@YAXAEAV?$allocator@U_Container_proxy@std@@@0@QEAU_Container_proxy@0@@Z
_TEXT	SEGMENT
_Al$ = 224
_Ptr$ = 232
??$_Deallocate_plain@V?$allocator@U_Container_proxy@std@@@std@@@std@@YAXAEAV?$allocator@U_Container_proxy@std@@@0@QEAU_Container_proxy@0@@Z PROC ; std::_Deallocate_plain<std::allocator<std::_Container_proxy> >, COMDAT

; 1119 : _CONSTEXPR20 void _Deallocate_plain(_Alloc& _Al, typename _Alloc::value_type* const _Ptr) noexcept {

$LN3:
  00000	48 89 54 24 10	 mov	 QWORD PTR [rsp+16], rdx
  00005	48 89 4c 24 08	 mov	 QWORD PTR [rsp+8], rcx
  0000a	55		 push	 rbp
  0000b	57		 push	 rdi
  0000c	48 81 ec e8 00
	00 00		 sub	 rsp, 232		; 000000e8H
  00013	48 8d 6c 24 20	 lea	 rbp, QWORD PTR [rsp+32]
  00018	48 8d 0d 00 00
	00 00		 lea	 rcx, OFFSET FLAT:__A594BF75_xmemory
  0001f	e8 00 00 00 00	 call	 __CheckForDebuggerJustMyCode

; 1120 :     // deallocate a plain pointer using an allocator
; 1121 :     using _Alloc_traits = allocator_traits<_Alloc>;
; 1122 :     if constexpr (is_same_v<_Alloc_ptr_t<_Alloc>, typename _Alloc::value_type*>) {
; 1123 :         _Alloc_traits::deallocate(_Al, _Ptr, 1);

  00024	41 b8 01 00 00
	00		 mov	 r8d, 1
  0002a	48 8b 95 e8 00
	00 00		 mov	 rdx, QWORD PTR _Ptr$[rbp]
  00031	48 8b 8d e0 00
	00 00		 mov	 rcx, QWORD PTR _Al$[rbp]
  00038	e8 00 00 00 00	 call	 ?deallocate@?$_Default_allocator_traits@V?$allocator@U_Container_proxy@std@@@std@@@std@@SAXAEAV?$allocator@U_Container_proxy@std@@@2@QEAU_Container_proxy@2@_K@Z ; std::_Default_allocator_traits<std::allocator<std::_Container_proxy> >::deallocate
  0003d	90		 npad	 1

; 1124 :     } else {
; 1125 :         using _Ptr_traits = pointer_traits<_Alloc_ptr_t<_Alloc>>;
; 1126 :         _Alloc_traits::deallocate(_Al, _Ptr_traits::pointer_to(*_Ptr), 1);
; 1127 :     }
; 1128 : }

  0003e	48 8d a5 c8 00
	00 00		 lea	 rsp, QWORD PTR [rbp+200]
  00045	5f		 pop	 rdi
  00046	5d		 pop	 rbp
  00047	c3		 ret	 0
??$_Deallocate_plain@V?$allocator@U_Container_proxy@std@@@std@@@std@@YAXAEAV?$allocator@U_Container_proxy@std@@@0@QEAU_Container_proxy@0@@Z ENDP ; std::_Deallocate_plain<std::allocator<std::_Container_proxy> >
_TEXT	ENDS
; Function compile flags: /Odtp /RTCsu /ZI
; File C:\Program Files\Microsoft Visual Studio\2022\Community\VC\Tools\MSVC\14.37.32822\include\xstring
;	COMDAT ??$_Insert_string@DU?$char_traits@D@std@@_K@std@@YAAEAV?$basic_ostream@DU?$char_traits@D@std@@@0@AEAV10@QEBD_K@Z
_TEXT	SEGMENT
_State$ = 4
_Pad$ = 40
_Ok$ = 72
$T4 = 308
$T5 = 340
$T6 = 372
$T7 = 404
$T8 = 440
tv281 = 452
tv279 = 452
tv292 = 456
tv291 = 456
tv136 = 456
__$ArrayPad$ = 464
_Ostr$ = 512
_Data$ = 520
_Size$ = 528
??$_Insert_string@DU?$char_traits@D@std@@_K@std@@YAAEAV?$basic_ostream@DU?$char_traits@D@std@@@0@AEAV10@QEBD_K@Z PROC ; std::_Insert_string<char,std::char_traits<char>,unsigned __int64>, COMDAT

; 491  :     basic_ostream<_Elem, _Traits>& _Ostr, const _Elem* const _Data, const _SizeT _Size) {

$LN26:
  00000	4c 89 44 24 18	 mov	 QWORD PTR [rsp+24], r8
  00005	48 89 54 24 10	 mov	 QWORD PTR [rsp+16], rdx
  0000a	48 89 4c 24 08	 mov	 QWORD PTR [rsp+8], rcx
  0000f	55		 push	 rbp
  00010	57		 push	 rdi
  00011	48 81 ec 08 02
	00 00		 sub	 rsp, 520		; 00000208H
  00018	48 8d 6c 24 20	 lea	 rbp, QWORD PTR [rsp+32]
  0001d	48 8d 7c 24 20	 lea	 rdi, QWORD PTR [rsp+32]
  00022	b9 4a 00 00 00	 mov	 ecx, 74			; 0000004aH
  00027	b8 cc cc cc cc	 mov	 eax, -858993460		; ccccccccH
  0002c	f3 ab		 rep stosd
  0002e	48 8b 8c 24 28
	02 00 00	 mov	 rcx, QWORD PTR [rsp+552]
  00036	48 8b 05 00 00
	00 00		 mov	 rax, QWORD PTR __security_cookie
  0003d	48 33 c5	 xor	 rax, rbp
  00040	48 89 85 d0 01
	00 00		 mov	 QWORD PTR __$ArrayPad$[rbp], rax
  00047	48 8d 0d 00 00
	00 00		 lea	 rcx, OFFSET FLAT:__D14739E9_xstring
  0004e	e8 00 00 00 00	 call	 __CheckForDebuggerJustMyCode

; 492  :     // insert a character-type sequence into _Ostr as if through a basic_string copy
; 493  :     using _Ostr_t                    = basic_ostream<_Elem, _Traits>;
; 494  :     typename _Ostr_t::iostate _State = _Ostr_t::goodbit;

  00053	c7 45 04 00 00
	00 00		 mov	 DWORD PTR _State$[rbp], 0

; 495  : 
; 496  :     _SizeT _Pad;
; 497  :     if (_Ostr.width() <= 0 || static_cast<_SizeT>(_Ostr.width()) <= _Size) {

  0005a	48 8b 85 00 02
	00 00		 mov	 rax, QWORD PTR _Ostr$[rbp]
  00061	48 8b 00	 mov	 rax, QWORD PTR [rax]
  00064	48 63 40 04	 movsxd	 rax, DWORD PTR [rax+4]
  00068	48 8b 8d 00 02
	00 00		 mov	 rcx, QWORD PTR _Ostr$[rbp]
  0006f	48 03 c8	 add	 rcx, rax
  00072	48 8b c1	 mov	 rax, rcx
  00075	48 8b c8	 mov	 rcx, rax
  00078	ff 15 00 00 00
	00		 call	 QWORD PTR __imp_?width@ios_base@std@@QEBA_JXZ
  0007e	48 85 c0	 test	 rax, rax
  00081	7e 2d		 jle	 SHORT $LN10@Insert_str
  00083	48 8b 85 00 02
	00 00		 mov	 rax, QWORD PTR _Ostr$[rbp]
  0008a	48 8b 00	 mov	 rax, QWORD PTR [rax]
  0008d	48 63 40 04	 movsxd	 rax, DWORD PTR [rax+4]
  00091	48 8b 8d 00 02
	00 00		 mov	 rcx, QWORD PTR _Ostr$[rbp]
  00098	48 03 c8	 add	 rcx, rax
  0009b	48 8b c1	 mov	 rax, rcx
  0009e	48 8b c8	 mov	 rcx, rax
  000a1	ff 15 00 00 00
	00		 call	 QWORD PTR __imp_?width@ios_base@std@@QEBA_JXZ
  000a7	48 3b 85 10 02
	00 00		 cmp	 rax, QWORD PTR _Size$[rbp]
  000ae	77 0a		 ja	 SHORT $LN8@Insert_str
$LN10@Insert_str:

; 498  :         _Pad = 0;

  000b0	48 c7 45 28 00
	00 00 00	 mov	 QWORD PTR _Pad$[rbp], 0

; 499  :     } else {

  000b8	eb 2f		 jmp	 SHORT $LN9@Insert_str
$LN8@Insert_str:

; 500  :         _Pad = static_cast<_SizeT>(_Ostr.width()) - _Size;

  000ba	48 8b 85 00 02
	00 00		 mov	 rax, QWORD PTR _Ostr$[rbp]
  000c1	48 8b 00	 mov	 rax, QWORD PTR [rax]
  000c4	48 63 40 04	 movsxd	 rax, DWORD PTR [rax+4]
  000c8	48 8b 8d 00 02
	00 00		 mov	 rcx, QWORD PTR _Ostr$[rbp]
  000cf	48 03 c8	 add	 rcx, rax
  000d2	48 8b c1	 mov	 rax, rcx
  000d5	48 8b c8	 mov	 rcx, rax
  000d8	ff 15 00 00 00
	00		 call	 QWORD PTR __imp_?width@ios_base@std@@QEBA_JXZ
  000de	48 2b 85 10 02
	00 00		 sub	 rax, QWORD PTR _Size$[rbp]
  000e5	48 89 45 28	 mov	 QWORD PTR _Pad$[rbp], rax
$LN9@Insert_str:

; 501  :     }
; 502  : 
; 503  :     const typename _Ostr_t::sentry _Ok(_Ostr);

  000e9	48 8b 95 00 02
	00 00		 mov	 rdx, QWORD PTR _Ostr$[rbp]
  000f0	48 8d 4d 48	 lea	 rcx, QWORD PTR _Ok$[rbp]
  000f4	e8 00 00 00 00	 call	 ??0sentry@?$basic_ostream@DU?$char_traits@D@std@@@std@@QEAA@AEAV12@@Z ; std::basic_ostream<char,std::char_traits<char> >::sentry::sentry
  000f9	90		 npad	 1

; 504  : 
; 505  :     if (!_Ok) {

  000fa	48 8d 4d 48	 lea	 rcx, QWORD PTR _Ok$[rbp]
  000fe	e8 00 00 00 00	 call	 ??Bsentry@?$basic_ostream@DU?$char_traits@D@std@@@std@@QEBA_NXZ ; std::basic_ostream<char,std::char_traits<char> >::sentry::operator bool
  00103	0f b6 c0	 movzx	 eax, al
  00106	85 c0		 test	 eax, eax
  00108	75 0e		 jne	 SHORT $LN11@Insert_str

; 506  :         _State |= _Ostr_t::badbit;

  0010a	8b 45 04	 mov	 eax, DWORD PTR _State$[rbp]
  0010d	83 c8 04	 or	 eax, 4
  00110	89 45 04	 mov	 DWORD PTR _State$[rbp], eax

; 507  :     } else { // state okay, insert characters

  00113	e9 3b 02 00 00	 jmp	 $LN12@Insert_str
$LN11@Insert_str:

; 508  :         _TRY_IO_BEGIN
; 509  :         if ((_Ostr.flags() & _Ostr_t::adjustfield) != _Ostr_t::left) {

  00118	48 8b 85 00 02
	00 00		 mov	 rax, QWORD PTR _Ostr$[rbp]
  0011f	48 8b 00	 mov	 rax, QWORD PTR [rax]
  00122	48 63 40 04	 movsxd	 rax, DWORD PTR [rax+4]
  00126	48 8b 8d 00 02
	00 00		 mov	 rcx, QWORD PTR _Ostr$[rbp]
  0012d	48 03 c8	 add	 rcx, rax
  00130	48 8b c1	 mov	 rax, rcx
  00133	48 8b c8	 mov	 rcx, rax
  00136	ff 15 00 00 00
	00		 call	 QWORD PTR __imp_?flags@ios_base@std@@QEBAHXZ
  0013c	25 c0 01 00 00	 and	 eax, 448		; 000001c0H
  00141	83 f8 40	 cmp	 eax, 64			; 00000040H
  00144	0f 84 bd 00 00
	00		 je	 $LN14@Insert_str

; 510  :             for (; 0 < _Pad; --_Pad) { // pad on left

  0014a	eb 0b		 jmp	 SHORT $LN4@Insert_str
$LN2@Insert_str:
  0014c	48 8b 45 28	 mov	 rax, QWORD PTR _Pad$[rbp]
  00150	48 ff c8	 dec	 rax
  00153	48 89 45 28	 mov	 QWORD PTR _Pad$[rbp], rax
$LN4@Insert_str:
  00157	48 83 7d 28 00	 cmp	 QWORD PTR _Pad$[rbp], 0
  0015c	0f 86 a5 00 00
	00		 jbe	 $LN14@Insert_str

; 511  :                 if (_Traits::eq_int_type(_Traits::eof(), _Ostr.rdbuf()->sputc(_Ostr.fill()))) {

  00162	48 8b 85 00 02
	00 00		 mov	 rax, QWORD PTR _Ostr$[rbp]
  00169	48 8b 00	 mov	 rax, QWORD PTR [rax]
  0016c	48 63 40 04	 movsxd	 rax, DWORD PTR [rax+4]
  00170	48 8b 8d 00 02
	00 00		 mov	 rcx, QWORD PTR _Ostr$[rbp]
  00177	48 03 c8	 add	 rcx, rax
  0017a	48 8b c1	 mov	 rax, rcx
  0017d	48 8b c8	 mov	 rcx, rax
  00180	ff 15 00 00 00
	00		 call	 QWORD PTR __imp_?fill@?$basic_ios@DU?$char_traits@D@std@@@std@@QEBADXZ
  00186	88 85 c4 01 00
	00		 mov	 BYTE PTR tv281[rbp], al
  0018c	48 8b 8d 00 02
	00 00		 mov	 rcx, QWORD PTR _Ostr$[rbp]
  00193	48 8b 09	 mov	 rcx, QWORD PTR [rcx]
  00196	48 63 49 04	 movsxd	 rcx, DWORD PTR [rcx+4]
  0019a	48 8b 95 00 02
	00 00		 mov	 rdx, QWORD PTR _Ostr$[rbp]
  001a1	48 03 d1	 add	 rdx, rcx
  001a4	48 8b ca	 mov	 rcx, rdx
  001a7	ff 15 00 00 00
	00		 call	 QWORD PTR __imp_?rdbuf@?$basic_ios@DU?$char_traits@D@std@@@std@@QEBAPEAV?$basic_streambuf@DU?$char_traits@D@std@@@2@XZ
  001ad	0f b6 8d c4 01
	00 00		 movzx	 ecx, BYTE PTR tv281[rbp]
  001b4	0f b6 d1	 movzx	 edx, cl
  001b7	48 8b c8	 mov	 rcx, rax
  001ba	ff 15 00 00 00
	00		 call	 QWORD PTR __imp_?sputc@?$basic_streambuf@DU?$char_traits@D@std@@@std@@QEAAHD@Z
  001c0	89 85 c8 01 00
	00		 mov	 DWORD PTR tv136[rbp], eax
  001c6	8b 85 c8 01 00
	00		 mov	 eax, DWORD PTR tv136[rbp]
  001cc	89 85 34 01 00
	00		 mov	 DWORD PTR $T4[rbp], eax
  001d2	e8 00 00 00 00	 call	 ?eof@?$_Narrow_char_traits@DH@std@@SAHXZ ; std::_Narrow_char_traits<char,int>::eof
  001d7	89 85 54 01 00
	00		 mov	 DWORD PTR $T5[rbp], eax
  001dd	48 8d 95 34 01
	00 00		 lea	 rdx, QWORD PTR $T4[rbp]
  001e4	48 8d 8d 54 01
	00 00		 lea	 rcx, QWORD PTR $T5[rbp]
  001eb	e8 00 00 00 00	 call	 ?eq_int_type@?$_Narrow_char_traits@DH@std@@SA_NAEBH0@Z ; std::_Narrow_char_traits<char,int>::eq_int_type
  001f0	0f b6 c0	 movzx	 eax, al
  001f3	85 c0		 test	 eax, eax
  001f5	74 0b		 je	 SHORT $LN15@Insert_str

; 512  :                     _State |= _Ostr_t::badbit; // insertion failed, quit

  001f7	8b 45 04	 mov	 eax, DWORD PTR _State$[rbp]
  001fa	83 c8 04	 or	 eax, 4
  001fd	89 45 04	 mov	 DWORD PTR _State$[rbp], eax

; 513  :                     break;

  00200	eb 05		 jmp	 SHORT $LN14@Insert_str
$LN15@Insert_str:

; 514  :                 }
; 515  :             }

  00202	e9 45 ff ff ff	 jmp	 $LN2@Insert_str
$LN14@Insert_str:

; 516  :         }
; 517  : 
; 518  :         if (_State == _Ostr_t::goodbit
; 519  :             && _Ostr.rdbuf()->sputn(_Data, static_cast<streamsize>(_Size)) != static_cast<streamsize>(_Size)) {

  00207	83 7d 04 00	 cmp	 DWORD PTR _State$[rbp], 0
  0020b	75 60		 jne	 SHORT $LN16@Insert_str
  0020d	48 8b 85 00 02
	00 00		 mov	 rax, QWORD PTR _Ostr$[rbp]
  00214	48 8b 00	 mov	 rax, QWORD PTR [rax]
  00217	48 63 40 04	 movsxd	 rax, DWORD PTR [rax+4]
  0021b	48 8b 8d 00 02
	00 00		 mov	 rcx, QWORD PTR _Ostr$[rbp]
  00222	48 03 c8	 add	 rcx, rax
  00225	48 8b c1	 mov	 rax, rcx
  00228	48 8b c8	 mov	 rcx, rax
  0022b	ff 15 00 00 00
	00		 call	 QWORD PTR __imp_?rdbuf@?$basic_ios@DU?$char_traits@D@std@@@std@@QEBAPEAV?$basic_streambuf@DU?$char_traits@D@std@@@2@XZ
  00231	4c 8b 85 10 02
	00 00		 mov	 r8, QWORD PTR _Size$[rbp]
  00238	48 8b 95 08 02
	00 00		 mov	 rdx, QWORD PTR _Data$[rbp]
  0023f	48 8b c8	 mov	 rcx, rax
  00242	ff 15 00 00 00
	00		 call	 QWORD PTR __imp_?sputn@?$basic_streambuf@DU?$char_traits@D@std@@@std@@QEAA_JPEBD_J@Z
  00248	48 89 85 c8 01
	00 00		 mov	 QWORD PTR tv291[rbp], rax
  0024f	48 8b 85 10 02
	00 00		 mov	 rax, QWORD PTR _Size$[rbp]
  00256	48 39 85 c8 01
	00 00		 cmp	 QWORD PTR tv291[rbp], rax
  0025d	74 0e		 je	 SHORT $LN16@Insert_str

; 520  :             _State |= _Ostr_t::badbit;

  0025f	8b 45 04	 mov	 eax, DWORD PTR _State$[rbp]
  00262	83 c8 04	 or	 eax, 4
  00265	89 45 04	 mov	 DWORD PTR _State$[rbp], eax

; 521  :         } else {

  00268	e9 bd 00 00 00	 jmp	 $LN17@Insert_str
$LN16@Insert_str:

; 522  :             for (; 0 < _Pad; --_Pad) { // pad on right

  0026d	eb 0b		 jmp	 SHORT $LN7@Insert_str
$LN5@Insert_str:
  0026f	48 8b 45 28	 mov	 rax, QWORD PTR _Pad$[rbp]
  00273	48 ff c8	 dec	 rax
  00276	48 89 45 28	 mov	 QWORD PTR _Pad$[rbp], rax
$LN7@Insert_str:
  0027a	48 83 7d 28 00	 cmp	 QWORD PTR _Pad$[rbp], 0
  0027f	0f 86 a5 00 00
	00		 jbe	 $LN17@Insert_str

; 523  :                 if (_Traits::eq_int_type(_Traits::eof(), _Ostr.rdbuf()->sputc(_Ostr.fill()))) {

  00285	48 8b 85 00 02
	00 00		 mov	 rax, QWORD PTR _Ostr$[rbp]
  0028c	48 8b 00	 mov	 rax, QWORD PTR [rax]
  0028f	48 63 40 04	 movsxd	 rax, DWORD PTR [rax+4]
  00293	48 8b 8d 00 02
	00 00		 mov	 rcx, QWORD PTR _Ostr$[rbp]
  0029a	48 03 c8	 add	 rcx, rax
  0029d	48 8b c1	 mov	 rax, rcx
  002a0	48 8b c8	 mov	 rcx, rax
  002a3	ff 15 00 00 00
	00		 call	 QWORD PTR __imp_?fill@?$basic_ios@DU?$char_traits@D@std@@@std@@QEBADXZ
  002a9	88 85 c4 01 00
	00		 mov	 BYTE PTR tv279[rbp], al
  002af	48 8b 8d 00 02
	00 00		 mov	 rcx, QWORD PTR _Ostr$[rbp]
  002b6	48 8b 09	 mov	 rcx, QWORD PTR [rcx]
  002b9	48 63 49 04	 movsxd	 rcx, DWORD PTR [rcx+4]
  002bd	48 8b 95 00 02
	00 00		 mov	 rdx, QWORD PTR _Ostr$[rbp]
  002c4	48 03 d1	 add	 rdx, rcx
  002c7	48 8b ca	 mov	 rcx, rdx
  002ca	ff 15 00 00 00
	00		 call	 QWORD PTR __imp_?rdbuf@?$basic_ios@DU?$char_traits@D@std@@@std@@QEBAPEAV?$basic_streambuf@DU?$char_traits@D@std@@@2@XZ
  002d0	0f b6 8d c4 01
	00 00		 movzx	 ecx, BYTE PTR tv279[rbp]
  002d7	0f b6 d1	 movzx	 edx, cl
  002da	48 8b c8	 mov	 rcx, rax
  002dd	ff 15 00 00 00
	00		 call	 QWORD PTR __imp_?sputc@?$basic_streambuf@DU?$char_traits@D@std@@@std@@QEAAHD@Z
  002e3	89 85 c8 01 00
	00		 mov	 DWORD PTR tv292[rbp], eax
  002e9	8b 85 c8 01 00
	00		 mov	 eax, DWORD PTR tv292[rbp]
  002ef	89 85 74 01 00
	00		 mov	 DWORD PTR $T6[rbp], eax
  002f5	e8 00 00 00 00	 call	 ?eof@?$_Narrow_char_traits@DH@std@@SAHXZ ; std::_Narrow_char_traits<char,int>::eof
  002fa	89 85 94 01 00
	00		 mov	 DWORD PTR $T7[rbp], eax
  00300	48 8d 95 74 01
	00 00		 lea	 rdx, QWORD PTR $T6[rbp]
  00307	48 8d 8d 94 01
	00 00		 lea	 rcx, QWORD PTR $T7[rbp]
  0030e	e8 00 00 00 00	 call	 ?eq_int_type@?$_Narrow_char_traits@DH@std@@SA_NAEBH0@Z ; std::_Narrow_char_traits<char,int>::eq_int_type
  00313	0f b6 c0	 movzx	 eax, al
  00316	85 c0		 test	 eax, eax
  00318	74 0b		 je	 SHORT $LN18@Insert_str

; 524  :                     _State |= _Ostr_t::badbit; // insertion failed, quit

  0031a	8b 45 04	 mov	 eax, DWORD PTR _State$[rbp]
  0031d	83 c8 04	 or	 eax, 4
  00320	89 45 04	 mov	 DWORD PTR _State$[rbp], eax

; 525  :                     break;

  00323	eb 05		 jmp	 SHORT $LN17@Insert_str
$LN18@Insert_str:

; 526  :                 }
; 527  :             }

  00325	e9 45 ff ff ff	 jmp	 $LN5@Insert_str
$LN17@Insert_str:

; 528  :         }
; 529  : 
; 530  :         _Ostr.width(0);

  0032a	48 8b 85 00 02
	00 00		 mov	 rax, QWORD PTR _Ostr$[rbp]
  00331	48 8b 00	 mov	 rax, QWORD PTR [rax]
  00334	48 63 40 04	 movsxd	 rax, DWORD PTR [rax+4]
  00338	48 8b 8d 00 02
	00 00		 mov	 rcx, QWORD PTR _Ostr$[rbp]
  0033f	48 03 c8	 add	 rcx, rax
  00342	48 8b c1	 mov	 rax, rcx
  00345	33 d2		 xor	 edx, edx
  00347	48 8b c8	 mov	 rcx, rax
  0034a	ff 15 00 00 00
	00		 call	 QWORD PTR __imp_?width@ios_base@std@@QEAA_J_J@Z
  00350	90		 npad	 1
  00351	eb 00		 jmp	 SHORT $LN12@Insert_str
$LN24@Insert_str:
$LN12@Insert_str:

; 531  :         _CATCH_IO_(_Ostr_t, _Ostr)
; 532  :     }
; 533  : 
; 534  :     _Ostr.setstate(_State);

  00353	48 8b 85 00 02
	00 00		 mov	 rax, QWORD PTR _Ostr$[rbp]
  0035a	48 8b 00	 mov	 rax, QWORD PTR [rax]
  0035d	48 63 40 04	 movsxd	 rax, DWORD PTR [rax+4]
  00361	48 8b 8d 00 02
	00 00		 mov	 rcx, QWORD PTR _Ostr$[rbp]
  00368	48 03 c8	 add	 rcx, rax
  0036b	48 8b c1	 mov	 rax, rcx
  0036e	45 33 c0	 xor	 r8d, r8d
  00371	8b 55 04	 mov	 edx, DWORD PTR _State$[rbp]
  00374	48 8b c8	 mov	 rcx, rax
  00377	ff 15 00 00 00
	00		 call	 QWORD PTR __imp_?setstate@?$basic_ios@DU?$char_traits@D@std@@@std@@QEAAXH_N@Z

; 535  :     return _Ostr;

  0037d	48 8b 85 00 02
	00 00		 mov	 rax, QWORD PTR _Ostr$[rbp]
  00384	48 89 85 b8 01
	00 00		 mov	 QWORD PTR $T8[rbp], rax
  0038b	48 8d 4d 48	 lea	 rcx, QWORD PTR _Ok$[rbp]
  0038f	e8 00 00 00 00	 call	 ??1sentry@?$basic_ostream@DU?$char_traits@D@std@@@std@@QEAA@XZ ; std::basic_ostream<char,std::char_traits<char> >::sentry::~sentry
  00394	48 8b 85 b8 01
	00 00		 mov	 rax, QWORD PTR $T8[rbp]

; 536  : }

  0039b	48 8b f8	 mov	 rdi, rax
  0039e	48 8d 4d e0	 lea	 rcx, QWORD PTR [rbp-32]
  003a2	48 8d 15 00 00
	00 00		 lea	 rdx, OFFSET FLAT:??$_Insert_string@DU?$char_traits@D@std@@_K@std@@YAAEAV?$basic_ostream@DU?$char_traits@D@std@@@0@AEAV10@QEBD_K@Z$rtcFrameData
  003a9	e8 00 00 00 00	 call	 _RTC_CheckStackVars
  003ae	48 8b c7	 mov	 rax, rdi
  003b1	48 8b 8d d0 01
	00 00		 mov	 rcx, QWORD PTR __$ArrayPad$[rbp]
  003b8	48 33 cd	 xor	 rcx, rbp
  003bb	e8 00 00 00 00	 call	 __security_check_cookie
  003c0	48 8d a5 e8 01
	00 00		 lea	 rsp, QWORD PTR [rbp+488]
  003c7	5f		 pop	 rdi
  003c8	5d		 pop	 rbp
  003c9	c3		 ret	 0
??$_Insert_string@DU?$char_traits@D@std@@_K@std@@YAAEAV?$basic_ostream@DU?$char_traits@D@std@@@0@AEAV10@QEBD_K@Z ENDP ; std::_Insert_string<char,std::char_traits<char>,unsigned __int64>
_TEXT	ENDS
; Function compile flags: /Odtp /RTCsu /ZI
;	COMDAT text$x
text$x	SEGMENT
_State$ = 4
_Pad$ = 40
_Ok$ = 72
$T4 = 308
$T5 = 340
$T6 = 372
$T7 = 404
$T8 = 440
tv281 = 452
tv279 = 452
tv292 = 456
tv291 = 456
tv136 = 456
__$ArrayPad$ = 464
_Ostr$ = 512
_Data$ = 520
_Size$ = 528
?dtor$0@?0???$_Insert_string@DU?$char_traits@D@std@@_K@std@@YAAEAV?$basic_ostream@DU?$char_traits@D@std@@@0@AEAV10@QEBD_K@Z@4HA PROC ; `std::_Insert_string<char,std::char_traits<char>,unsigned __int64>'::`1'::dtor$0
  00000	48 89 4c 24 08	 mov	 QWORD PTR [rsp+8], rcx
  00005	48 89 54 24 10	 mov	 QWORD PTR [rsp+16], rdx
  0000a	55		 push	 rbp
  0000b	57		 push	 rdi
  0000c	48 83 ec 28	 sub	 rsp, 40			; 00000028H
  00010	48 8d 6a 20	 lea	 rbp, QWORD PTR [rdx+32]
  00014	48 8d 4d 48	 lea	 rcx, QWORD PTR _Ok$[rbp]
  00018	e8 00 00 00 00	 call	 ??1sentry@?$basic_ostream@DU?$char_traits@D@std@@@std@@QEAA@XZ ; std::basic_ostream<char,std::char_traits<char> >::sentry::~sentry
  0001d	48 83 c4 28	 add	 rsp, 40			; 00000028H
  00021	5f		 pop	 rdi
  00022	5d		 pop	 rbp
  00023	c3		 ret	 0
?dtor$0@?0???$_Insert_string@DU?$char_traits@D@std@@_K@std@@YAAEAV?$basic_ostream@DU?$char_traits@D@std@@@0@AEAV10@QEBD_K@Z@4HA ENDP ; `std::_Insert_string<char,std::char_traits<char>,unsigned __int64>'::`1'::dtor$0
text$x	ENDS
; Function compile flags: /Odtp /RTCsu /ZI
;	COMDAT text$x
text$x	SEGMENT
_State$ = 4
_Pad$ = 40
_Ok$ = 72
$T4 = 308
$T5 = 340
$T6 = 372
$T7 = 404
$T8 = 440
tv281 = 452
tv279 = 452
tv292 = 456
tv291 = 456
tv136 = 456
__$ArrayPad$ = 464
_Ostr$ = 512
_Data$ = 520
_Size$ = 528
?catch$1@?0???$_Insert_string@DU?$char_traits@D@std@@_K@std@@YAAEAV?$basic_ostream@DU?$char_traits@D@std@@@0@AEAV10@QEBD_K@Z@4HA PROC ; `std::_Insert_string<char,std::char_traits<char>,unsigned __int64>'::`1'::catch$1

; 531  :         _CATCH_IO_(_Ostr_t, _Ostr)

  00000	48 89 4c 24 08	 mov	 QWORD PTR [rsp+8], rcx
  00005	48 89 54 24 10	 mov	 QWORD PTR [rsp+16], rdx
  0000a	55		 push	 rbp
  0000b	57		 push	 rdi
  0000c	48 83 ec 28	 sub	 rsp, 40			; 00000028H
  00010	48 8d 6a 20	 lea	 rbp, QWORD PTR [rdx+32]
__catch$??$_Insert_string@DU?$char_traits@D@std@@_K@std@@YAAEAV?$basic_ostream@DU?$char_traits@D@std@@@0@AEAV10@QEBD_K@Z$0:
  00014	48 8b 85 00 02
	00 00		 mov	 rax, QWORD PTR _Ostr$[rbp]
  0001b	48 8b 00	 mov	 rax, QWORD PTR [rax]
  0001e	48 63 40 04	 movsxd	 rax, DWORD PTR [rax+4]
  00022	48 8b 8d 00 02
	00 00		 mov	 rcx, QWORD PTR _Ostr$[rbp]
  00029	48 03 c8	 add	 rcx, rax
  0002c	48 8b c1	 mov	 rax, rcx
  0002f	41 b0 01	 mov	 r8b, 1
  00032	ba 04 00 00 00	 mov	 edx, 4
  00037	48 8b c8	 mov	 rcx, rax
  0003a	ff 15 00 00 00
	00		 call	 QWORD PTR __imp_?setstate@?$basic_ios@DU?$char_traits@D@std@@@std@@QEAAXH_N@Z
  00040	90		 npad	 1
  00041	48 8d 05 00 00
	00 00		 lea	 rax, $LN24@catch$1
  00048	48 83 c4 28	 add	 rsp, 40			; 00000028H
  0004c	5f		 pop	 rdi
  0004d	5d		 pop	 rbp
  0004e	c3		 ret	 0
  0004f	cc		 int	 3
?catch$1@?0???$_Insert_string@DU?$char_traits@D@std@@_K@std@@YAAEAV?$basic_ostream@DU?$char_traits@D@std@@@0@AEAV10@QEBD_K@Z@4HA ENDP ; `std::_Insert_string<char,std::char_traits<char>,unsigned __int64>'::`1'::catch$1
text$x	ENDS
; Function compile flags: /Odtp /RTCsu /ZI
; File C:\Program Files\Microsoft Visual Studio\2022\Community\VC\Tools\MSVC\14.37.32822\include\xmemory
;	COMDAT ??$_Deallocate@$0BA@$0A@@std@@YAXPEAX_K@Z
_TEXT	SEGMENT
_Ptr$ = 224
_Bytes$ = 232
??$_Deallocate@$0BA@$0A@@std@@YAXPEAX_K@Z PROC		; std::_Deallocate<16,0>, COMDAT

; 252  : _CONSTEXPR20 void _Deallocate(void* _Ptr, size_t _Bytes) noexcept {

$LN4:
  00000	48 89 54 24 10	 mov	 QWORD PTR [rsp+16], rdx
  00005	48 89 4c 24 08	 mov	 QWORD PTR [rsp+8], rcx
  0000a	55		 push	 rbp
  0000b	57		 push	 rdi
  0000c	48 81 ec e8 00
	00 00		 sub	 rsp, 232		; 000000e8H
  00013	48 8d 6c 24 20	 lea	 rbp, QWORD PTR [rsp+32]
  00018	48 8d 0d 00 00
	00 00		 lea	 rcx, OFFSET FLAT:__A594BF75_xmemory
  0001f	e8 00 00 00 00	 call	 __CheckForDebuggerJustMyCode

; 253  :     // deallocate storage allocated by _Allocate when !_HAS_ALIGNED_NEW || _Align <= __STDCPP_DEFAULT_NEW_ALIGNMENT__
; 254  : #if _HAS_CXX20 // TRANSITION, GH-1532
; 255  :     if (_STD is_constant_evaluated()) {
; 256  :         ::operator delete(_Ptr);
; 257  :     } else
; 258  : #endif // _HAS_CXX20
; 259  :     {
; 260  : #if defined(_M_IX86) || defined(_M_X64)
; 261  :         if (_Bytes >= _Big_allocation_threshold) { // boost the alignment of big allocations to help autovectorization

  00024	48 81 bd e8 00
	00 00 00 10 00
	00		 cmp	 QWORD PTR _Bytes$[rbp], 4096 ; 00001000H
  0002f	72 13		 jb	 SHORT $LN2@Deallocate

; 262  :             _Adjust_manually_vector_aligned(_Ptr, _Bytes);

  00031	48 8d 95 e8 00
	00 00		 lea	 rdx, QWORD PTR _Bytes$[rbp]
  00038	48 8d 8d e0 00
	00 00		 lea	 rcx, QWORD PTR _Ptr$[rbp]
  0003f	e8 00 00 00 00	 call	 ?_Adjust_manually_vector_aligned@std@@YAXAEAPEAXAEA_K@Z ; std::_Adjust_manually_vector_aligned
$LN2@Deallocate:

; 263  :         }
; 264  : #endif // defined(_M_IX86) || defined(_M_X64)
; 265  :         ::operator delete(_Ptr, _Bytes);

  00044	48 8b 95 e8 00
	00 00		 mov	 rdx, QWORD PTR _Bytes$[rbp]
  0004b	48 8b 8d e0 00
	00 00		 mov	 rcx, QWORD PTR _Ptr$[rbp]
  00052	e8 00 00 00 00	 call	 ??3@YAXPEAX_K@Z		; operator delete
  00057	90		 npad	 1

; 266  :     }
; 267  : }

  00058	48 8d a5 c8 00
	00 00		 lea	 rsp, QWORD PTR [rbp+200]
  0005f	5f		 pop	 rdi
  00060	5d		 pop	 rbp
  00061	c3		 ret	 0
??$_Deallocate@$0BA@$0A@@std@@YAXPEAX_K@Z ENDP		; std::_Deallocate<16,0>
_TEXT	ENDS
; Function compile flags: /Odtp /RTCsu /ZI
; File C:\Program Files\Microsoft Visual Studio\2022\Community\VC\Tools\MSVC\14.37.32822\include\utility
;	COMDAT ??$max@_K@std@@YAAEB_KAEB_K0@Z
_TEXT	SEGMENT
$T1 = 200
tv65 = 216
_Left$ = 256
_Right$ = 264
??$max@_K@std@@YAAEB_KAEB_K0@Z PROC			; std::max<unsigned __int64>, COMDAT

; 45   :     (max) (const _Ty& _Left, const _Ty& _Right) noexcept(noexcept(_Left < _Right)) /* strengthened */ {

$LN5:
  00000	48 89 54 24 10	 mov	 QWORD PTR [rsp+16], rdx
  00005	48 89 4c 24 08	 mov	 QWORD PTR [rsp+8], rcx
  0000a	55		 push	 rbp
  0000b	57		 push	 rdi
  0000c	48 81 ec 08 01
	00 00		 sub	 rsp, 264		; 00000108H
  00013	48 8d 6c 24 20	 lea	 rbp, QWORD PTR [rsp+32]
  00018	48 8d 0d 00 00
	00 00		 lea	 rcx, OFFSET FLAT:__CF01DCB6_utility
  0001f	e8 00 00 00 00	 call	 __CheckForDebuggerJustMyCode

; 46   :     // return larger of _Left and _Right
; 47   :     return _Left < _Right ? _Right : _Left;

  00024	48 8b 85 00 01
	00 00		 mov	 rax, QWORD PTR _Left$[rbp]
  0002b	48 8b 8d 08 01
	00 00		 mov	 rcx, QWORD PTR _Right$[rbp]
  00032	48 8b 09	 mov	 rcx, QWORD PTR [rcx]
  00035	48 39 08	 cmp	 QWORD PTR [rax], rcx
  00038	73 10		 jae	 SHORT $LN3@max
  0003a	48 8b 85 08 01
	00 00		 mov	 rax, QWORD PTR _Right$[rbp]
  00041	48 89 85 d8 00
	00 00		 mov	 QWORD PTR tv65[rbp], rax
  00048	eb 0e		 jmp	 SHORT $LN4@max
$LN3@max:
  0004a	48 8b 85 00 01
	00 00		 mov	 rax, QWORD PTR _Left$[rbp]
  00051	48 89 85 d8 00
	00 00		 mov	 QWORD PTR tv65[rbp], rax
$LN4@max:
  00058	48 8b 85 d8 00
	00 00		 mov	 rax, QWORD PTR tv65[rbp]
  0005f	48 89 85 c8 00
	00 00		 mov	 QWORD PTR $T1[rbp], rax
  00066	48 8b 85 c8 00
	00 00		 mov	 rax, QWORD PTR $T1[rbp]

; 48   : }

  0006d	48 8d a5 e8 00
	00 00		 lea	 rsp, QWORD PTR [rbp+232]
  00074	5f		 pop	 rdi
  00075	5d		 pop	 rbp
  00076	c3		 ret	 0
??$max@_K@std@@YAAEB_KAEB_K0@Z ENDP			; std::max<unsigned __int64>
_TEXT	ENDS
; Function compile flags: /Odtp /RTCsu /ZI
; File C:\Program Files\Microsoft Visual Studio\2022\Community\VC\Tools\MSVC\14.37.32822\include\xmemory
;	COMDAT ??$_Unfancy@D@std@@YAPEADPEAD@Z
_TEXT	SEGMENT
_Ptr$ = 224
??$_Unfancy@D@std@@YAPEADPEAD@Z PROC			; std::_Unfancy<char>, COMDAT

; 36   : _NODISCARD constexpr _Ty* _Unfancy(_Ty* _Ptr) noexcept { // do nothing for plain pointers

$LN3:
  00000	48 89 4c 24 08	 mov	 QWORD PTR [rsp+8], rcx
  00005	55		 push	 rbp
  00006	57		 push	 rdi
  00007	48 81 ec e8 00
	00 00		 sub	 rsp, 232		; 000000e8H
  0000e	48 8d 6c 24 20	 lea	 rbp, QWORD PTR [rsp+32]
  00013	48 8d 0d 00 00
	00 00		 lea	 rcx, OFFSET FLAT:__A594BF75_xmemory
  0001a	e8 00 00 00 00	 call	 __CheckForDebuggerJustMyCode

; 37   :     return _Ptr;

  0001f	48 8b 85 e0 00
	00 00		 mov	 rax, QWORD PTR _Ptr$[rbp]

; 38   : }

  00026	48 8d a5 c8 00
	00 00		 lea	 rsp, QWORD PTR [rbp+200]
  0002d	5f		 pop	 rdi
  0002e	5d		 pop	 rbp
  0002f	c3		 ret	 0
??$_Unfancy@D@std@@YAPEADPEAD@Z ENDP			; std::_Unfancy<char>
_TEXT	ENDS
; Function compile flags: /Odtp /RTCsu /ZI
; File C:\Program Files\Microsoft Visual Studio\2022\Community\VC\Tools\MSVC\14.37.32822\include\xmemory
;	COMDAT ??$_Destroy_in_place@PEAD@std@@YAXAEAPEAD@Z
_TEXT	SEGMENT
_Obj$ = 224
??$_Destroy_in_place@PEAD@std@@YAXAEAPEAD@Z PROC	; std::_Destroy_in_place<char *>, COMDAT

; 304  : _CONSTEXPR20 void _Destroy_in_place(_Ty& _Obj) noexcept {

$LN3:
  00000	48 89 4c 24 08	 mov	 QWORD PTR [rsp+8], rcx
  00005	55		 push	 rbp
  00006	57		 push	 rdi
  00007	48 81 ec e8 00
	00 00		 sub	 rsp, 232		; 000000e8H
  0000e	48 8d 6c 24 20	 lea	 rbp, QWORD PTR [rsp+32]
  00013	48 8d 0d 00 00
	00 00		 lea	 rcx, OFFSET FLAT:__A594BF75_xmemory
  0001a	e8 00 00 00 00	 call	 __CheckForDebuggerJustMyCode

; 305  :     if constexpr (is_array_v<_Ty>) {
; 306  :         _Destroy_range(_Obj, _Obj + extent_v<_Ty>);
; 307  :     } else {
; 308  :         _Obj.~_Ty();
; 309  :     }
; 310  : }

  0001f	48 8d a5 c8 00
	00 00		 lea	 rsp, QWORD PTR [rbp+200]
  00026	5f		 pop	 rdi
  00027	5d		 pop	 rbp
  00028	c3		 ret	 0
??$_Destroy_in_place@PEAD@std@@YAXAEAPEAD@Z ENDP	; std::_Destroy_in_place<char *>
_TEXT	ENDS
; Function compile flags: /Odtp /RTCsu /ZI
; File C:\Program Files\Microsoft Visual Studio\2022\Community\VC\Tools\MSVC\14.37.32822\include\xstring
;	COMDAT ??$_Construct@$01PEBD@?$basic_string@DU?$char_traits@D@std@@V?$allocator@D@2@@std@@AEAAXQEBD_K@Z
_TEXT	SEGMENT
_My_data$ = 8
_Al$ = 40
_Alproxy$ = 72
$S9$ = 100
_Proxy$ = 136
_New_capacity$ = 184
_New_ptr$ = 216
tv150 = 424
tv142 = 424
__$ArrayPad$ = 432
this$ = 480
_Arg$ = 488
_Count$ = 496
??$_Construct@$01PEBD@?$basic_string@DU?$char_traits@D@std@@V?$allocator@D@2@@std@@AEAAXQEBD_K@Z PROC ; std::basic_string<char,std::char_traits<char>,std::allocator<char> >::_Construct<2,char const *>, COMDAT

; 2610 :     _CONSTEXPR20 void _Construct(const _Char_or_ptr _Arg, _CRT_GUARDOVERFLOW const size_type _Count) {

$LN7:
  00000	4c 89 44 24 18	 mov	 QWORD PTR [rsp+24], r8
  00005	48 89 54 24 10	 mov	 QWORD PTR [rsp+16], rdx
  0000a	48 89 4c 24 08	 mov	 QWORD PTR [rsp+8], rcx
  0000f	55		 push	 rbp
  00010	57		 push	 rdi
  00011	48 81 ec e8 01
	00 00		 sub	 rsp, 488		; 000001e8H
  00018	48 8d 6c 24 20	 lea	 rbp, QWORD PTR [rsp+32]
  0001d	48 8d 7c 24 20	 lea	 rdi, QWORD PTR [rsp+32]
  00022	b9 42 00 00 00	 mov	 ecx, 66			; 00000042H
  00027	b8 cc cc cc cc	 mov	 eax, -858993460		; ccccccccH
  0002c	f3 ab		 rep stosd
  0002e	48 8b 8c 24 08
	02 00 00	 mov	 rcx, QWORD PTR [rsp+520]
  00036	48 8b 05 00 00
	00 00		 mov	 rax, QWORD PTR __security_cookie
  0003d	48 33 c5	 xor	 rax, rbp
  00040	48 89 85 b0 01
	00 00		 mov	 QWORD PTR __$ArrayPad$[rbp], rax
  00047	48 8d 0d 00 00
	00 00		 lea	 rcx, OFFSET FLAT:__D14739E9_xstring
  0004e	e8 00 00 00 00	 call	 __CheckForDebuggerJustMyCode

; 2611 :         auto& _My_data = _Mypair._Myval2;

  00053	48 8b 85 e0 01
	00 00		 mov	 rax, QWORD PTR this$[rbp]
  0005a	48 89 45 08	 mov	 QWORD PTR _My_data$[rbp], rax

; 2612 :         _STL_INTERNAL_CHECK(!_My_data._Large_string_engaged());
; 2613 : 
; 2614 :         if constexpr (_Strat == _Construct_strategy::_From_char) {
; 2615 :             _STL_INTERNAL_STATIC_ASSERT(is_same_v<_Char_or_ptr, _Elem>);
; 2616 :         } else {
; 2617 :             _STL_INTERNAL_STATIC_ASSERT(_Is_elem_cptr<_Char_or_ptr>::value);
; 2618 :         }
; 2619 : 
; 2620 :         if (_Count > max_size()) {

  0005e	48 8b 8d e0 01
	00 00		 mov	 rcx, QWORD PTR this$[rbp]
  00065	e8 00 00 00 00	 call	 ?max_size@?$basic_string@DU?$char_traits@D@std@@V?$allocator@D@2@@std@@QEBA_KXZ ; std::basic_string<char,std::char_traits<char>,std::allocator<char> >::max_size
  0006a	48 39 85 f0 01
	00 00		 cmp	 QWORD PTR _Count$[rbp], rax
  00071	76 05		 jbe	 SHORT $LN2@Construct

; 2621 :             _Xlen_string(); // result too long

  00073	e8 00 00 00 00	 call	 ?_Xlen_string@std@@YAXXZ ; std::_Xlen_string
$LN2@Construct:

; 2622 :         }
; 2623 : 
; 2624 :         auto& _Al       = _Getal();

  00078	48 8b 8d e0 01
	00 00		 mov	 rcx, QWORD PTR this$[rbp]
  0007f	e8 00 00 00 00	 call	 ?_Getal@?$basic_string@DU?$char_traits@D@std@@V?$allocator@D@2@@std@@AEAAAEAV?$allocator@D@2@XZ ; std::basic_string<char,std::char_traits<char>,std::allocator<char> >::_Getal
  00084	48 89 45 28	 mov	 QWORD PTR _Al$[rbp], rax

; 2625 :         auto&& _Alproxy = _GET_PROXY_ALLOCATOR(_Alty, _Al);

  00088	48 8b 55 28	 mov	 rdx, QWORD PTR _Al$[rbp]
  0008c	48 8d 4d 64	 lea	 rcx, QWORD PTR $S9$[rbp]
  00090	e8 00 00 00 00	 call	 ??$?0D@?$allocator@U_Container_proxy@std@@@std@@QEAA@AEBV?$allocator@D@1@@Z ; std::allocator<std::_Container_proxy>::allocator<std::_Container_proxy><char>
  00095	48 8d 45 64	 lea	 rax, QWORD PTR $S9$[rbp]
  00099	48 89 45 48	 mov	 QWORD PTR _Alproxy$[rbp], rax

; 2626 :         _Container_proxy_ptr<_Alty> _Proxy(_Alproxy, _My_data);

  0009d	4c 8b 45 08	 mov	 r8, QWORD PTR _My_data$[rbp]
  000a1	48 8b 55 48	 mov	 rdx, QWORD PTR _Alproxy$[rbp]
  000a5	48 8d 8d 88 00
	00 00		 lea	 rcx, QWORD PTR _Proxy$[rbp]
  000ac	e8 00 00 00 00	 call	 ??0?$_Container_proxy_ptr12@V?$allocator@U_Container_proxy@std@@@std@@@std@@QEAA@AEAV?$allocator@U_Container_proxy@std@@@1@AEAU_Container_base12@1@@Z ; std::_Container_proxy_ptr12<std::allocator<std::_Container_proxy> >::_Container_proxy_ptr12<std::allocator<std::_Container_proxy> >
  000b1	90		 npad	 1

; 2627 : 
; 2628 :         if (_Count < _BUF_SIZE) {

  000b2	48 83 bd f0 01
	00 00 10	 cmp	 QWORD PTR _Count$[rbp], 16
  000ba	73 56		 jae	 SHORT $LN3@Construct

; 2629 :             _My_data._Mysize = _Count;

  000bc	48 8b 45 08	 mov	 rax, QWORD PTR _My_data$[rbp]
  000c0	48 8b 8d f0 01
	00 00		 mov	 rcx, QWORD PTR _Count$[rbp]
  000c7	48 89 48 18	 mov	 QWORD PTR [rax+24], rcx

; 2630 :             _My_data._Myres  = _BUF_SIZE - 1;

  000cb	48 8b 45 08	 mov	 rax, QWORD PTR _My_data$[rbp]
  000cf	48 c7 40 20 0f
	00 00 00	 mov	 QWORD PTR [rax+32], 15

; 2631 : 
; 2632 :             if constexpr (_Strat == _Construct_strategy::_From_char) {
; 2633 :                 _Traits::assign(_My_data._Bx._Buf, _Count, _Arg);
; 2634 :                 _Traits::assign(_My_data._Bx._Buf[_Count], _Elem());
; 2635 :             } else if constexpr (_Strat == _Construct_strategy::_From_ptr) {
; 2636 :                 _Traits::copy(_My_data._Bx._Buf, _Arg, _Count);
; 2637 :                 _Traits::assign(_My_data._Bx._Buf[_Count], _Elem());
; 2638 :             } else { // _Strat == _Construct_strategy::_From_string
; 2639 : #ifdef _INSERT_STRING_ANNOTATION
; 2640 :                 _Traits::copy(_My_data._Bx._Buf, _Arg, _Count + 1);
; 2641 : #else // ^^^ _INSERT_STRING_ANNOTATION / !_INSERT_STRING_ANNOTATION vvv
; 2642 :                 _Traits::copy(_My_data._Bx._Buf, _Arg, _BUF_SIZE);

  000d7	48 8b 45 08	 mov	 rax, QWORD PTR _My_data$[rbp]
  000db	48 83 c0 08	 add	 rax, 8
  000df	41 b8 10 00 00
	00		 mov	 r8d, 16
  000e5	48 8b 95 e8 01
	00 00		 mov	 rdx, QWORD PTR _Arg$[rbp]
  000ec	48 8b c8	 mov	 rcx, rax
  000ef	e8 00 00 00 00	 call	 ?copy@?$_Char_traits@DH@std@@SAPEADQEADQEBD_K@Z ; std::_Char_traits<char,int>::copy

; 2643 : #endif // !_INSERT_STRING_ANNOTATION
; 2644 :             }
; 2645 : 
; 2646 :             _Proxy._Release();

  000f4	48 8d 8d 88 00
	00 00		 lea	 rcx, QWORD PTR _Proxy$[rbp]
  000fb	e8 00 00 00 00	 call	 ?_Release@_Basic_container_proxy_ptr12@std@@QEAAXXZ ; std::_Basic_container_proxy_ptr12::_Release
  00100	90		 npad	 1

; 2647 :             return;

  00101	48 8d 8d 88 00
	00 00		 lea	 rcx, QWORD PTR _Proxy$[rbp]
  00108	e8 00 00 00 00	 call	 ??1?$_Container_proxy_ptr12@V?$allocator@U_Container_proxy@std@@@std@@@std@@QEAA@XZ ; std::_Container_proxy_ptr12<std::allocator<std::_Container_proxy> >::~_Container_proxy_ptr12<std::allocator<std::_Container_proxy> >
  0010d	e9 f6 00 00 00	 jmp	 $LN4@Construct
$LN3@Construct:

; 2648 :         }
; 2649 : 
; 2650 :         _My_data._Myres               = _BUF_SIZE - 1;

  00112	48 8b 45 08	 mov	 rax, QWORD PTR _My_data$[rbp]
  00116	48 c7 40 20 0f
	00 00 00	 mov	 QWORD PTR [rax+32], 15

; 2651 :         const size_type _New_capacity = _Calculate_growth(_Count);

  0011e	48 8b 95 f0 01
	00 00		 mov	 rdx, QWORD PTR _Count$[rbp]
  00125	48 8b 8d e0 01
	00 00		 mov	 rcx, QWORD PTR this$[rbp]
  0012c	e8 00 00 00 00	 call	 ?_Calculate_growth@?$basic_string@DU?$char_traits@D@std@@V?$allocator@D@2@@std@@AEBA_K_K@Z ; std::basic_string<char,std::char_traits<char>,std::allocator<char> >::_Calculate_growth
  00131	48 89 85 b8 00
	00 00		 mov	 QWORD PTR _New_capacity$[rbp], rax

; 2652 :         const pointer _New_ptr        = _Al.allocate(_New_capacity + 1); // throws

  00138	48 8b 85 b8 00
	00 00		 mov	 rax, QWORD PTR _New_capacity$[rbp]
  0013f	48 ff c0	 inc	 rax
  00142	48 8b d0	 mov	 rdx, rax
  00145	48 8b 4d 28	 mov	 rcx, QWORD PTR _Al$[rbp]
  00149	e8 00 00 00 00	 call	 ?allocate@?$allocator@D@std@@QEAAPEAD_K@Z ; std::allocator<char>::allocate
  0014e	48 89 85 d8 00
	00 00		 mov	 QWORD PTR _New_ptr$[rbp], rax

; 2653 :         _Construct_in_place(_My_data._Bx._Ptr, _New_ptr);

  00155	48 8b 45 08	 mov	 rax, QWORD PTR _My_data$[rbp]
  00159	48 83 c0 08	 add	 rax, 8
  0015d	48 8d 95 d8 00
	00 00		 lea	 rdx, QWORD PTR _New_ptr$[rbp]
  00164	48 8b c8	 mov	 rcx, rax
  00167	e8 00 00 00 00	 call	 ??$_Construct_in_place@PEADAEBQEAD@std@@YAXAEAPEADAEBQEAD@Z ; std::_Construct_in_place<char *,char * const &>

; 2654 : 
; 2655 :         _Start_element_lifetimes(_Unfancy(_New_ptr), _New_capacity + 1);

  0016c	48 8b 85 b8 00
	00 00		 mov	 rax, QWORD PTR _New_capacity$[rbp]
  00173	48 ff c0	 inc	 rax
  00176	48 89 85 a8 01
	00 00		 mov	 QWORD PTR tv142[rbp], rax
  0017d	48 8b 8d d8 00
	00 00		 mov	 rcx, QWORD PTR _New_ptr$[rbp]
  00184	e8 00 00 00 00	 call	 ??$_Unfancy@D@std@@YAPEADPEAD@Z ; std::_Unfancy<char>
  00189	48 8b 8d a8 01
	00 00		 mov	 rcx, QWORD PTR tv142[rbp]
  00190	48 8b d1	 mov	 rdx, rcx
  00193	48 8b c8	 mov	 rcx, rax
  00196	e8 00 00 00 00	 call	 ?_Start_element_lifetimes@?$basic_string@DU?$char_traits@D@std@@V?$allocator@D@2@@std@@CAXQEAD_K@Z ; std::basic_string<char,std::char_traits<char>,std::allocator<char> >::_Start_element_lifetimes

; 2656 : 
; 2657 :         _My_data._Mysize = _Count;

  0019b	48 8b 45 08	 mov	 rax, QWORD PTR _My_data$[rbp]
  0019f	48 8b 8d f0 01
	00 00		 mov	 rcx, QWORD PTR _Count$[rbp]
  001a6	48 89 48 18	 mov	 QWORD PTR [rax+24], rcx

; 2658 :         _My_data._Myres  = _New_capacity;

  001aa	48 8b 45 08	 mov	 rax, QWORD PTR _My_data$[rbp]
  001ae	48 8b 8d b8 00
	00 00		 mov	 rcx, QWORD PTR _New_capacity$[rbp]
  001b5	48 89 48 20	 mov	 QWORD PTR [rax+32], rcx

; 2659 :         if constexpr (_Strat == _Construct_strategy::_From_char) {
; 2660 :             _Traits::assign(_Unfancy(_New_ptr), _Count, _Arg);
; 2661 :             _Traits::assign(_Unfancy(_New_ptr)[_Count], _Elem());
; 2662 :         } else if constexpr (_Strat == _Construct_strategy::_From_ptr) {
; 2663 :             _Traits::copy(_Unfancy(_New_ptr), _Arg, _Count);
; 2664 :             _Traits::assign(_Unfancy(_New_ptr)[_Count], _Elem());
; 2665 :         } else { // _Strat == _Construct_strategy::_From_string
; 2666 :             _Traits::copy(_Unfancy(_New_ptr), _Arg, _Count + 1);

  001b9	48 8b 85 f0 01
	00 00		 mov	 rax, QWORD PTR _Count$[rbp]
  001c0	48 ff c0	 inc	 rax
  001c3	48 89 85 a8 01
	00 00		 mov	 QWORD PTR tv150[rbp], rax
  001ca	48 8b 8d d8 00
	00 00		 mov	 rcx, QWORD PTR _New_ptr$[rbp]
  001d1	e8 00 00 00 00	 call	 ??$_Unfancy@D@std@@YAPEADPEAD@Z ; std::_Unfancy<char>
  001d6	48 8b 8d a8 01
	00 00		 mov	 rcx, QWORD PTR tv150[rbp]
  001dd	4c 8b c1	 mov	 r8, rcx
  001e0	48 8b 95 e8 01
	00 00		 mov	 rdx, QWORD PTR _Arg$[rbp]
  001e7	48 8b c8	 mov	 rcx, rax
  001ea	e8 00 00 00 00	 call	 ?copy@?$_Char_traits@DH@std@@SAPEADQEADQEBD_K@Z ; std::_Char_traits<char,int>::copy

; 2667 :         }
; 2668 : 
; 2669 :         _ASAN_STRING_CREATE(*this);
; 2670 :         _Proxy._Release();

  001ef	48 8d 8d 88 00
	00 00		 lea	 rcx, QWORD PTR _Proxy$[rbp]
  001f6	e8 00 00 00 00	 call	 ?_Release@_Basic_container_proxy_ptr12@std@@QEAAXXZ ; std::_Basic_container_proxy_ptr12::_Release
  001fb	90		 npad	 1

; 2671 :     }

  001fc	48 8d 8d 88 00
	00 00		 lea	 rcx, QWORD PTR _Proxy$[rbp]
  00203	e8 00 00 00 00	 call	 ??1?$_Container_proxy_ptr12@V?$allocator@U_Container_proxy@std@@@std@@@std@@QEAA@XZ ; std::_Container_proxy_ptr12<std::allocator<std::_Container_proxy> >::~_Container_proxy_ptr12<std::allocator<std::_Container_proxy> >
$LN4@Construct:
  00208	48 8d 4d e0	 lea	 rcx, QWORD PTR [rbp-32]
  0020c	48 8d 15 00 00
	00 00		 lea	 rdx, OFFSET FLAT:??$_Construct@$01PEBD@?$basic_string@DU?$char_traits@D@std@@V?$allocator@D@2@@std@@AEAAXQEBD_K@Z$rtcFrameData
  00213	e8 00 00 00 00	 call	 _RTC_CheckStackVars
  00218	48 8b 8d b0 01
	00 00		 mov	 rcx, QWORD PTR __$ArrayPad$[rbp]
  0021f	48 33 cd	 xor	 rcx, rbp
  00222	e8 00 00 00 00	 call	 __security_check_cookie
  00227	48 8d a5 c8 01
	00 00		 lea	 rsp, QWORD PTR [rbp+456]
  0022e	5f		 pop	 rdi
  0022f	5d		 pop	 rbp
  00230	c3		 ret	 0
$LN6@Construct:
??$_Construct@$01PEBD@?$basic_string@DU?$char_traits@D@std@@V?$allocator@D@2@@std@@AEAAXQEBD_K@Z ENDP ; std::basic_string<char,std::char_traits<char>,std::allocator<char> >::_Construct<2,char const *>
_TEXT	ENDS
; Function compile flags: /Odtp /RTCsu /ZI
;	COMDAT text$x
text$x	SEGMENT
_My_data$ = 8
_Al$ = 40
_Alproxy$ = 72
$S9$ = 100
_Proxy$ = 136
_New_capacity$ = 184
_New_ptr$ = 216
tv150 = 424
tv142 = 424
__$ArrayPad$ = 432
this$ = 480
_Arg$ = 488
_Count$ = 496
?dtor$0@?0???$_Construct@$01PEBD@?$basic_string@DU?$char_traits@D@std@@V?$allocator@D@2@@std@@AEAAXQEBD_K@Z@4HA PROC ; `std::basic_string<char,std::char_traits<char>,std::allocator<char> >::_Construct<2,char const *>'::`1'::dtor$0
  00000	48 89 4c 24 08	 mov	 QWORD PTR [rsp+8], rcx
  00005	48 89 54 24 10	 mov	 QWORD PTR [rsp+16], rdx
  0000a	55		 push	 rbp
  0000b	57		 push	 rdi
  0000c	48 83 ec 28	 sub	 rsp, 40			; 00000028H
  00010	48 8d 6a 20	 lea	 rbp, QWORD PTR [rdx+32]
  00014	48 8d 8d 88 00
	00 00		 lea	 rcx, QWORD PTR _Proxy$[rbp]
  0001b	e8 00 00 00 00	 call	 ??1?$_Container_proxy_ptr12@V?$allocator@U_Container_proxy@std@@@std@@@std@@QEAA@XZ ; std::_Container_proxy_ptr12<std::allocator<std::_Container_proxy> >::~_Container_proxy_ptr12<std::allocator<std::_Container_proxy> >
  00020	48 83 c4 28	 add	 rsp, 40			; 00000028H
  00024	5f		 pop	 rdi
  00025	5d		 pop	 rbp
  00026	c3		 ret	 0
?dtor$0@?0???$_Construct@$01PEBD@?$basic_string@DU?$char_traits@D@std@@V?$allocator@D@2@@std@@AEAAXQEBD_K@Z@4HA ENDP ; `std::basic_string<char,std::char_traits<char>,std::allocator<char> >::_Construct<2,char const *>'::`1'::dtor$0
text$x	ENDS
; Function compile flags: /Odtp /RTCsu /ZI
; File C:\Program Files\Microsoft Visual Studio\2022\Community\VC\Tools\MSVC\14.37.32822\include\xstring
;	COMDAT ??$_Construct@$00PEBD@?$basic_string@DU?$char_traits@D@std@@V?$allocator@D@2@@std@@AEAAXQEBD_K@Z
_TEXT	SEGMENT
_My_data$ = 8
_Al$ = 40
_Alproxy$ = 72
$S8$ = 100
_Proxy$ = 136
_New_capacity$ = 184
_New_ptr$ = 216
$T6 = 436
$T7 = 468
tv148 = 488
__$ArrayPad$ = 496
this$ = 544
_Arg$ = 552
_Count$ = 560
??$_Construct@$00PEBD@?$basic_string@DU?$char_traits@D@std@@V?$allocator@D@2@@std@@AEAAXQEBD_K@Z PROC ; std::basic_string<char,std::char_traits<char>,std::allocator<char> >::_Construct<1,char const *>, COMDAT

; 2610 :     _CONSTEXPR20 void _Construct(const _Char_or_ptr _Arg, _CRT_GUARDOVERFLOW const size_type _Count) {

$LN7:
  00000	4c 89 44 24 18	 mov	 QWORD PTR [rsp+24], r8
  00005	48 89 54 24 10	 mov	 QWORD PTR [rsp+16], rdx
  0000a	48 89 4c 24 08	 mov	 QWORD PTR [rsp+8], rcx
  0000f	55		 push	 rbp
  00010	57		 push	 rdi
  00011	48 81 ec 28 02
	00 00		 sub	 rsp, 552		; 00000228H
  00018	48 8d 6c 24 20	 lea	 rbp, QWORD PTR [rsp+32]
  0001d	48 8d 7c 24 20	 lea	 rdi, QWORD PTR [rsp+32]
  00022	b9 52 00 00 00	 mov	 ecx, 82			; 00000052H
  00027	b8 cc cc cc cc	 mov	 eax, -858993460		; ccccccccH
  0002c	f3 ab		 rep stosd
  0002e	48 8b 8c 24 48
	02 00 00	 mov	 rcx, QWORD PTR [rsp+584]
  00036	48 8b 05 00 00
	00 00		 mov	 rax, QWORD PTR __security_cookie
  0003d	48 33 c5	 xor	 rax, rbp
  00040	48 89 85 f0 01
	00 00		 mov	 QWORD PTR __$ArrayPad$[rbp], rax
  00047	48 8d 0d 00 00
	00 00		 lea	 rcx, OFFSET FLAT:__D14739E9_xstring
  0004e	e8 00 00 00 00	 call	 __CheckForDebuggerJustMyCode

; 2611 :         auto& _My_data = _Mypair._Myval2;

  00053	48 8b 85 20 02
	00 00		 mov	 rax, QWORD PTR this$[rbp]
  0005a	48 89 45 08	 mov	 QWORD PTR _My_data$[rbp], rax

; 2612 :         _STL_INTERNAL_CHECK(!_My_data._Large_string_engaged());
; 2613 : 
; 2614 :         if constexpr (_Strat == _Construct_strategy::_From_char) {
; 2615 :             _STL_INTERNAL_STATIC_ASSERT(is_same_v<_Char_or_ptr, _Elem>);
; 2616 :         } else {
; 2617 :             _STL_INTERNAL_STATIC_ASSERT(_Is_elem_cptr<_Char_or_ptr>::value);
; 2618 :         }
; 2619 : 
; 2620 :         if (_Count > max_size()) {

  0005e	48 8b 8d 20 02
	00 00		 mov	 rcx, QWORD PTR this$[rbp]
  00065	e8 00 00 00 00	 call	 ?max_size@?$basic_string@DU?$char_traits@D@std@@V?$allocator@D@2@@std@@QEBA_KXZ ; std::basic_string<char,std::char_traits<char>,std::allocator<char> >::max_size
  0006a	48 39 85 30 02
	00 00		 cmp	 QWORD PTR _Count$[rbp], rax
  00071	76 05		 jbe	 SHORT $LN2@Construct

; 2621 :             _Xlen_string(); // result too long

  00073	e8 00 00 00 00	 call	 ?_Xlen_string@std@@YAXXZ ; std::_Xlen_string
$LN2@Construct:

; 2622 :         }
; 2623 : 
; 2624 :         auto& _Al       = _Getal();

  00078	48 8b 8d 20 02
	00 00		 mov	 rcx, QWORD PTR this$[rbp]
  0007f	e8 00 00 00 00	 call	 ?_Getal@?$basic_string@DU?$char_traits@D@std@@V?$allocator@D@2@@std@@AEAAAEAV?$allocator@D@2@XZ ; std::basic_string<char,std::char_traits<char>,std::allocator<char> >::_Getal
  00084	48 89 45 28	 mov	 QWORD PTR _Al$[rbp], rax

; 2625 :         auto&& _Alproxy = _GET_PROXY_ALLOCATOR(_Alty, _Al);

  00088	48 8b 55 28	 mov	 rdx, QWORD PTR _Al$[rbp]
  0008c	48 8d 4d 64	 lea	 rcx, QWORD PTR $S8$[rbp]
  00090	e8 00 00 00 00	 call	 ??$?0D@?$allocator@U_Container_proxy@std@@@std@@QEAA@AEBV?$allocator@D@1@@Z ; std::allocator<std::_Container_proxy>::allocator<std::_Container_proxy><char>
  00095	48 8d 45 64	 lea	 rax, QWORD PTR $S8$[rbp]
  00099	48 89 45 48	 mov	 QWORD PTR _Alproxy$[rbp], rax

; 2626 :         _Container_proxy_ptr<_Alty> _Proxy(_Alproxy, _My_data);

  0009d	4c 8b 45 08	 mov	 r8, QWORD PTR _My_data$[rbp]
  000a1	48 8b 55 48	 mov	 rdx, QWORD PTR _Alproxy$[rbp]
  000a5	48 8d 8d 88 00
	00 00		 lea	 rcx, QWORD PTR _Proxy$[rbp]
  000ac	e8 00 00 00 00	 call	 ??0?$_Container_proxy_ptr12@V?$allocator@U_Container_proxy@std@@@std@@@std@@QEAA@AEAV?$allocator@U_Container_proxy@std@@@1@AEAU_Container_base12@1@@Z ; std::_Container_proxy_ptr12<std::allocator<std::_Container_proxy> >::_Container_proxy_ptr12<std::allocator<std::_Container_proxy> >
  000b1	90		 npad	 1

; 2627 : 
; 2628 :         if (_Count < _BUF_SIZE) {

  000b2	48 83 bd 30 02
	00 00 10	 cmp	 QWORD PTR _Count$[rbp], 16
  000ba	73 7d		 jae	 SHORT $LN3@Construct

; 2629 :             _My_data._Mysize = _Count;

  000bc	48 8b 45 08	 mov	 rax, QWORD PTR _My_data$[rbp]
  000c0	48 8b 8d 30 02
	00 00		 mov	 rcx, QWORD PTR _Count$[rbp]
  000c7	48 89 48 18	 mov	 QWORD PTR [rax+24], rcx

; 2630 :             _My_data._Myres  = _BUF_SIZE - 1;

  000cb	48 8b 45 08	 mov	 rax, QWORD PTR _My_data$[rbp]
  000cf	48 c7 40 20 0f
	00 00 00	 mov	 QWORD PTR [rax+32], 15

; 2631 : 
; 2632 :             if constexpr (_Strat == _Construct_strategy::_From_char) {
; 2633 :                 _Traits::assign(_My_data._Bx._Buf, _Count, _Arg);
; 2634 :                 _Traits::assign(_My_data._Bx._Buf[_Count], _Elem());
; 2635 :             } else if constexpr (_Strat == _Construct_strategy::_From_ptr) {
; 2636 :                 _Traits::copy(_My_data._Bx._Buf, _Arg, _Count);

  000d7	48 8b 45 08	 mov	 rax, QWORD PTR _My_data$[rbp]
  000db	48 83 c0 08	 add	 rax, 8
  000df	4c 8b 85 30 02
	00 00		 mov	 r8, QWORD PTR _Count$[rbp]
  000e6	48 8b 95 28 02
	00 00		 mov	 rdx, QWORD PTR _Arg$[rbp]
  000ed	48 8b c8	 mov	 rcx, rax
  000f0	e8 00 00 00 00	 call	 ?copy@?$_Char_traits@DH@std@@SAPEADQEADQEBD_K@Z ; std::_Char_traits<char,int>::copy

; 2637 :                 _Traits::assign(_My_data._Bx._Buf[_Count], _Elem());

  000f5	c6 85 b4 01 00
	00 00		 mov	 BYTE PTR $T6[rbp], 0
  000fc	48 8b 45 08	 mov	 rax, QWORD PTR _My_data$[rbp]
  00100	48 8b 8d 30 02
	00 00		 mov	 rcx, QWORD PTR _Count$[rbp]
  00107	48 8d 44 08 08	 lea	 rax, QWORD PTR [rax+rcx+8]
  0010c	48 8d 95 b4 01
	00 00		 lea	 rdx, QWORD PTR $T6[rbp]
  00113	48 8b c8	 mov	 rcx, rax
  00116	e8 00 00 00 00	 call	 ?assign@?$_Narrow_char_traits@DH@std@@SAXAEADAEBD@Z ; std::_Narrow_char_traits<char,int>::assign

; 2638 :             } else { // _Strat == _Construct_strategy::_From_string
; 2639 : #ifdef _INSERT_STRING_ANNOTATION
; 2640 :                 _Traits::copy(_My_data._Bx._Buf, _Arg, _Count + 1);
; 2641 : #else // ^^^ _INSERT_STRING_ANNOTATION / !_INSERT_STRING_ANNOTATION vvv
; 2642 :                 _Traits::copy(_My_data._Bx._Buf, _Arg, _BUF_SIZE);
; 2643 : #endif // !_INSERT_STRING_ANNOTATION
; 2644 :             }
; 2645 : 
; 2646 :             _Proxy._Release();

  0011b	48 8d 8d 88 00
	00 00		 lea	 rcx, QWORD PTR _Proxy$[rbp]
  00122	e8 00 00 00 00	 call	 ?_Release@_Basic_container_proxy_ptr12@std@@QEAAXXZ ; std::_Basic_container_proxy_ptr12::_Release
  00127	90		 npad	 1

; 2647 :             return;

  00128	48 8d 8d 88 00
	00 00		 lea	 rcx, QWORD PTR _Proxy$[rbp]
  0012f	e8 00 00 00 00	 call	 ??1?$_Container_proxy_ptr12@V?$allocator@U_Container_proxy@std@@@std@@@std@@QEAA@XZ ; std::_Container_proxy_ptr12<std::allocator<std::_Container_proxy> >::~_Container_proxy_ptr12<std::allocator<std::_Container_proxy> >
  00134	e9 0b 01 00 00	 jmp	 $LN4@Construct
$LN3@Construct:

; 2648 :         }
; 2649 : 
; 2650 :         _My_data._Myres               = _BUF_SIZE - 1;

  00139	48 8b 45 08	 mov	 rax, QWORD PTR _My_data$[rbp]
  0013d	48 c7 40 20 0f
	00 00 00	 mov	 QWORD PTR [rax+32], 15

; 2651 :         const size_type _New_capacity = _Calculate_growth(_Count);

  00145	48 8b 95 30 02
	00 00		 mov	 rdx, QWORD PTR _Count$[rbp]
  0014c	48 8b 8d 20 02
	00 00		 mov	 rcx, QWORD PTR this$[rbp]
  00153	e8 00 00 00 00	 call	 ?_Calculate_growth@?$basic_string@DU?$char_traits@D@std@@V?$allocator@D@2@@std@@AEBA_K_K@Z ; std::basic_string<char,std::char_traits<char>,std::allocator<char> >::_Calculate_growth
  00158	48 89 85 b8 00
	00 00		 mov	 QWORD PTR _New_capacity$[rbp], rax

; 2652 :         const pointer _New_ptr        = _Al.allocate(_New_capacity + 1); // throws

  0015f	48 8b 85 b8 00
	00 00		 mov	 rax, QWORD PTR _New_capacity$[rbp]
  00166	48 ff c0	 inc	 rax
  00169	48 8b d0	 mov	 rdx, rax
  0016c	48 8b 4d 28	 mov	 rcx, QWORD PTR _Al$[rbp]
  00170	e8 00 00 00 00	 call	 ?allocate@?$allocator@D@std@@QEAAPEAD_K@Z ; std::allocator<char>::allocate
  00175	48 89 85 d8 00
	00 00		 mov	 QWORD PTR _New_ptr$[rbp], rax

; 2653 :         _Construct_in_place(_My_data._Bx._Ptr, _New_ptr);

  0017c	48 8b 45 08	 mov	 rax, QWORD PTR _My_data$[rbp]
  00180	48 83 c0 08	 add	 rax, 8
  00184	48 8d 95 d8 00
	00 00		 lea	 rdx, QWORD PTR _New_ptr$[rbp]
  0018b	48 8b c8	 mov	 rcx, rax
  0018e	e8 00 00 00 00	 call	 ??$_Construct_in_place@PEADAEBQEAD@std@@YAXAEAPEADAEBQEAD@Z ; std::_Construct_in_place<char *,char * const &>

; 2654 : 
; 2655 :         _Start_element_lifetimes(_Unfancy(_New_ptr), _New_capacity + 1);

  00193	48 8b 85 b8 00
	00 00		 mov	 rax, QWORD PTR _New_capacity$[rbp]
  0019a	48 ff c0	 inc	 rax
  0019d	48 89 85 e8 01
	00 00		 mov	 QWORD PTR tv148[rbp], rax
  001a4	48 8b 8d d8 00
	00 00		 mov	 rcx, QWORD PTR _New_ptr$[rbp]
  001ab	e8 00 00 00 00	 call	 ??$_Unfancy@D@std@@YAPEADPEAD@Z ; std::_Unfancy<char>
  001b0	48 8b 8d e8 01
	00 00		 mov	 rcx, QWORD PTR tv148[rbp]
  001b7	48 8b d1	 mov	 rdx, rcx
  001ba	48 8b c8	 mov	 rcx, rax
  001bd	e8 00 00 00 00	 call	 ?_Start_element_lifetimes@?$basic_string@DU?$char_traits@D@std@@V?$allocator@D@2@@std@@CAXQEAD_K@Z ; std::basic_string<char,std::char_traits<char>,std::allocator<char> >::_Start_element_lifetimes

; 2656 : 
; 2657 :         _My_data._Mysize = _Count;

  001c2	48 8b 45 08	 mov	 rax, QWORD PTR _My_data$[rbp]
  001c6	48 8b 8d 30 02
	00 00		 mov	 rcx, QWORD PTR _Count$[rbp]
  001cd	48 89 48 18	 mov	 QWORD PTR [rax+24], rcx

; 2658 :         _My_data._Myres  = _New_capacity;

  001d1	48 8b 45 08	 mov	 rax, QWORD PTR _My_data$[rbp]
  001d5	48 8b 8d b8 00
	00 00		 mov	 rcx, QWORD PTR _New_capacity$[rbp]
  001dc	48 89 48 20	 mov	 QWORD PTR [rax+32], rcx

; 2659 :         if constexpr (_Strat == _Construct_strategy::_From_char) {
; 2660 :             _Traits::assign(_Unfancy(_New_ptr), _Count, _Arg);
; 2661 :             _Traits::assign(_Unfancy(_New_ptr)[_Count], _Elem());
; 2662 :         } else if constexpr (_Strat == _Construct_strategy::_From_ptr) {
; 2663 :             _Traits::copy(_Unfancy(_New_ptr), _Arg, _Count);

  001e0	48 8b 8d d8 00
	00 00		 mov	 rcx, QWORD PTR _New_ptr$[rbp]
  001e7	e8 00 00 00 00	 call	 ??$_Unfancy@D@std@@YAPEADPEAD@Z ; std::_Unfancy<char>
  001ec	4c 8b 85 30 02
	00 00		 mov	 r8, QWORD PTR _Count$[rbp]
  001f3	48 8b 95 28 02
	00 00		 mov	 rdx, QWORD PTR _Arg$[rbp]
  001fa	48 8b c8	 mov	 rcx, rax
  001fd	e8 00 00 00 00	 call	 ?copy@?$_Char_traits@DH@std@@SAPEADQEADQEBD_K@Z ; std::_Char_traits<char,int>::copy

; 2664 :             _Traits::assign(_Unfancy(_New_ptr)[_Count], _Elem());

  00202	c6 85 d4 01 00
	00 00		 mov	 BYTE PTR $T7[rbp], 0
  00209	48 8b 8d d8 00
	00 00		 mov	 rcx, QWORD PTR _New_ptr$[rbp]
  00210	e8 00 00 00 00	 call	 ??$_Unfancy@D@std@@YAPEADPEAD@Z ; std::_Unfancy<char>
  00215	48 03 85 30 02
	00 00		 add	 rax, QWORD PTR _Count$[rbp]
  0021c	48 8d 95 d4 01
	00 00		 lea	 rdx, QWORD PTR $T7[rbp]
  00223	48 8b c8	 mov	 rcx, rax
  00226	e8 00 00 00 00	 call	 ?assign@?$_Narrow_char_traits@DH@std@@SAXAEADAEBD@Z ; std::_Narrow_char_traits<char,int>::assign

; 2665 :         } else { // _Strat == _Construct_strategy::_From_string
; 2666 :             _Traits::copy(_Unfancy(_New_ptr), _Arg, _Count + 1);
; 2667 :         }
; 2668 : 
; 2669 :         _ASAN_STRING_CREATE(*this);
; 2670 :         _Proxy._Release();

  0022b	48 8d 8d 88 00
	00 00		 lea	 rcx, QWORD PTR _Proxy$[rbp]
  00232	e8 00 00 00 00	 call	 ?_Release@_Basic_container_proxy_ptr12@std@@QEAAXXZ ; std::_Basic_container_proxy_ptr12::_Release
  00237	90		 npad	 1

; 2671 :     }

  00238	48 8d 8d 88 00
	00 00		 lea	 rcx, QWORD PTR _Proxy$[rbp]
  0023f	e8 00 00 00 00	 call	 ??1?$_Container_proxy_ptr12@V?$allocator@U_Container_proxy@std@@@std@@@std@@QEAA@XZ ; std::_Container_proxy_ptr12<std::allocator<std::_Container_proxy> >::~_Container_proxy_ptr12<std::allocator<std::_Container_proxy> >
$LN4@Construct:
  00244	48 8d 4d e0	 lea	 rcx, QWORD PTR [rbp-32]
  00248	48 8d 15 00 00
	00 00		 lea	 rdx, OFFSET FLAT:??$_Construct@$00PEBD@?$basic_string@DU?$char_traits@D@std@@V?$allocator@D@2@@std@@AEAAXQEBD_K@Z$rtcFrameData
  0024f	e8 00 00 00 00	 call	 _RTC_CheckStackVars
  00254	48 8b 8d f0 01
	00 00		 mov	 rcx, QWORD PTR __$ArrayPad$[rbp]
  0025b	48 33 cd	 xor	 rcx, rbp
  0025e	e8 00 00 00 00	 call	 __security_check_cookie
  00263	48 8d a5 08 02
	00 00		 lea	 rsp, QWORD PTR [rbp+520]
  0026a	5f		 pop	 rdi
  0026b	5d		 pop	 rbp
  0026c	c3		 ret	 0
$LN6@Construct:
??$_Construct@$00PEBD@?$basic_string@DU?$char_traits@D@std@@V?$allocator@D@2@@std@@AEAAXQEBD_K@Z ENDP ; std::basic_string<char,std::char_traits<char>,std::allocator<char> >::_Construct<1,char const *>
_TEXT	ENDS
; Function compile flags: /Odtp /RTCsu /ZI
;	COMDAT text$x
text$x	SEGMENT
_My_data$ = 8
_Al$ = 40
_Alproxy$ = 72
$S8$ = 100
_Proxy$ = 136
_New_capacity$ = 184
_New_ptr$ = 216
$T6 = 436
$T7 = 468
tv148 = 488
__$ArrayPad$ = 496
this$ = 544
_Arg$ = 552
_Count$ = 560
?dtor$0@?0???$_Construct@$00PEBD@?$basic_string@DU?$char_traits@D@std@@V?$allocator@D@2@@std@@AEAAXQEBD_K@Z@4HA PROC ; `std::basic_string<char,std::char_traits<char>,std::allocator<char> >::_Construct<1,char const *>'::`1'::dtor$0
  00000	48 89 4c 24 08	 mov	 QWORD PTR [rsp+8], rcx
  00005	48 89 54 24 10	 mov	 QWORD PTR [rsp+16], rdx
  0000a	55		 push	 rbp
  0000b	57		 push	 rdi
  0000c	48 83 ec 28	 sub	 rsp, 40			; 00000028H
  00010	48 8d 6a 20	 lea	 rbp, QWORD PTR [rdx+32]
  00014	48 8d 8d 88 00
	00 00		 lea	 rcx, QWORD PTR _Proxy$[rbp]
  0001b	e8 00 00 00 00	 call	 ??1?$_Container_proxy_ptr12@V?$allocator@U_Container_proxy@std@@@std@@@std@@QEAA@XZ ; std::_Container_proxy_ptr12<std::allocator<std::_Container_proxy> >::~_Container_proxy_ptr12<std::allocator<std::_Container_proxy> >
  00020	48 83 c4 28	 add	 rsp, 40			; 00000028H
  00024	5f		 pop	 rdi
  00025	5d		 pop	 rbp
  00026	c3		 ret	 0
?dtor$0@?0???$_Construct@$00PEBD@?$basic_string@DU?$char_traits@D@std@@V?$allocator@D@2@@std@@AEAAXQEBD_K@Z@4HA ENDP ; `std::basic_string<char,std::char_traits<char>,std::allocator<char> >::_Construct<1,char const *>'::`1'::dtor$0
text$x	ENDS
; Function compile flags: /Odtp /RTCsu /ZI
; File C:\Program Files\Microsoft Visual Studio\2022\Community\VC\Tools\MSVC\14.37.32822\include\xmemory
;	COMDAT ??$?0$$V@?$_Compressed_pair@V?$allocator@D@std@@V?$_String_val@U?$_Simple_types@D@std@@@2@$00@std@@QEAA@U_Zero_then_variadic_args_t@1@@Z
_TEXT	SEGMENT
this$ = 224
__formal$ = 232
??$?0$$V@?$_Compressed_pair@V?$allocator@D@std@@V?$_String_val@U?$_Simple_types@D@std@@@2@$00@std@@QEAA@U_Zero_then_variadic_args_t@1@@Z PROC ; std::_Compressed_pair<std::allocator<char>,std::_String_val<std::_Simple_types<char> >,1>::_Compressed_pair<std::allocator<char>,std::_String_val<std::_Simple_types<char> >,1><>, COMDAT

; 1515 :         : _Ty1(), _Myval2(_STD forward<_Other2>(_Val2)...) {}

$LN3:
  00000	88 54 24 10	 mov	 BYTE PTR [rsp+16], dl
  00004	48 89 4c 24 08	 mov	 QWORD PTR [rsp+8], rcx
  00009	55		 push	 rbp
  0000a	57		 push	 rdi
  0000b	48 81 ec e8 00
	00 00		 sub	 rsp, 232		; 000000e8H
  00012	48 8d 6c 24 20	 lea	 rbp, QWORD PTR [rsp+32]
  00017	48 8d 0d 00 00
	00 00		 lea	 rcx, OFFSET FLAT:__A594BF75_xmemory
  0001e	e8 00 00 00 00	 call	 __CheckForDebuggerJustMyCode
  00023	48 8b 8d e0 00
	00 00		 mov	 rcx, QWORD PTR this$[rbp]
  0002a	e8 00 00 00 00	 call	 ??0?$allocator@D@std@@QEAA@XZ ; std::allocator<char>::allocator<char>
  0002f	48 8b 85 e0 00
	00 00		 mov	 rax, QWORD PTR this$[rbp]
  00036	48 8b c8	 mov	 rcx, rax
  00039	e8 00 00 00 00	 call	 ??0?$_String_val@U?$_Simple_types@D@std@@@std@@QEAA@XZ ; std::_String_val<std::_Simple_types<char> >::_String_val<std::_Simple_types<char> >
  0003e	48 8b 85 e0 00
	00 00		 mov	 rax, QWORD PTR this$[rbp]
  00045	48 8d a5 c8 00
	00 00		 lea	 rsp, QWORD PTR [rbp+200]
  0004c	5f		 pop	 rdi
  0004d	5d		 pop	 rbp
  0004e	c3		 ret	 0
??$?0$$V@?$_Compressed_pair@V?$allocator@D@std@@V?$_String_val@U?$_Simple_types@D@std@@@2@$00@std@@QEAA@U_Zero_then_variadic_args_t@1@@Z ENDP ; std::_Compressed_pair<std::allocator<char>,std::_String_val<std::_Simple_types<char> >,1>::_Compressed_pair<std::allocator<char>,std::_String_val<std::_Simple_types<char> >,1><>
_TEXT	ENDS
; Function compile flags: /Odtp /RTCsu /ZI
; File C:\Program Files\Microsoft Visual Studio\2022\Community\VC\Tools\MSVC\14.37.32822\include\xmemory
;	COMDAT ??$?0V?$allocator@D@std@@$$V@?$_Compressed_pair@V?$allocator@D@std@@V?$_String_val@U?$_Simple_types@D@std@@@2@$00@std@@QEAA@U_One_then_variadic_args_t@1@$$QEAV?$allocator@D@1@@Z
_TEXT	SEGMENT
this$ = 224
__formal$ = 232
_Val1$ = 240
??$?0V?$allocator@D@std@@$$V@?$_Compressed_pair@V?$allocator@D@std@@V?$_String_val@U?$_Simple_types@D@std@@@2@$00@std@@QEAA@U_One_then_variadic_args_t@1@$$QEAV?$allocator@D@1@@Z PROC ; std::_Compressed_pair<std::allocator<char>,std::_String_val<std::_Simple_types<char> >,1>::_Compressed_pair<std::allocator<char>,std::_String_val<std::_Simple_types<char> >,1><std::allocator<char> >, COMDAT

; 1520 :         : _Ty1(_STD forward<_Other1>(_Val1)), _Myval2(_STD forward<_Other2>(_Val2)...) {}

$LN3:
  00000	4c 89 44 24 18	 mov	 QWORD PTR [rsp+24], r8
  00005	88 54 24 10	 mov	 BYTE PTR [rsp+16], dl
  00009	48 89 4c 24 08	 mov	 QWORD PTR [rsp+8], rcx
  0000e	55		 push	 rbp
  0000f	57		 push	 rdi
  00010	48 81 ec e8 00
	00 00		 sub	 rsp, 232		; 000000e8H
  00017	48 8d 6c 24 20	 lea	 rbp, QWORD PTR [rsp+32]
  0001c	48 8d 0d 00 00
	00 00		 lea	 rcx, OFFSET FLAT:__A594BF75_xmemory
  00023	e8 00 00 00 00	 call	 __CheckForDebuggerJustMyCode
  00028	48 8b 85 e0 00
	00 00		 mov	 rax, QWORD PTR this$[rbp]
  0002f	48 8b c8	 mov	 rcx, rax
  00032	e8 00 00 00 00	 call	 ??0?$_String_val@U?$_Simple_types@D@std@@@std@@QEAA@XZ ; std::_String_val<std::_Simple_types<char> >::_String_val<std::_Simple_types<char> >
  00037	48 8b 85 e0 00
	00 00		 mov	 rax, QWORD PTR this$[rbp]
  0003e	48 8d a5 c8 00
	00 00		 lea	 rsp, QWORD PTR [rbp+200]
  00045	5f		 pop	 rdi
  00046	5d		 pop	 rbp
  00047	c3		 ret	 0
??$?0V?$allocator@D@std@@$$V@?$_Compressed_pair@V?$allocator@D@std@@V?$_String_val@U?$_Simple_types@D@std@@@2@$00@std@@QEAA@U_One_then_variadic_args_t@1@$$QEAV?$allocator@D@1@@Z ENDP ; std::_Compressed_pair<std::allocator<char>,std::_String_val<std::_Simple_types<char> >,1>::_Compressed_pair<std::allocator<char>,std::_String_val<std::_Simple_types<char> >,1><std::allocator<char> >
_TEXT	ENDS
; Function compile flags: /Odtp /RTCsu /ZI
; File C:\Program Files\Microsoft Visual Studio\2022\Community\VC\Tools\MSVC\14.37.32822\include\xmemory
;	COMDAT ??$?0D@?$allocator@U_Container_proxy@std@@@std@@QEAA@AEBV?$allocator@D@1@@Z
_TEXT	SEGMENT
this$ = 224
__formal$ = 232
??$?0D@?$allocator@U_Container_proxy@std@@@std@@QEAA@AEBV?$allocator@D@1@@Z PROC ; std::allocator<std::_Container_proxy>::allocator<std::_Container_proxy><char>, COMDAT

; 962  :     constexpr allocator(const allocator<_Other>&) noexcept {}

$LN3:
  00000	48 89 54 24 10	 mov	 QWORD PTR [rsp+16], rdx
  00005	48 89 4c 24 08	 mov	 QWORD PTR [rsp+8], rcx
  0000a	55		 push	 rbp
  0000b	57		 push	 rdi
  0000c	48 81 ec e8 00
	00 00		 sub	 rsp, 232		; 000000e8H
  00013	48 8d 6c 24 20	 lea	 rbp, QWORD PTR [rsp+32]
  00018	48 8d 0d 00 00
	00 00		 lea	 rcx, OFFSET FLAT:__A594BF75_xmemory
  0001f	e8 00 00 00 00	 call	 __CheckForDebuggerJustMyCode
  00024	48 8b 85 e0 00
	00 00		 mov	 rax, QWORD PTR this$[rbp]
  0002b	48 8d a5 c8 00
	00 00		 lea	 rsp, QWORD PTR [rbp+200]
  00032	5f		 pop	 rdi
  00033	5d		 pop	 rbp
  00034	c3		 ret	 0
??$?0D@?$allocator@U_Container_proxy@std@@@std@@QEAA@AEBV?$allocator@D@1@@Z ENDP ; std::allocator<std::_Container_proxy>::allocator<std::_Container_proxy><char>
_TEXT	ENDS
; Function compile flags: /Odtp /RTCsu /ZI
; File C:\Program Files\Microsoft Visual Studio\2022\Community\VC\Tools\MSVC\14.37.32822\include\xmemory
;	COMDAT ??$_Convert_size@_K_K@std@@YA_K_K@Z
_TEXT	SEGMENT
_Len$ = 224
??$_Convert_size@_K_K@std@@YA_K_K@Z PROC		; std::_Convert_size<unsigned __int64,unsigned __int64>, COMDAT

; 1104 :     sizeof(_Unsigned_type) <= sizeof(_Size_type)) {

$LN3:
  00000	48 89 4c 24 08	 mov	 QWORD PTR [rsp+8], rcx
  00005	55		 push	 rbp
  00006	57		 push	 rdi
  00007	48 81 ec e8 00
	00 00		 sub	 rsp, 232		; 000000e8H
  0000e	48 8d 6c 24 20	 lea	 rbp, QWORD PTR [rsp+32]
  00013	48 8d 0d 00 00
	00 00		 lea	 rcx, OFFSET FLAT:__A594BF75_xmemory
  0001a	e8 00 00 00 00	 call	 __CheckForDebuggerJustMyCode

; 1105 :     // convert _Unsigned_type to _Size_type, avoiding truncation
; 1106 :     _STL_INTERNAL_STATIC_ASSERT(_Unsigned_type(-1) > 0);
; 1107 :     _STL_INTERNAL_STATIC_ASSERT(_Size_type(-1) > 0);
; 1108 : 
; 1109 :     if constexpr (sizeof(_Unsigned_type) > sizeof(_Size_type)) {
; 1110 :         if (_Len > (numeric_limits<_Size_type>::max)()) {
; 1111 :             _Xlength_error("size is too long for _Size_type");
; 1112 :         }
; 1113 :     }
; 1114 : 
; 1115 :     return static_cast<_Size_type>(_Len);

  0001f	48 8b 85 e0 00
	00 00		 mov	 rax, QWORD PTR _Len$[rbp]

; 1116 : }

  00026	48 8d a5 c8 00
	00 00		 lea	 rsp, QWORD PTR [rbp+200]
  0002d	5f		 pop	 rdi
  0002e	5d		 pop	 rbp
  0002f	c3		 ret	 0
??$_Convert_size@_K_K@std@@YA_K_K@Z ENDP		; std::_Convert_size<unsigned __int64,unsigned __int64>
_TEXT	ENDS
; Function compile flags: /Odtp /RTCsu /ZI
; File C:\Program Files\Microsoft Visual Studio\2022\Community\VC\Tools\MSVC\14.37.32822\include\xmemory
;	COMDAT ??$_Delete_plain_internal@V?$allocator@U_Container_proxy@std@@@std@@@std@@YAXAEAV?$allocator@U_Container_proxy@std@@@0@QEAU_Container_proxy@0@@Z
_TEXT	SEGMENT
_Al$ = 224
_Ptr$ = 232
??$_Delete_plain_internal@V?$allocator@U_Container_proxy@std@@@std@@@std@@YAXAEAV?$allocator@U_Container_proxy@std@@@0@QEAU_Container_proxy@0@@Z PROC ; std::_Delete_plain_internal<std::allocator<std::_Container_proxy> >, COMDAT

; 1131 : _CONSTEXPR20 void _Delete_plain_internal(_Alloc& _Al, typename _Alloc::value_type* const _Ptr) noexcept {

$LN3:
  00000	48 89 54 24 10	 mov	 QWORD PTR [rsp+16], rdx
  00005	48 89 4c 24 08	 mov	 QWORD PTR [rsp+8], rcx
  0000a	55		 push	 rbp
  0000b	57		 push	 rdi
  0000c	48 81 ec e8 00
	00 00		 sub	 rsp, 232		; 000000e8H
  00013	48 8d 6c 24 20	 lea	 rbp, QWORD PTR [rsp+32]
  00018	48 8d 0d 00 00
	00 00		 lea	 rcx, OFFSET FLAT:__A594BF75_xmemory
  0001f	e8 00 00 00 00	 call	 __CheckForDebuggerJustMyCode

; 1132 :     // destroy *_Ptr in place, then deallocate _Ptr using _Al; used for internal container types the user didn't name
; 1133 :     using _Ty = typename _Alloc::value_type;
; 1134 :     _Ptr->~_Ty();
; 1135 :     _Deallocate_plain(_Al, _Ptr);

  00024	48 8b 95 e8 00
	00 00		 mov	 rdx, QWORD PTR _Ptr$[rbp]
  0002b	48 8b 8d e0 00
	00 00		 mov	 rcx, QWORD PTR _Al$[rbp]
  00032	e8 00 00 00 00	 call	 ??$_Deallocate_plain@V?$allocator@U_Container_proxy@std@@@std@@@std@@YAXAEAV?$allocator@U_Container_proxy@std@@@0@QEAU_Container_proxy@0@@Z ; std::_Deallocate_plain<std::allocator<std::_Container_proxy> >

; 1136 : }

  00037	48 8d a5 c8 00
	00 00		 lea	 rsp, QWORD PTR [rbp+200]
  0003e	5f		 pop	 rdi
  0003f	5d		 pop	 rbp
  00040	c3		 ret	 0
??$_Delete_plain_internal@V?$allocator@U_Container_proxy@std@@@std@@@std@@YAXAEAV?$allocator@U_Container_proxy@std@@@0@QEAU_Container_proxy@0@@Z ENDP ; std::_Delete_plain_internal<std::allocator<std::_Container_proxy> >
_TEXT	ENDS
; Function compile flags: /Odtp /RTCsu /ZI
; File C:\Program Files\Microsoft Visual Studio\2022\Community\VC\Tools\MSVC\14.37.32822\include\xmemory
;	COMDAT ?allocate@?$allocator@U_Container_proxy@std@@@std@@QEAAPEAU_Container_proxy@2@_K@Z
_TEXT	SEGMENT
this$ = 224
_Count$ = 232
?allocate@?$allocator@U_Container_proxy@std@@@std@@QEAAPEAU_Container_proxy@2@_K@Z PROC ; std::allocator<std::_Container_proxy>::allocate, COMDAT

; 972  :     _NODISCARD_RAW_PTR_ALLOC _CONSTEXPR20 __declspec(allocator) _Ty* allocate(_CRT_GUARDOVERFLOW const size_t _Count) {

$LN3:
  00000	48 89 54 24 10	 mov	 QWORD PTR [rsp+16], rdx
  00005	48 89 4c 24 08	 mov	 QWORD PTR [rsp+8], rcx
  0000a	55		 push	 rbp
  0000b	57		 push	 rdi
  0000c	48 81 ec e8 00
	00 00		 sub	 rsp, 232		; 000000e8H
  00013	48 8d 6c 24 20	 lea	 rbp, QWORD PTR [rsp+32]
  00018	48 8d 0d 00 00
	00 00		 lea	 rcx, OFFSET FLAT:__A594BF75_xmemory
  0001f	e8 00 00 00 00	 call	 __CheckForDebuggerJustMyCode

; 973  :         static_assert(sizeof(value_type) > 0, "value_type must be complete before calling allocate.");
; 974  :         return static_cast<_Ty*>(_Allocate<_New_alignof<_Ty>>(_Get_size_of_n<sizeof(_Ty)>(_Count)));

  00024	48 8b 8d e8 00
	00 00		 mov	 rcx, QWORD PTR _Count$[rbp]
  0002b	e8 00 00 00 00	 call	 ??$_Get_size_of_n@$0BA@@std@@YA_K_K@Z ; std::_Get_size_of_n<16>
  00030	48 8b c8	 mov	 rcx, rax
  00033	e8 00 00 00 00	 call	 ??$_Allocate@$0BA@U_Default_allocate_traits@std@@$0A@@std@@YAPEAX_K@Z ; std::_Allocate<16,std::_Default_allocate_traits,0>

; 975  :     }

  00038	48 8d a5 c8 00
	00 00		 lea	 rsp, QWORD PTR [rbp+200]
  0003f	5f		 pop	 rdi
  00040	5d		 pop	 rbp
  00041	c3		 ret	 0
?allocate@?$allocator@U_Container_proxy@std@@@std@@QEAAPEAU_Container_proxy@2@_K@Z ENDP ; std::allocator<std::_Container_proxy>::allocate
_TEXT	ENDS
; Function compile flags: /Odtp /RTCsu /ZI
; File C:\Program Files\Microsoft Visual Studio\2022\Community\VC\Tools\MSVC\14.37.32822\include\utility
;	COMDAT ??$min@_K@std@@YAAEB_KAEB_K0@Z
_TEXT	SEGMENT
$T1 = 200
tv65 = 216
_Left$ = 256
_Right$ = 264
??$min@_K@std@@YAAEB_KAEB_K0@Z PROC			; std::min<unsigned __int64>, COMDAT

; 68   :     (min) (const _Ty& _Left, const _Ty& _Right) noexcept(noexcept(_Right < _Left)) /* strengthened */ {

$LN5:
  00000	48 89 54 24 10	 mov	 QWORD PTR [rsp+16], rdx
  00005	48 89 4c 24 08	 mov	 QWORD PTR [rsp+8], rcx
  0000a	55		 push	 rbp
  0000b	57		 push	 rdi
  0000c	48 81 ec 08 01
	00 00		 sub	 rsp, 264		; 00000108H
  00013	48 8d 6c 24 20	 lea	 rbp, QWORD PTR [rsp+32]
  00018	48 8d 0d 00 00
	00 00		 lea	 rcx, OFFSET FLAT:__CF01DCB6_utility
  0001f	e8 00 00 00 00	 call	 __CheckForDebuggerJustMyCode

; 69   :     // return smaller of _Left and _Right
; 70   :     return _Right < _Left ? _Right : _Left;

  00024	48 8b 85 08 01
	00 00		 mov	 rax, QWORD PTR _Right$[rbp]
  0002b	48 8b 8d 00 01
	00 00		 mov	 rcx, QWORD PTR _Left$[rbp]
  00032	48 8b 09	 mov	 rcx, QWORD PTR [rcx]
  00035	48 39 08	 cmp	 QWORD PTR [rax], rcx
  00038	73 10		 jae	 SHORT $LN3@min
  0003a	48 8b 85 08 01
	00 00		 mov	 rax, QWORD PTR _Right$[rbp]
  00041	48 89 85 d8 00
	00 00		 mov	 QWORD PTR tv65[rbp], rax
  00048	eb 0e		 jmp	 SHORT $LN4@min
$LN3@min:
  0004a	48 8b 85 00 01
	00 00		 mov	 rax, QWORD PTR _Left$[rbp]
  00051	48 89 85 d8 00
	00 00		 mov	 QWORD PTR tv65[rbp], rax
$LN4@min:
  00058	48 8b 85 d8 00
	00 00		 mov	 rax, QWORD PTR tv65[rbp]
  0005f	48 89 85 c8 00
	00 00		 mov	 QWORD PTR $T1[rbp], rax
  00066	48 8b 85 c8 00
	00 00		 mov	 rax, QWORD PTR $T1[rbp]

; 71   : }

  0006d	48 8d a5 e8 00
	00 00		 lea	 rsp, QWORD PTR [rbp+232]
  00074	5f		 pop	 rdi
  00075	5d		 pop	 rbp
  00076	c3		 ret	 0
??$min@_K@std@@YAAEB_KAEB_K0@Z ENDP			; std::min<unsigned __int64>
_TEXT	ENDS
; Function compile flags: /Odtp /RTCsu /ZI
; File C:\Program Files\Microsoft Visual Studio\2022\Community\VC\Tools\MSVC\14.37.32822\include\ostream
;	COMDAT ??Bsentry@?$basic_ostream@DU?$char_traits@D@std@@@std@@QEBA_NXZ
_TEXT	SEGMENT
this$ = 224
??Bsentry@?$basic_ostream@DU?$char_traits@D@std@@@std@@QEBA_NXZ PROC ; std::basic_ostream<char,std::char_traits<char> >::sentry::operator bool, COMDAT

; 129  :         explicit __CLR_OR_THIS_CALL operator bool() const {

$LN3:
  00000	48 89 4c 24 08	 mov	 QWORD PTR [rsp+8], rcx
  00005	55		 push	 rbp
  00006	57		 push	 rdi
  00007	48 81 ec e8 00
	00 00		 sub	 rsp, 232		; 000000e8H
  0000e	48 8d 6c 24 20	 lea	 rbp, QWORD PTR [rsp+32]
  00013	48 8d 0d 00 00
	00 00		 lea	 rcx, OFFSET FLAT:__1D69971C_ostream
  0001a	e8 00 00 00 00	 call	 __CheckForDebuggerJustMyCode

; 130  :             return _Ok;

  0001f	48 8b 85 e0 00
	00 00		 mov	 rax, QWORD PTR this$[rbp]
  00026	0f b6 40 08	 movzx	 eax, BYTE PTR [rax+8]

; 131  :         }

  0002a	48 8d a5 c8 00
	00 00		 lea	 rsp, QWORD PTR [rbp+200]
  00031	5f		 pop	 rdi
  00032	5d		 pop	 rbp
  00033	c3		 ret	 0
??Bsentry@?$basic_ostream@DU?$char_traits@D@std@@@std@@QEBA_NXZ ENDP ; std::basic_ostream<char,std::char_traits<char> >::sentry::operator bool
_TEXT	ENDS
; Function compile flags: /Odtp /RTCsu /ZI
; File C:\Program Files\Microsoft Visual Studio\2022\Community\VC\Tools\MSVC\14.37.32822\include\ostream
;	COMDAT ??1sentry@?$basic_ostream@DU?$char_traits@D@std@@@std@@QEAA@XZ
_TEXT	SEGMENT
_Zero_uncaught_exceptions$ = 4
tv72 = 212
this$ = 256
??1sentry@?$basic_ostream@DU?$char_traits@D@std@@@std@@QEAA@XZ PROC ; std::basic_ostream<char,std::char_traits<char> >::sentry::~sentry, COMDAT

; 114  :         __CLR_OR_THIS_CALL ~sentry() noexcept {

$LN6:
  00000	48 89 4c 24 08	 mov	 QWORD PTR [rsp+8], rcx
  00005	55		 push	 rbp
  00006	57		 push	 rdi
  00007	48 81 ec 08 01
	00 00		 sub	 rsp, 264		; 00000108H
  0000e	48 8d 6c 24 20	 lea	 rbp, QWORD PTR [rsp+32]
  00013	48 8d 0d 00 00
	00 00		 lea	 rcx, OFFSET FLAT:__1D69971C_ostream
  0001a	e8 00 00 00 00	 call	 __CheckForDebuggerJustMyCode

; 115  : #if !_HAS_EXCEPTIONS
; 116  :             const bool _Zero_uncaught_exceptions = true;
; 117  : #elif _HAS_DEPRECATED_UNCAUGHT_EXCEPTION
; 118  :             const bool _Zero_uncaught_exceptions = !_STD uncaught_exception(); // TRANSITION, ArchivedOS-12000909

  0001f	e8 00 00 00 00	 call	 ?uncaught_exception@std@@YA_NXZ ; std::uncaught_exception
  00024	0f b6 c0	 movzx	 eax, al
  00027	85 c0		 test	 eax, eax
  00029	75 09		 jne	 SHORT $LN4@sentry
  0002b	c6 85 d4 00 00
	00 01		 mov	 BYTE PTR tv72[rbp], 1
  00032	eb 07		 jmp	 SHORT $LN5@sentry
$LN4@sentry:
  00034	c6 85 d4 00 00
	00 00		 mov	 BYTE PTR tv72[rbp], 0
$LN5@sentry:
  0003b	0f b6 85 d4 00
	00 00		 movzx	 eax, BYTE PTR tv72[rbp]
  00042	88 45 04	 mov	 BYTE PTR _Zero_uncaught_exceptions$[rbp], al

; 119  : #else // ^^^ _HAS_DEPRECATED_UNCAUGHT_EXCEPTION / !_HAS_DEPRECATED_UNCAUGHT_EXCEPTION vvv
; 120  :             const bool _Zero_uncaught_exceptions = _STD uncaught_exceptions() == 0;
; 121  : #endif // !_HAS_DEPRECATED_UNCAUGHT_EXCEPTION
; 122  : 
; 123  :             if (_Zero_uncaught_exceptions) {

  00045	0f b6 45 04	 movzx	 eax, BYTE PTR _Zero_uncaught_exceptions$[rbp]
  00049	85 c0		 test	 eax, eax
  0004b	74 10		 je	 SHORT $LN2@sentry

; 124  :                 this->_Myostr._Osfx();

  0004d	48 8b 85 00 01
	00 00		 mov	 rax, QWORD PTR this$[rbp]
  00054	48 8b 08	 mov	 rcx, QWORD PTR [rax]
  00057	ff 15 00 00 00
	00		 call	 QWORD PTR __imp_?_Osfx@?$basic_ostream@DU?$char_traits@D@std@@@std@@QEAAXXZ
$LN2@sentry:

; 125  :             }
; 126  :         }

  0005d	48 8b 8d 00 01
	00 00		 mov	 rcx, QWORD PTR this$[rbp]
  00064	e8 00 00 00 00	 call	 ??1_Sentry_base@?$basic_ostream@DU?$char_traits@D@std@@@std@@QEAA@XZ ; std::basic_ostream<char,std::char_traits<char> >::_Sentry_base::~_Sentry_base
  00069	48 8d a5 e8 00
	00 00		 lea	 rsp, QWORD PTR [rbp+232]
  00070	5f		 pop	 rdi
  00071	5d		 pop	 rbp
  00072	c3		 ret	 0
??1sentry@?$basic_ostream@DU?$char_traits@D@std@@@std@@QEAA@XZ ENDP ; std::basic_ostream<char,std::char_traits<char> >::sentry::~sentry
_TEXT	ENDS
; Function compile flags: /Odtp /RTCsu /ZI
; File C:\Program Files\Microsoft Visual Studio\2022\Community\VC\Tools\MSVC\14.37.32822\include\ostream
;	COMDAT ??0sentry@?$basic_ostream@DU?$char_traits@D@std@@@std@@QEAA@AEAV12@@Z
_TEXT	SEGMENT
_Tied$ = 8
this$ = 256
_Ostr$ = 264
??0sentry@?$basic_ostream@DU?$char_traits@D@std@@@std@@QEAA@AEAV12@@Z PROC ; std::basic_ostream<char,std::char_traits<char> >::sentry::sentry, COMDAT

; 97   :         explicit __CLR_OR_THIS_CALL sentry(basic_ostream& _Ostr) : _Sentry_base(_Ostr) {

$LN7:
  00000	48 89 54 24 10	 mov	 QWORD PTR [rsp+16], rdx
  00005	48 89 4c 24 08	 mov	 QWORD PTR [rsp+8], rcx
  0000a	55		 push	 rbp
  0000b	57		 push	 rdi
  0000c	48 81 ec 08 01
	00 00		 sub	 rsp, 264		; 00000108H
  00013	48 8d 6c 24 20	 lea	 rbp, QWORD PTR [rsp+32]
  00018	48 8d 0d 00 00
	00 00		 lea	 rcx, OFFSET FLAT:__1D69971C_ostream
  0001f	e8 00 00 00 00	 call	 __CheckForDebuggerJustMyCode
  00024	48 8b 95 08 01
	00 00		 mov	 rdx, QWORD PTR _Ostr$[rbp]
  0002b	48 8b 8d 00 01
	00 00		 mov	 rcx, QWORD PTR this$[rbp]
  00032	e8 00 00 00 00	 call	 ??0_Sentry_base@?$basic_ostream@DU?$char_traits@D@std@@@std@@QEAA@AEAV12@@Z ; std::basic_ostream<char,std::char_traits<char> >::_Sentry_base::_Sentry_base
  00037	90		 npad	 1

; 98   :             if (!_Ostr.good()) {

  00038	48 8b 85 08 01
	00 00		 mov	 rax, QWORD PTR _Ostr$[rbp]
  0003f	48 8b 00	 mov	 rax, QWORD PTR [rax]
  00042	48 63 40 04	 movsxd	 rax, DWORD PTR [rax+4]
  00046	48 8b 8d 08 01
	00 00		 mov	 rcx, QWORD PTR _Ostr$[rbp]
  0004d	48 03 c8	 add	 rcx, rax
  00050	48 8b c1	 mov	 rax, rcx
  00053	48 8b c8	 mov	 rcx, rax
  00056	ff 15 00 00 00
	00		 call	 QWORD PTR __imp_?good@ios_base@std@@QEBA_NXZ
  0005c	0f b6 c0	 movzx	 eax, al
  0005f	85 c0		 test	 eax, eax
  00061	75 10		 jne	 SHORT $LN2@sentry

; 99   :                 _Ok = false;

  00063	48 8b 85 00 01
	00 00		 mov	 rax, QWORD PTR this$[rbp]
  0006a	c6 40 08 00	 mov	 BYTE PTR [rax+8], 0

; 100  :                 return;

  0006e	e9 81 00 00 00	 jmp	 $LN1@sentry
$LN2@sentry:

; 101  :             }
; 102  : 
; 103  :             const auto _Tied = _Ostr.tie();

  00073	48 8b 85 08 01
	00 00		 mov	 rax, QWORD PTR _Ostr$[rbp]
  0007a	48 8b 00	 mov	 rax, QWORD PTR [rax]
  0007d	48 63 40 04	 movsxd	 rax, DWORD PTR [rax+4]
  00081	48 8b 8d 08 01
	00 00		 mov	 rcx, QWORD PTR _Ostr$[rbp]
  00088	48 03 c8	 add	 rcx, rax
  0008b	48 8b c1	 mov	 rax, rcx
  0008e	48 8b c8	 mov	 rcx, rax
  00091	ff 15 00 00 00
	00		 call	 QWORD PTR __imp_?tie@?$basic_ios@DU?$char_traits@D@std@@@std@@QEBAPEAV?$basic_ostream@DU?$char_traits@D@std@@@2@XZ
  00097	48 89 45 08	 mov	 QWORD PTR _Tied$[rbp], rax

; 104  :             if (!_Tied || _Tied == &_Ostr) {

  0009b	48 83 7d 08 00	 cmp	 QWORD PTR _Tied$[rbp], 0
  000a0	74 0d		 je	 SHORT $LN4@sentry
  000a2	48 8b 85 08 01
	00 00		 mov	 rax, QWORD PTR _Ostr$[rbp]
  000a9	48 39 45 08	 cmp	 QWORD PTR _Tied$[rbp], rax
  000ad	75 0d		 jne	 SHORT $LN3@sentry
$LN4@sentry:

; 105  :                 _Ok = true;

  000af	48 8b 85 00 01
	00 00		 mov	 rax, QWORD PTR this$[rbp]
  000b6	c6 40 08 01	 mov	 BYTE PTR [rax+8], 1

; 106  :                 return;

  000ba	eb 38		 jmp	 SHORT $LN1@sentry
$LN3@sentry:

; 107  :             }
; 108  : 
; 109  :             _Tied->flush();

  000bc	48 8b 4d 08	 mov	 rcx, QWORD PTR _Tied$[rbp]
  000c0	ff 15 00 00 00
	00		 call	 QWORD PTR __imp_?flush@?$basic_ostream@DU?$char_traits@D@std@@@std@@QEAAAEAV12@XZ

; 110  :             _Ok = _Ostr.good(); // store test only after flushing tie

  000c6	48 8b 85 08 01
	00 00		 mov	 rax, QWORD PTR _Ostr$[rbp]
  000cd	48 8b 00	 mov	 rax, QWORD PTR [rax]
  000d0	48 63 40 04	 movsxd	 rax, DWORD PTR [rax+4]
  000d4	48 8b 8d 08 01
	00 00		 mov	 rcx, QWORD PTR _Ostr$[rbp]
  000db	48 03 c8	 add	 rcx, rax
  000de	48 8b c1	 mov	 rax, rcx
  000e1	48 8b c8	 mov	 rcx, rax
  000e4	ff 15 00 00 00
	00		 call	 QWORD PTR __imp_?good@ios_base@std@@QEBA_NXZ
  000ea	48 8b 8d 00 01
	00 00		 mov	 rcx, QWORD PTR this$[rbp]
  000f1	88 41 08	 mov	 BYTE PTR [rcx+8], al
$LN1@sentry:

; 111  :         }

  000f4	48 8b 85 00 01
	00 00		 mov	 rax, QWORD PTR this$[rbp]
  000fb	48 8d a5 e8 00
	00 00		 lea	 rsp, QWORD PTR [rbp+232]
  00102	5f		 pop	 rdi
  00103	5d		 pop	 rbp
  00104	c3		 ret	 0
??0sentry@?$basic_ostream@DU?$char_traits@D@std@@@std@@QEAA@AEAV12@@Z ENDP ; std::basic_ostream<char,std::char_traits<char> >::sentry::sentry
_TEXT	ENDS
; Function compile flags: /Odtp /RTCsu /ZI
;	COMDAT text$x
text$x	SEGMENT
_Tied$ = 8
this$ = 256
_Ostr$ = 264
?dtor$0@?0???0sentry@?$basic_ostream@DU?$char_traits@D@std@@@std@@QEAA@AEAV12@@Z@4HA PROC ; `std::basic_ostream<char,std::char_traits<char> >::sentry::sentry'::`1'::dtor$0
  00000	48 89 4c 24 08	 mov	 QWORD PTR [rsp+8], rcx
  00005	48 89 54 24 10	 mov	 QWORD PTR [rsp+16], rdx
  0000a	55		 push	 rbp
  0000b	57		 push	 rdi
  0000c	48 83 ec 28	 sub	 rsp, 40			; 00000028H
  00010	48 8d 6a 20	 lea	 rbp, QWORD PTR [rdx+32]
  00014	48 8b 8d 00 01
	00 00		 mov	 rcx, QWORD PTR this$[rbp]
  0001b	e8 00 00 00 00	 call	 ??1_Sentry_base@?$basic_ostream@DU?$char_traits@D@std@@@std@@QEAA@XZ ; std::basic_ostream<char,std::char_traits<char> >::_Sentry_base::~_Sentry_base
  00020	48 83 c4 28	 add	 rsp, 40			; 00000028H
  00024	5f		 pop	 rdi
  00025	5d		 pop	 rbp
  00026	c3		 ret	 0
?dtor$0@?0???0sentry@?$basic_ostream@DU?$char_traits@D@std@@@std@@QEAA@AEAV12@@Z@4HA ENDP ; `std::basic_ostream<char,std::char_traits<char> >::sentry::sentry'::`1'::dtor$0
text$x	ENDS
; Function compile flags: /Odtp /RTCsu /ZI
; File C:\Program Files\Microsoft Visual Studio\2022\Community\VC\Tools\MSVC\14.37.32822\include\ostream
;	COMDAT ??1_Sentry_base@?$basic_ostream@DU?$char_traits@D@std@@@std@@QEAA@XZ
_TEXT	SEGMENT
_Rdbuf$ = 8
tv72 = 216
this$ = 256
??1_Sentry_base@?$basic_ostream@DU?$char_traits@D@std@@@std@@QEAA@XZ PROC ; std::basic_ostream<char,std::char_traits<char> >::_Sentry_base::~_Sentry_base, COMDAT

; 83   :         __CLR_OR_THIS_CALL ~_Sentry_base() noexcept { // destroy after unlocking

$LN4:
  00000	48 89 4c 24 08	 mov	 QWORD PTR [rsp+8], rcx
  00005	55		 push	 rbp
  00006	57		 push	 rdi
  00007	48 81 ec 08 01
	00 00		 sub	 rsp, 264		; 00000108H
  0000e	48 8d 6c 24 20	 lea	 rbp, QWORD PTR [rsp+32]
  00013	48 8d 0d 00 00
	00 00		 lea	 rcx, OFFSET FLAT:__1D69971C_ostream
  0001a	e8 00 00 00 00	 call	 __CheckForDebuggerJustMyCode

; 84   :             const auto _Rdbuf = _Myostr.rdbuf();

  0001f	48 8b 85 00 01
	00 00		 mov	 rax, QWORD PTR this$[rbp]
  00026	48 8b 00	 mov	 rax, QWORD PTR [rax]
  00029	48 89 85 d8 00
	00 00		 mov	 QWORD PTR tv72[rbp], rax
  00030	48 8b 85 d8 00
	00 00		 mov	 rax, QWORD PTR tv72[rbp]
  00037	48 8b 00	 mov	 rax, QWORD PTR [rax]
  0003a	48 63 40 04	 movsxd	 rax, DWORD PTR [rax+4]
  0003e	48 8b 8d d8 00
	00 00		 mov	 rcx, QWORD PTR tv72[rbp]
  00045	48 03 c8	 add	 rcx, rax
  00048	48 8b c1	 mov	 rax, rcx
  0004b	48 8b c8	 mov	 rcx, rax
  0004e	ff 15 00 00 00
	00		 call	 QWORD PTR __imp_?rdbuf@?$basic_ios@DU?$char_traits@D@std@@@std@@QEBAPEAV?$basic_streambuf@DU?$char_traits@D@std@@@2@XZ
  00054	48 89 45 08	 mov	 QWORD PTR _Rdbuf$[rbp], rax

; 85   :             if (_Rdbuf) {

  00058	48 83 7d 08 00	 cmp	 QWORD PTR _Rdbuf$[rbp], 0
  0005d	74 0f		 je	 SHORT $LN2@Sentry_bas

; 86   :                 _Rdbuf->_Unlock();

  0005f	48 8b 45 08	 mov	 rax, QWORD PTR _Rdbuf$[rbp]
  00063	48 8b 00	 mov	 rax, QWORD PTR [rax]
  00066	48 8b 4d 08	 mov	 rcx, QWORD PTR _Rdbuf$[rbp]
  0006a	ff 50 10	 call	 QWORD PTR [rax+16]
  0006d	90		 npad	 1
$LN2@Sentry_bas:

; 87   :             }
; 88   :         }

  0006e	48 8d a5 e8 00
	00 00		 lea	 rsp, QWORD PTR [rbp+232]
  00075	5f		 pop	 rdi
  00076	5d		 pop	 rbp
  00077	c3		 ret	 0
??1_Sentry_base@?$basic_ostream@DU?$char_traits@D@std@@@std@@QEAA@XZ ENDP ; std::basic_ostream<char,std::char_traits<char> >::_Sentry_base::~_Sentry_base
_TEXT	ENDS
; Function compile flags: /Odtp /RTCsu /ZI
; File C:\Program Files\Microsoft Visual Studio\2022\Community\VC\Tools\MSVC\14.37.32822\include\ostream
;	COMDAT ??0_Sentry_base@?$basic_ostream@DU?$char_traits@D@std@@@std@@QEAA@AEAV12@@Z
_TEXT	SEGMENT
_Rdbuf$ = 8
tv73 = 216
this$ = 256
_Ostr$ = 264
??0_Sentry_base@?$basic_ostream@DU?$char_traits@D@std@@@std@@QEAA@AEAV12@@Z PROC ; std::basic_ostream<char,std::char_traits<char> >::_Sentry_base::_Sentry_base, COMDAT

; 76   :         __CLR_OR_THIS_CALL _Sentry_base(basic_ostream& _Ostr) : _Myostr(_Ostr) { // lock the stream buffer, if there

$LN4:
  00000	48 89 54 24 10	 mov	 QWORD PTR [rsp+16], rdx
  00005	48 89 4c 24 08	 mov	 QWORD PTR [rsp+8], rcx
  0000a	55		 push	 rbp
  0000b	57		 push	 rdi
  0000c	48 81 ec 08 01
	00 00		 sub	 rsp, 264		; 00000108H
  00013	48 8d 6c 24 20	 lea	 rbp, QWORD PTR [rsp+32]
  00018	48 8d 0d 00 00
	00 00		 lea	 rcx, OFFSET FLAT:__1D69971C_ostream
  0001f	e8 00 00 00 00	 call	 __CheckForDebuggerJustMyCode
  00024	48 8b 85 00 01
	00 00		 mov	 rax, QWORD PTR this$[rbp]
  0002b	48 8b 8d 08 01
	00 00		 mov	 rcx, QWORD PTR _Ostr$[rbp]
  00032	48 89 08	 mov	 QWORD PTR [rax], rcx

; 77   :             const auto _Rdbuf = _Myostr.rdbuf();

  00035	48 8b 85 00 01
	00 00		 mov	 rax, QWORD PTR this$[rbp]
  0003c	48 8b 00	 mov	 rax, QWORD PTR [rax]
  0003f	48 89 85 d8 00
	00 00		 mov	 QWORD PTR tv73[rbp], rax
  00046	48 8b 85 d8 00
	00 00		 mov	 rax, QWORD PTR tv73[rbp]
  0004d	48 8b 00	 mov	 rax, QWORD PTR [rax]
  00050	48 63 40 04	 movsxd	 rax, DWORD PTR [rax+4]
  00054	48 8b 8d d8 00
	00 00		 mov	 rcx, QWORD PTR tv73[rbp]
  0005b	48 03 c8	 add	 rcx, rax
  0005e	48 8b c1	 mov	 rax, rcx
  00061	48 8b c8	 mov	 rcx, rax
  00064	ff 15 00 00 00
	00		 call	 QWORD PTR __imp_?rdbuf@?$basic_ios@DU?$char_traits@D@std@@@std@@QEBAPEAV?$basic_streambuf@DU?$char_traits@D@std@@@2@XZ
  0006a	48 89 45 08	 mov	 QWORD PTR _Rdbuf$[rbp], rax

; 78   :             if (_Rdbuf) {

  0006e	48 83 7d 08 00	 cmp	 QWORD PTR _Rdbuf$[rbp], 0
  00073	74 0e		 je	 SHORT $LN2@Sentry_bas

; 79   :                 _Rdbuf->_Lock();

  00075	48 8b 45 08	 mov	 rax, QWORD PTR _Rdbuf$[rbp]
  00079	48 8b 00	 mov	 rax, QWORD PTR [rax]
  0007c	48 8b 4d 08	 mov	 rcx, QWORD PTR _Rdbuf$[rbp]
  00080	ff 50 08	 call	 QWORD PTR [rax+8]
$LN2@Sentry_bas:

; 80   :             }
; 81   :         }

  00083	48 8b 85 00 01
	00 00		 mov	 rax, QWORD PTR this$[rbp]
  0008a	48 8d a5 e8 00
	00 00		 lea	 rsp, QWORD PTR [rbp+232]
  00091	5f		 pop	 rdi
  00092	5d		 pop	 rbp
  00093	c3		 ret	 0
??0_Sentry_base@?$basic_ostream@DU?$char_traits@D@std@@@std@@QEAA@AEAV12@@Z ENDP ; std::basic_ostream<char,std::char_traits<char> >::_Sentry_base::_Sentry_base
_TEXT	ENDS
; Function compile flags: /Odtp /RTCsu /ZI
; File C:\Program Files\Microsoft Visual Studio\2022\Community\VC\Tools\MSVC\14.37.32822\include\xstring
;	COMDAT ??$?6DU?$char_traits@D@std@@V?$allocator@D@1@@std@@YAAEAV?$basic_ostream@DU?$char_traits@D@std@@@0@AEAV10@AEBV?$basic_string@DU?$char_traits@D@std@@V?$allocator@D@2@@0@@Z
_TEXT	SEGMENT
tv66 = 192
_Ostr$ = 240
_Str$ = 248
??$?6DU?$char_traits@D@std@@V?$allocator@D@1@@std@@YAAEAV?$basic_ostream@DU?$char_traits@D@std@@@0@AEAV10@AEBV?$basic_string@DU?$char_traits@D@std@@V?$allocator@D@2@@0@@Z PROC ; std::operator<<<char,std::char_traits<char>,std::allocator<char> >, COMDAT

; 5186 :     basic_ostream<_Elem, _Traits>& _Ostr, const basic_string<_Elem, _Traits, _Alloc>& _Str) {

$LN3:
  00000	48 89 54 24 10	 mov	 QWORD PTR [rsp+16], rdx
  00005	48 89 4c 24 08	 mov	 QWORD PTR [rsp+8], rcx
  0000a	55		 push	 rbp
  0000b	57		 push	 rdi
  0000c	48 81 ec f8 00
	00 00		 sub	 rsp, 248		; 000000f8H
  00013	48 8d 6c 24 20	 lea	 rbp, QWORD PTR [rsp+32]
  00018	48 8d 0d 00 00
	00 00		 lea	 rcx, OFFSET FLAT:__D14739E9_xstring
  0001f	e8 00 00 00 00	 call	 __CheckForDebuggerJustMyCode

; 5187 :     return _Insert_string(_Ostr, _Str.data(), _Str.size());

  00024	48 8b 8d f8 00
	00 00		 mov	 rcx, QWORD PTR _Str$[rbp]
  0002b	e8 00 00 00 00	 call	 ?size@?$basic_string@DU?$char_traits@D@std@@V?$allocator@D@2@@std@@QEBA_KXZ ; std::basic_string<char,std::char_traits<char>,std::allocator<char> >::size
  00030	48 89 85 c0 00
	00 00		 mov	 QWORD PTR tv66[rbp], rax
  00037	48 8b 8d f8 00
	00 00		 mov	 rcx, QWORD PTR _Str$[rbp]
  0003e	e8 00 00 00 00	 call	 ?data@?$basic_string@DU?$char_traits@D@std@@V?$allocator@D@2@@std@@QEBAPEBDXZ ; std::basic_string<char,std::char_traits<char>,std::allocator<char> >::data
  00043	48 8b 8d c0 00
	00 00		 mov	 rcx, QWORD PTR tv66[rbp]
  0004a	4c 8b c1	 mov	 r8, rcx
  0004d	48 8b d0	 mov	 rdx, rax
  00050	48 8b 8d f0 00
	00 00		 mov	 rcx, QWORD PTR _Ostr$[rbp]
  00057	e8 00 00 00 00	 call	 ??$_Insert_string@DU?$char_traits@D@std@@_K@std@@YAAEAV?$basic_ostream@DU?$char_traits@D@std@@@0@AEAV10@QEBD_K@Z ; std::_Insert_string<char,std::char_traits<char>,unsigned __int64>

; 5188 : }

  0005c	48 8d a5 d8 00
	00 00		 lea	 rsp, QWORD PTR [rbp+216]
  00063	5f		 pop	 rdi
  00064	5d		 pop	 rbp
  00065	c3		 ret	 0
??$?6DU?$char_traits@D@std@@V?$allocator@D@1@@std@@YAAEAV?$basic_ostream@DU?$char_traits@D@std@@@0@AEAV10@AEBV?$basic_string@DU?$char_traits@D@std@@V?$allocator@D@2@@0@@Z ENDP ; std::operator<<<char,std::char_traits<char>,std::allocator<char> >
_TEXT	ENDS
; Function compile flags: /Odtp /RTCsu /ZI
; File C:\\\\lab_03\ConsoleApplication1\main.cpp
;	COMDAT main
_TEXT	SEGMENT
date$ = 4
day$ = 36
month$ = 68
year$ = 100
ind$ = 132
countday1$ = 164
countday2$ = 196
difference$6 = 228
currentTime$7 = 264
localTime$8 = 296
hours$9 = 324
$T10 = 552
tv250 = 600
tv249 = 608
__$ArrayPad$ = 616
main	PROC						; COMDAT

; 78   : {

$LN15:
  00000	40 55		 push	 rbp
  00002	57		 push	 rdi
  00003	48 81 ec 98 02
	00 00		 sub	 rsp, 664		; 00000298H
  0000a	48 8d 6c 24 20	 lea	 rbp, QWORD PTR [rsp+32]
  0000f	48 8d 7c 24 20	 lea	 rdi, QWORD PTR [rsp+32]
  00014	b9 6e 00 00 00	 mov	 ecx, 110		; 0000006eH
  00019	b8 cc cc cc cc	 mov	 eax, -858993460		; ccccccccH
  0001e	f3 ab		 rep stosd
  00020	48 8b 05 00 00
	00 00		 mov	 rax, QWORD PTR __security_cookie
  00027	48 33 c5	 xor	 rax, rbp
  0002a	48 89 85 68 02
	00 00		 mov	 QWORD PTR __$ArrayPad$[rbp], rax
  00031	48 8d 0d 00 00
	00 00		 lea	 rcx, OFFSET FLAT:__0E5718B5_main@cpp
  00038	e8 00 00 00 00	 call	 __CheckForDebuggerJustMyCode

; 79   : 	setlocale(LC_ALL, "rus");

  0003d	48 8d 15 00 00
	00 00		 lea	 rdx, OFFSET FLAT:??_C@_03EJKFMIHK@rus@
  00044	33 c9		 xor	 ecx, ecx
  00046	ff 15 00 00 00
	00		 call	 QWORD PTR __imp_setlocale

; 80   : 	int date, day, month, year, ind, countday1, countday2;
; 81   : 	cout << "    : "; cin >> date;

  0004c	48 8d 15 00 00
	00 00		 lea	 rdx, OFFSET FLAT:??_C@_0CC@GJFPIFCJ@?B?b?e?d?h?r?e?5?d?$OA?r?s?5?b?5?t?n?p?l?$OA?r?e?5?D?D?L?L?C?C?C?C@
  00053	48 8b 0d 00 00
	00 00		 mov	 rcx, QWORD PTR __imp_?cout@std@@3V?$basic_ostream@DU?$char_traits@D@std@@@1@A
  0005a	e8 00 00 00 00	 call	 ??$?6U?$char_traits@D@std@@@std@@YAAEAV?$basic_ostream@DU?$char_traits@D@std@@@0@AEAV10@PEBD@Z ; std::operator<<<std::char_traits<char> >
  0005f	48 8d 55 04	 lea	 rdx, QWORD PTR date$[rbp]
  00063	48 8b 0d 00 00
	00 00		 mov	 rcx, QWORD PTR __imp_?cin@std@@3V?$basic_istream@DU?$char_traits@D@std@@@1@A
  0006a	ff 15 00 00 00
	00		 call	 QWORD PTR __imp_??5?$basic_istream@DU?$char_traits@D@std@@@std@@QEAAAEAV01@AEAH@Z

; 82   : 
; 83   : 	day = date / 1000000;

  00070	8b 45 04	 mov	 eax, DWORD PTR date$[rbp]
  00073	99		 cdq
  00074	b9 40 42 0f 00	 mov	 ecx, 1000000		; 000f4240H
  00079	f7 f9		 idiv	 ecx
  0007b	89 45 24	 mov	 DWORD PTR day$[rbp], eax

; 84   : 	month = (date - (day * 1000000)) / 10000;

  0007e	69 45 24 40 42
	0f 00		 imul	 eax, DWORD PTR day$[rbp], 1000000 ; 000f4240H
  00085	8b 4d 04	 mov	 ecx, DWORD PTR date$[rbp]
  00088	2b c8		 sub	 ecx, eax
  0008a	8b c1		 mov	 eax, ecx
  0008c	99		 cdq
  0008d	b9 10 27 00 00	 mov	 ecx, 10000		; 00002710H
  00092	f7 f9		 idiv	 ecx
  00094	89 45 44	 mov	 DWORD PTR month$[rbp], eax

; 85   : 	year = date % 10000;

  00097	8b 45 04	 mov	 eax, DWORD PTR date$[rbp]
  0009a	99		 cdq
  0009b	b9 10 27 00 00	 mov	 ecx, 10000		; 00002710H
  000a0	f7 f9		 idiv	 ecx
  000a2	8b c2		 mov	 eax, edx
  000a4	89 45 64	 mov	 DWORD PTR year$[rbp], eax

; 86   : 	if (day > 31 || month > 12 || year < 1000 || year>9999 || (!isLeap && month == 2 && day == 29))

  000a7	83 7d 24 1f	 cmp	 DWORD PTR day$[rbp], 31
  000ab	7f 2f		 jg	 SHORT $LN4@main
  000ad	83 7d 44 0c	 cmp	 DWORD PTR month$[rbp], 12
  000b1	7f 29		 jg	 SHORT $LN4@main
  000b3	81 7d 64 e8 03
	00 00		 cmp	 DWORD PTR year$[rbp], 1000 ; 000003e8H
  000ba	7c 20		 jl	 SHORT $LN4@main
  000bc	81 7d 64 0f 27
	00 00		 cmp	 DWORD PTR year$[rbp], 9999 ; 0000270fH
  000c3	7f 17		 jg	 SHORT $LN4@main
  000c5	0f b6 05 00 00
	00 00		 movzx	 eax, BYTE PTR ?isLeap@@3_NA ; isLeap
  000cc	85 c0		 test	 eax, eax
  000ce	75 24		 jne	 SHORT $LN2@main
  000d0	83 7d 44 02	 cmp	 DWORD PTR month$[rbp], 2
  000d4	75 1e		 jne	 SHORT $LN2@main
  000d6	83 7d 24 1d	 cmp	 DWORD PTR day$[rbp], 29
  000da	75 18		 jne	 SHORT $LN2@main
$LN4@main:

; 87   : 	{
; 88   : 		cout << "   !";

  000dc	48 8d 15 00 00
	00 00		 lea	 rdx, OFFSET FLAT:??_C@_0CA@JIJBLJJE@?B?$PL?5?b?b?e?k?h?5?m?e?o?p?$OA?b?h?k?$PM?m?n?e?5?g?m?$OA?w?e?m?h?e?$CB@
  000e3	48 8b 0d 00 00
	00 00		 mov	 rcx, QWORD PTR __imp_?cout@std@@3V?$basic_ostream@DU?$char_traits@D@std@@@1@A
  000ea	e8 00 00 00 00	 call	 ??$?6U?$char_traits@D@std@@@std@@YAAEAV?$basic_ostream@DU?$char_traits@D@std@@@0@AEAV10@PEBD@Z ; std::operator<<<std::char_traits<char> >

; 89   : 	}

  000ef	e9 a4 03 00 00	 jmp	 $LN3@main
$LN2@main:

; 90   : 	else
; 91   : 	{
; 92   : 		cout << ": " << day << endl;

  000f4	48 8d 15 00 00
	00 00		 lea	 rdx, OFFSET FLAT:??_C@_06LMMEPPLN@?D?e?m?$PM?3?5@
  000fb	48 8b 0d 00 00
	00 00		 mov	 rcx, QWORD PTR __imp_?cout@std@@3V?$basic_ostream@DU?$char_traits@D@std@@@1@A
  00102	e8 00 00 00 00	 call	 ??$?6U?$char_traits@D@std@@@std@@YAAEAV?$basic_ostream@DU?$char_traits@D@std@@@0@AEAV10@PEBD@Z ; std::operator<<<std::char_traits<char> >
  00107	8b 55 24	 mov	 edx, DWORD PTR day$[rbp]
  0010a	48 8b c8	 mov	 rcx, rax
  0010d	ff 15 00 00 00
	00		 call	 QWORD PTR __imp_??6?$basic_ostream@DU?$char_traits@D@std@@@std@@QEAAAEAV01@H@Z
  00113	48 8d 15 00 00
	00 00		 lea	 rdx, OFFSET FLAT:??$endl@DU?$char_traits@D@std@@@std@@YAAEAV?$basic_ostream@DU?$char_traits@D@std@@@0@AEAV10@@Z ; std::endl<char,std::char_traits<char> >
  0011a	48 8b c8	 mov	 rcx, rax
  0011d	ff 15 00 00 00
	00		 call	 QWORD PTR __imp_??6?$basic_ostream@DU?$char_traits@D@std@@@std@@QEAAAEAV01@P6AAEAV01@AEAV01@@Z@Z

; 93   : 		cout << ": " << month << " - " << mont(month) << endl;

  00123	8b 55 44	 mov	 edx, DWORD PTR month$[rbp]
  00126	48 8d 8d 28 02
	00 00		 lea	 rcx, QWORD PTR $T10[rbp]
  0012d	e8 00 00 00 00	 call	 ?mont@@YA?AV?$basic_string@DU?$char_traits@D@std@@V?$allocator@D@2@@std@@H@Z ; mont
  00132	48 89 85 58 02
	00 00		 mov	 QWORD PTR tv250[rbp], rax
  00139	48 8b 85 58 02
	00 00		 mov	 rax, QWORD PTR tv250[rbp]
  00140	48 89 85 60 02
	00 00		 mov	 QWORD PTR tv249[rbp], rax
  00147	48 8d 15 00 00
	00 00		 lea	 rdx, OFFSET FLAT:??_C@_07ONJDPLPB@?L?e?q?$PP?v?3?5@
  0014e	48 8b 0d 00 00
	00 00		 mov	 rcx, QWORD PTR __imp_?cout@std@@3V?$basic_ostream@DU?$char_traits@D@std@@@1@A
  00155	e8 00 00 00 00	 call	 ??$?6U?$char_traits@D@std@@@std@@YAAEAV?$basic_ostream@DU?$char_traits@D@std@@@0@AEAV10@PEBD@Z ; std::operator<<<std::char_traits<char> >
  0015a	8b 55 44	 mov	 edx, DWORD PTR month$[rbp]
  0015d	48 8b c8	 mov	 rcx, rax
  00160	ff 15 00 00 00
	00		 call	 QWORD PTR __imp_??6?$basic_ostream@DU?$char_traits@D@std@@@std@@QEAAAEAV01@H@Z
  00166	48 8d 15 00 00
	00 00		 lea	 rdx, OFFSET FLAT:??_C@_03NLJIHOMM@?5?9?5@
  0016d	48 8b c8	 mov	 rcx, rax
  00170	e8 00 00 00 00	 call	 ??$?6U?$char_traits@D@std@@@std@@YAAEAV?$basic_ostream@DU?$char_traits@D@std@@@0@AEAV10@PEBD@Z ; std::operator<<<std::char_traits<char> >
  00175	48 8b 95 60 02
	00 00		 mov	 rdx, QWORD PTR tv249[rbp]
  0017c	48 8b c8	 mov	 rcx, rax
  0017f	e8 00 00 00 00	 call	 ??$?6DU?$char_traits@D@std@@V?$allocator@D@1@@std@@YAAEAV?$basic_ostream@DU?$char_traits@D@std@@@0@AEAV10@AEBV?$basic_string@DU?$char_traits@D@std@@V?$allocator@D@2@@0@@Z ; std::operator<<<char,std::char_traits<char>,std::allocator<char> >
  00184	48 8d 15 00 00
	00 00		 lea	 rdx, OFFSET FLAT:??$endl@DU?$char_traits@D@std@@@std@@YAAEAV?$basic_ostream@DU?$char_traits@D@std@@@0@AEAV10@@Z ; std::endl<char,std::char_traits<char> >
  0018b	48 8b c8	 mov	 rcx, rax
  0018e	ff 15 00 00 00
	00		 call	 QWORD PTR __imp_??6?$basic_ostream@DU?$char_traits@D@std@@@std@@QEAAAEAV01@P6AAEAV01@AEAV01@@Z@Z
  00194	90		 npad	 1
  00195	48 8d 8d 28 02
	00 00		 lea	 rcx, QWORD PTR $T10[rbp]
  0019c	e8 00 00 00 00	 call	 ??1?$basic_string@DU?$char_traits@D@std@@V?$allocator@D@2@@std@@QEAA@XZ ; std::basic_string<char,std::char_traits<char>,std::allocator<char> >::~basic_string<char,std::char_traits<char>,std::allocator<char> >

; 94   : 		cout << ": " << year << endl;

  001a1	48 8d 15 00 00
	00 00		 lea	 rdx, OFFSET FLAT:??_C@_05KLMANJHD@?C?n?d?3?5@
  001a8	48 8b 0d 00 00
	00 00		 mov	 rcx, QWORD PTR __imp_?cout@std@@3V?$basic_ostream@DU?$char_traits@D@std@@@1@A
  001af	e8 00 00 00 00	 call	 ??$?6U?$char_traits@D@std@@@std@@YAAEAV?$basic_ostream@DU?$char_traits@D@std@@@0@AEAV10@PEBD@Z ; std::operator<<<std::char_traits<char> >
  001b4	8b 55 64	 mov	 edx, DWORD PTR year$[rbp]
  001b7	48 8b c8	 mov	 rcx, rax
  001ba	ff 15 00 00 00
	00		 call	 QWORD PTR __imp_??6?$basic_ostream@DU?$char_traits@D@std@@@std@@QEAAAEAV01@H@Z
  001c0	48 8d 15 00 00
	00 00		 lea	 rdx, OFFSET FLAT:??$endl@DU?$char_traits@D@std@@@std@@YAAEAV?$basic_ostream@DU?$char_traits@D@std@@@0@AEAV10@@Z ; std::endl<char,std::char_traits<char> >
  001c7	48 8b c8	 mov	 rcx, rax
  001ca	ff 15 00 00 00
	00		 call	 QWORD PTR __imp_??6?$basic_ostream@DU?$char_traits@D@std@@@std@@QEAAAEAV01@P6AAEAV01@AEAV01@@Z@Z

; 95   : 
; 96   : 		isLeap = leapyear(year, isLeap);

  001d0	0f b6 15 00 00
	00 00		 movzx	 edx, BYTE PTR ?isLeap@@3_NA ; isLeap
  001d7	8b 4d 64	 mov	 ecx, DWORD PTR year$[rbp]
  001da	e8 00 00 00 00	 call	 ?leapyear@@YA_NH_N@Z	; leapyear
  001df	88 05 00 00 00
	00		 mov	 BYTE PTR ?isLeap@@3_NA, al ; isLeap

; 97   : 		cout << endl;

  001e5	48 8d 15 00 00
	00 00		 lea	 rdx, OFFSET FLAT:??$endl@DU?$char_traits@D@std@@@std@@YAAEAV?$basic_ostream@DU?$char_traits@D@std@@@0@AEAV10@@Z ; std::endl<char,std::char_traits<char> >
  001ec	48 8b 0d 00 00
	00 00		 mov	 rcx, QWORD PTR __imp_?cout@std@@3V?$basic_ostream@DU?$char_traits@D@std@@@1@A
  001f3	ff 15 00 00 00
	00		 call	 QWORD PTR __imp_??6?$basic_ostream@DU?$char_traits@D@std@@@std@@QEAAAEAV01@P6AAEAV01@AEAV01@@Z@Z

; 98   : 
; 99   : 		countday1 = dateNumber(day, month, year, isLeap);

  001f9	44 0f b6 0d 00
	00 00 00	 movzx	 r9d, BYTE PTR ?isLeap@@3_NA ; isLeap
  00201	44 8b 45 64	 mov	 r8d, DWORD PTR year$[rbp]
  00205	8b 55 44	 mov	 edx, DWORD PTR month$[rbp]
  00208	8b 4d 24	 mov	 ecx, DWORD PTR day$[rbp]
  0020b	e8 00 00 00 00	 call	 ?dateNumber@@YAHHHH_N@Z	; dateNumber
  00210	89 85 a4 00 00
	00		 mov	 DWORD PTR countday1$[rbp], eax

; 100  : 
; 101  : 		cout << endl << "  : "; cin >> ind;

  00216	48 8d 15 00 00
	00 00		 lea	 rdx, OFFSET FLAT:??$endl@DU?$char_traits@D@std@@@std@@YAAEAV?$basic_ostream@DU?$char_traits@D@std@@@0@AEAV10@@Z ; std::endl<char,std::char_traits<char> >
  0021d	48 8b 0d 00 00
	00 00		 mov	 rcx, QWORD PTR __imp_?cout@std@@3V?$basic_ostream@DU?$char_traits@D@std@@@1@A
  00224	ff 15 00 00 00
	00		 call	 QWORD PTR __imp_??6?$basic_ostream@DU?$char_traits@D@std@@@std@@QEAAAEAV01@P6AAEAV01@AEAV01@@Z@Z
  0022a	48 8d 15 00 00
	00 00		 lea	 rdx, OFFSET FLAT:??_C@_0BL@MFLHOIBP@?B?b?e?d?h?r?e?5?o?n?p?$PP?d?j?n?b?$PL?i?5?m?n?l?e?p?3?5@
  00231	48 8b c8	 mov	 rcx, rax
  00234	e8 00 00 00 00	 call	 ??$?6U?$char_traits@D@std@@@std@@YAAEAV?$basic_ostream@DU?$char_traits@D@std@@@0@AEAV10@PEBD@Z ; std::operator<<<std::char_traits<char> >
  00239	48 8d 95 84 00
	00 00		 lea	 rdx, QWORD PTR ind$[rbp]
  00240	48 8b 0d 00 00
	00 00		 mov	 rcx, QWORD PTR __imp_?cin@std@@3V?$basic_istream@DU?$char_traits@D@std@@@1@A
  00247	ff 15 00 00 00
	00		 call	 QWORD PTR __imp_??5?$basic_istream@DU?$char_traits@D@std@@@std@@QEAAAEAV01@AEAH@Z

; 102  : 		if ((isLeap && ind > 366) || (!isLeap && ind > 365) || ind < 1)

  0024d	0f b6 05 00 00
	00 00		 movzx	 eax, BYTE PTR ?isLeap@@3_NA ; isLeap
  00254	85 c0		 test	 eax, eax
  00256	74 0c		 je	 SHORT $LN8@main
  00258	81 bd 84 00 00
	00 6e 01 00 00	 cmp	 DWORD PTR ind$[rbp], 366 ; 0000016eH
  00262	7f 20		 jg	 SHORT $LN7@main
$LN8@main:
  00264	0f b6 05 00 00
	00 00		 movzx	 eax, BYTE PTR ?isLeap@@3_NA ; isLeap
  0026b	85 c0		 test	 eax, eax
  0026d	75 0c		 jne	 SHORT $LN9@main
  0026f	81 bd 84 00 00
	00 6d 01 00 00	 cmp	 DWORD PTR ind$[rbp], 365 ; 0000016dH
  00279	7f 09		 jg	 SHORT $LN7@main
$LN9@main:
  0027b	83 bd 84 00 00
	00 01		 cmp	 DWORD PTR ind$[rbp], 1
  00282	7d 28		 jge	 SHORT $LN5@main
$LN7@main:

; 103  : 		{
; 104  : 			cout << "   !" << endl;

  00284	48 8d 15 00 00
	00 00		 lea	 rdx, OFFSET FLAT:??_C@_0CA@JIJBLJJE@?B?$PL?5?b?b?e?k?h?5?m?e?o?p?$OA?b?h?k?$PM?m?n?e?5?g?m?$OA?w?e?m?h?e?$CB@
  0028b	48 8b 0d 00 00
	00 00		 mov	 rcx, QWORD PTR __imp_?cout@std@@3V?$basic_ostream@DU?$char_traits@D@std@@@1@A
  00292	e8 00 00 00 00	 call	 ??$?6U?$char_traits@D@std@@@std@@YAAEAV?$basic_ostream@DU?$char_traits@D@std@@@0@AEAV10@PEBD@Z ; std::operator<<<std::char_traits<char> >
  00297	48 8d 15 00 00
	00 00		 lea	 rdx, OFFSET FLAT:??$endl@DU?$char_traits@D@std@@@std@@YAAEAV?$basic_ostream@DU?$char_traits@D@std@@@0@AEAV10@@Z ; std::endl<char,std::char_traits<char> >
  0029e	48 8b c8	 mov	 rcx, rax
  002a1	ff 15 00 00 00
	00		 call	 QWORD PTR __imp_??6?$basic_ostream@DU?$char_traits@D@std@@@std@@QEAAAEAV01@P6AAEAV01@AEAV01@@Z@Z

; 105  : 
; 106  : 		}

  002a7	e9 ec 01 00 00	 jmp	 $LN3@main
$LN5@main:

; 107  : 		else
; 108  : 		{
; 109  : 			holiday(ind, isLeap, year);

  002ac	44 8b 45 64	 mov	 r8d, DWORD PTR year$[rbp]
  002b0	0f b6 15 00 00
	00 00		 movzx	 edx, BYTE PTR ?isLeap@@3_NA ; isLeap
  002b7	8b 8d 84 00 00
	00		 mov	 ecx, DWORD PTR ind$[rbp]
  002bd	e8 00 00 00 00	 call	 ?holiday@@YAXH_NH@Z	; holiday

; 110  : 			cout << " 2    : "; cin >> date;

  002c2	48 8d 15 00 00
	00 00		 lea	 rdx, OFFSET FLAT:??_C@_0CE@OFLADAII@?B?b?e?d?h?r?e?52?5?d?$OA?r?s?5?b?5?t?n?p?l?$OA?r?e?5?D?D?L?L?C?C@
  002c9	48 8b 0d 00 00
	00 00		 mov	 rcx, QWORD PTR __imp_?cout@std@@3V?$basic_ostream@DU?$char_traits@D@std@@@1@A
  002d0	e8 00 00 00 00	 call	 ??$?6U?$char_traits@D@std@@@std@@YAAEAV?$basic_ostream@DU?$char_traits@D@std@@@0@AEAV10@PEBD@Z ; std::operator<<<std::char_traits<char> >
  002d5	48 8d 55 04	 lea	 rdx, QWORD PTR date$[rbp]
  002d9	48 8b 0d 00 00
	00 00		 mov	 rcx, QWORD PTR __imp_?cin@std@@3V?$basic_istream@DU?$char_traits@D@std@@@1@A
  002e0	ff 15 00 00 00
	00		 call	 QWORD PTR __imp_??5?$basic_istream@DU?$char_traits@D@std@@@std@@QEAAAEAV01@AEAH@Z

; 111  : 			day = date / 1000000;

  002e6	8b 45 04	 mov	 eax, DWORD PTR date$[rbp]
  002e9	99		 cdq
  002ea	b9 40 42 0f 00	 mov	 ecx, 1000000		; 000f4240H
  002ef	f7 f9		 idiv	 ecx
  002f1	89 45 24	 mov	 DWORD PTR day$[rbp], eax

; 112  : 			month = (date - (day * 1000000)) / 10000;

  002f4	69 45 24 40 42
	0f 00		 imul	 eax, DWORD PTR day$[rbp], 1000000 ; 000f4240H
  002fb	8b 4d 04	 mov	 ecx, DWORD PTR date$[rbp]
  002fe	2b c8		 sub	 ecx, eax
  00300	8b c1		 mov	 eax, ecx
  00302	99		 cdq
  00303	b9 10 27 00 00	 mov	 ecx, 10000		; 00002710H
  00308	f7 f9		 idiv	 ecx
  0030a	89 45 44	 mov	 DWORD PTR month$[rbp], eax

; 113  : 			year = date % 10000;

  0030d	8b 45 04	 mov	 eax, DWORD PTR date$[rbp]
  00310	99		 cdq
  00311	b9 10 27 00 00	 mov	 ecx, 10000		; 00002710H
  00316	f7 f9		 idiv	 ecx
  00318	8b c2		 mov	 eax, edx
  0031a	89 45 64	 mov	 DWORD PTR year$[rbp], eax

; 114  : 			if (day > 31 || month > 12 || year < 1000 || year>9999||(!isLeap && month == 2 && day == 29))

  0031d	83 7d 24 1f	 cmp	 DWORD PTR day$[rbp], 31
  00321	7f 2f		 jg	 SHORT $LN12@main
  00323	83 7d 44 0c	 cmp	 DWORD PTR month$[rbp], 12
  00327	7f 29		 jg	 SHORT $LN12@main
  00329	81 7d 64 e8 03
	00 00		 cmp	 DWORD PTR year$[rbp], 1000 ; 000003e8H
  00330	7c 20		 jl	 SHORT $LN12@main
  00332	81 7d 64 0f 27
	00 00		 cmp	 DWORD PTR year$[rbp], 9999 ; 0000270fH
  00339	7f 17		 jg	 SHORT $LN12@main
  0033b	0f b6 05 00 00
	00 00		 movzx	 eax, BYTE PTR ?isLeap@@3_NA ; isLeap
  00342	85 c0		 test	 eax, eax
  00344	75 24		 jne	 SHORT $LN10@main
  00346	83 7d 44 02	 cmp	 DWORD PTR month$[rbp], 2
  0034a	75 1e		 jne	 SHORT $LN10@main
  0034c	83 7d 24 1d	 cmp	 DWORD PTR day$[rbp], 29
  00350	75 18		 jne	 SHORT $LN10@main
$LN12@main:

; 115  : 			{
; 116  : 				cout << "   !";

  00352	48 8d 15 00 00
	00 00		 lea	 rdx, OFFSET FLAT:??_C@_0CA@JIJBLJJE@?B?$PL?5?b?b?e?k?h?5?m?e?o?p?$OA?b?h?k?$PM?m?n?e?5?g?m?$OA?w?e?m?h?e?$CB@
  00359	48 8b 0d 00 00
	00 00		 mov	 rcx, QWORD PTR __imp_?cout@std@@3V?$basic_ostream@DU?$char_traits@D@std@@@1@A
  00360	e8 00 00 00 00	 call	 ??$?6U?$char_traits@D@std@@@std@@YAAEAV?$basic_ostream@DU?$char_traits@D@std@@@0@AEAV10@PEBD@Z ; std::operator<<<std::char_traits<char> >

; 117  : 			}

  00365	e9 2e 01 00 00	 jmp	 $LN3@main
$LN10@main:

; 118  : 			else
; 119  : 			{
; 120  : 				countday2 = secondDayNumber(day, month, year, isLeap);

  0036a	44 0f b6 0d 00
	00 00 00	 movzx	 r9d, BYTE PTR ?isLeap@@3_NA ; isLeap
  00372	44 8b 45 64	 mov	 r8d, DWORD PTR year$[rbp]
  00376	8b 55 44	 mov	 edx, DWORD PTR month$[rbp]
  00379	8b 4d 24	 mov	 ecx, DWORD PTR day$[rbp]
  0037c	e8 00 00 00 00	 call	 ?secondDayNumber@@YAHHHH_N@Z ; secondDayNumber
  00381	89 85 c4 00 00
	00		 mov	 DWORD PTR countday2$[rbp], eax

; 121  : 				int difference = abs(countday1 - countday2);

  00387	8b 85 c4 00 00
	00		 mov	 eax, DWORD PTR countday2$[rbp]
  0038d	8b 8d a4 00 00
	00		 mov	 ecx, DWORD PTR countday1$[rbp]
  00393	2b c8		 sub	 ecx, eax
  00395	8b c1		 mov	 eax, ecx
  00397	8b c8		 mov	 ecx, eax
  00399	e8 00 00 00 00	 call	 abs
  0039e	89 85 e4 00 00
	00		 mov	 DWORD PTR difference$6[rbp], eax

; 122  : 				cout << "  : " << difference << endl;

  003a4	48 8d 15 00 00
	00 00		 lea	 rdx, OFFSET FLAT:??_C@_0BH@JBGJPPKB@?P?$OA?g?m?h?v?$OA?5?l?e?f?d?s?5?d?$OA?r?$OA?l?h?3?5@
  003ab	48 8b 0d 00 00
	00 00		 mov	 rcx, QWORD PTR __imp_?cout@std@@3V?$basic_ostream@DU?$char_traits@D@std@@@1@A
  003b2	e8 00 00 00 00	 call	 ??$?6U?$char_traits@D@std@@@std@@YAAEAV?$basic_ostream@DU?$char_traits@D@std@@@0@AEAV10@PEBD@Z ; std::operator<<<std::char_traits<char> >
  003b7	8b 95 e4 00 00
	00		 mov	 edx, DWORD PTR difference$6[rbp]
  003bd	48 8b c8	 mov	 rcx, rax
  003c0	ff 15 00 00 00
	00		 call	 QWORD PTR __imp_??6?$basic_ostream@DU?$char_traits@D@std@@@std@@QEAAAEAV01@H@Z
  003c6	48 8d 15 00 00
	00 00		 lea	 rdx, OFFSET FLAT:??$endl@DU?$char_traits@D@std@@@std@@YAAEAV?$basic_ostream@DU?$char_traits@D@std@@@0@AEAV10@@Z ; std::endl<char,std::char_traits<char> >
  003cd	48 8b c8	 mov	 rcx, rax
  003d0	ff 15 00 00 00
	00		 call	 QWORD PTR __imp_??6?$basic_ostream@DU?$char_traits@D@std@@@std@@QEAAAEAV01@P6AAEAV01@AEAV01@@Z@Z

; 123  : 				time_t currentTime = time(nullptr);

  003d6	33 c9		 xor	 ecx, ecx
  003d8	e8 00 00 00 00	 call	 time
  003dd	48 89 85 08 01
	00 00		 mov	 QWORD PTR currentTime$7[rbp], rax

; 124  : 				tm* localTime = localtime(&currentTime);

  003e4	48 8d 8d 08 01
	00 00		 lea	 rcx, QWORD PTR currentTime$7[rbp]
  003eb	e8 00 00 00 00	 call	 localtime
  003f0	48 89 85 28 01
	00 00		 mov	 QWORD PTR localTime$8[rbp], rax

; 125  : 				int hours = localTime->tm_hour;

  003f7	48 8b 85 28 01
	00 00		 mov	 rax, QWORD PTR localTime$8[rbp]
  003fe	8b 40 08	 mov	 eax, DWORD PTR [rax+8]
  00401	89 85 44 01 00
	00		 mov	 DWORD PTR hours$9[rbp], eax

; 126  : 				cout << " : " << hours << " " << endl;

  00407	48 8d 15 00 00
	00 00		 lea	 rdx, OFFSET FLAT:??_C@_0BA@PFJEFFEO@?R?e?j?s?y?e?e?5?b?p?e?l?$PP?3?5@
  0040e	48 8b 0d 00 00
	00 00		 mov	 rcx, QWORD PTR __imp_?cout@std@@3V?$basic_ostream@DU?$char_traits@D@std@@@1@A
  00415	e8 00 00 00 00	 call	 ??$?6U?$char_traits@D@std@@@std@@YAAEAV?$basic_ostream@DU?$char_traits@D@std@@@0@AEAV10@PEBD@Z ; std::operator<<<std::char_traits<char> >
  0041a	8b 95 44 01 00
	00		 mov	 edx, DWORD PTR hours$9[rbp]
  00420	48 8b c8	 mov	 rcx, rax
  00423	ff 15 00 00 00
	00		 call	 QWORD PTR __imp_??6?$basic_ostream@DU?$char_traits@D@std@@@std@@QEAAAEAV01@H@Z
  00429	48 8d 15 00 00
	00 00		 lea	 rdx, OFFSET FLAT:??_C@_06HMIDOKGF@?5?w?$OA?q?n?b@
  00430	48 8b c8	 mov	 rcx, rax
  00433	e8 00 00 00 00	 call	 ??$?6U?$char_traits@D@std@@@std@@YAAEAV?$basic_ostream@DU?$char_traits@D@std@@@0@AEAV10@PEBD@Z ; std::operator<<<std::char_traits<char> >
  00438	48 8d 15 00 00
	00 00		 lea	 rdx, OFFSET FLAT:??$endl@DU?$char_traits@D@std@@@std@@YAAEAV?$basic_ostream@DU?$char_traits@D@std@@@0@AEAV10@@Z ; std::endl<char,std::char_traits<char> >
  0043f	48 8b c8	 mov	 rcx, rax
  00442	ff 15 00 00 00
	00		 call	 QWORD PTR __imp_??6?$basic_ostream@DU?$char_traits@D@std@@@std@@QEAAAEAV01@P6AAEAV01@AEAV01@@Z@Z

; 127  : 				difference = calculateHourDiff(countday1, countday2, hours);

  00448	44 8b 85 44 01
	00 00		 mov	 r8d, DWORD PTR hours$9[rbp]
  0044f	8b 95 c4 00 00
	00		 mov	 edx, DWORD PTR countday2$[rbp]
  00455	8b 8d a4 00 00
	00		 mov	 ecx, DWORD PTR countday1$[rbp]
  0045b	e8 00 00 00 00	 call	 ?calculateHourDiff@@YAHHHH@Z ; calculateHourDiff
  00460	89 85 e4 00 00
	00		 mov	 DWORD PTR difference$6[rbp], eax

; 128  : 				cout << "  : " << difference << endl;

  00466	48 8d 15 00 00
	00 00		 lea	 rdx, OFFSET FLAT:??_C@_0BC@PHINAGMK@?P?$OA?g?m?h?v?$OA?5?b?5?w?$OA?q?$OA?u?3?5@
  0046d	48 8b 0d 00 00
	00 00		 mov	 rcx, QWORD PTR __imp_?cout@std@@3V?$basic_ostream@DU?$char_traits@D@std@@@1@A
  00474	e8 00 00 00 00	 call	 ??$?6U?$char_traits@D@std@@@std@@YAAEAV?$basic_ostream@DU?$char_traits@D@std@@@0@AEAV10@PEBD@Z ; std::operator<<<std::char_traits<char> >
  00479	8b 95 e4 00 00
	00		 mov	 edx, DWORD PTR difference$6[rbp]
  0047f	48 8b c8	 mov	 rcx, rax
  00482	ff 15 00 00 00
	00		 call	 QWORD PTR __imp_??6?$basic_ostream@DU?$char_traits@D@std@@@std@@QEAAAEAV01@H@Z
  00488	48 8d 15 00 00
	00 00		 lea	 rdx, OFFSET FLAT:??$endl@DU?$char_traits@D@std@@@std@@YAAEAV?$basic_ostream@DU?$char_traits@D@std@@@0@AEAV10@@Z ; std::endl<char,std::char_traits<char> >
  0048f	48 8b c8	 mov	 rcx, rax
  00492	ff 15 00 00 00
	00		 call	 QWORD PTR __imp_??6?$basic_ostream@DU?$char_traits@D@std@@@std@@QEAAAEAV01@P6AAEAV01@AEAV01@@Z@Z
$LN3@main:

; 129  : 			}
; 130  : 		}
; 131  : 	}
; 132  : 	return 0;

  00498	33 c0		 xor	 eax, eax

; 133  : }

  0049a	8b f8		 mov	 edi, eax
  0049c	48 8d 4d e0	 lea	 rcx, QWORD PTR [rbp-32]
  004a0	48 8d 15 00 00
	00 00		 lea	 rdx, OFFSET FLAT:main$rtcFrameData
  004a7	e8 00 00 00 00	 call	 _RTC_CheckStackVars
  004ac	8b c7		 mov	 eax, edi
  004ae	48 8b 8d 68 02
	00 00		 mov	 rcx, QWORD PTR __$ArrayPad$[rbp]
  004b5	48 33 cd	 xor	 rcx, rbp
  004b8	e8 00 00 00 00	 call	 __security_check_cookie
  004bd	48 8d a5 78 02
	00 00		 lea	 rsp, QWORD PTR [rbp+632]
  004c4	5f		 pop	 rdi
  004c5	5d		 pop	 rbp
  004c6	c3		 ret	 0
main	ENDP
_TEXT	ENDS
; Function compile flags: /Odtp /RTCsu /ZI
;	COMDAT text$x
text$x	SEGMENT
date$ = 4
day$ = 36
month$ = 68
year$ = 100
ind$ = 132
countday1$ = 164
countday2$ = 196
difference$6 = 228
currentTime$7 = 264
localTime$8 = 296
hours$9 = 324
$T10 = 552
tv250 = 600
tv249 = 608
__$ArrayPad$ = 616
main$dtor$0 PROC
  00000	48 89 4c 24 08	 mov	 QWORD PTR [rsp+8], rcx
  00005	48 89 54 24 10	 mov	 QWORD PTR [rsp+16], rdx
  0000a	55		 push	 rbp
  0000b	57		 push	 rdi
  0000c	48 83 ec 28	 sub	 rsp, 40			; 00000028H
  00010	48 8d 6a 20	 lea	 rbp, QWORD PTR [rdx+32]
  00014	48 8d 8d 28 02
	00 00		 lea	 rcx, QWORD PTR $T10[rbp]
  0001b	e8 00 00 00 00	 call	 ??1?$basic_string@DU?$char_traits@D@std@@V?$allocator@D@2@@std@@QEAA@XZ ; std::basic_string<char,std::char_traits<char>,std::allocator<char> >::~basic_string<char,std::char_traits<char>,std::allocator<char> >
  00020	48 83 c4 28	 add	 rsp, 40			; 00000028H
  00024	5f		 pop	 rdi
  00025	5d		 pop	 rbp
  00026	c3		 ret	 0
main$dtor$0 ENDP
text$x	ENDS
; Function compile flags: /Odtp /RTCsu /ZI
; File C:\\\\lab_03\ConsoleApplication1\main.cpp
;	COMDAT ?calculateHourDiff@@YAHHHH@Z
_TEXT	SEGMENT
diff$ = 4
countday1$ = 256
coutday2$ = 264
hours$ = 272
?calculateHourDiff@@YAHHHH@Z PROC			; calculateHourDiff, COMDAT

; 71   : {

$LN3:
  00000	44 89 44 24 18	 mov	 DWORD PTR [rsp+24], r8d
  00005	89 54 24 10	 mov	 DWORD PTR [rsp+16], edx
  00009	89 4c 24 08	 mov	 DWORD PTR [rsp+8], ecx
  0000d	55		 push	 rbp
  0000e	57		 push	 rdi
  0000f	48 81 ec 08 01
	00 00		 sub	 rsp, 264		; 00000108H
  00016	48 8d 6c 24 20	 lea	 rbp, QWORD PTR [rsp+32]
  0001b	48 8d 0d 00 00
	00 00		 lea	 rcx, OFFSET FLAT:__0E5718B5_main@cpp
  00022	e8 00 00 00 00	 call	 __CheckForDebuggerJustMyCode

; 72   : 	int diff;
; 73   : 	diff = abs((countday1 * 24 + hours) - coutday2*24);

  00027	6b 85 00 01 00
	00 18		 imul	 eax, DWORD PTR countday1$[rbp], 24
  0002e	03 85 10 01 00
	00		 add	 eax, DWORD PTR hours$[rbp]
  00034	6b 8d 08 01 00
	00 18		 imul	 ecx, DWORD PTR coutday2$[rbp], 24
  0003b	2b c1		 sub	 eax, ecx
  0003d	8b c8		 mov	 ecx, eax
  0003f	e8 00 00 00 00	 call	 abs
  00044	89 45 04	 mov	 DWORD PTR diff$[rbp], eax

; 74   : 	return diff;

  00047	8b 45 04	 mov	 eax, DWORD PTR diff$[rbp]

; 75   : }

  0004a	48 8d a5 e8 00
	00 00		 lea	 rsp, QWORD PTR [rbp+232]
  00051	5f		 pop	 rdi
  00052	5d		 pop	 rbp
  00053	c3		 ret	 0
?calculateHourDiff@@YAHHHH@Z ENDP			; calculateHourDiff
_TEXT	ENDS
; Function compile flags: /Odtp /RTCsu /ZI
; File C:\\\\lab_03\ConsoleApplication1\main.cpp
;	COMDAT ?secondDayNumber@@YAHHHH_N@Z
_TEXT	SEGMENT
countday$ = 4
monthsnoleap$ = 40
i$4 = 116
tv78 = 324
day$ = 368
month$ = 376
year$ = 384
isLeap$ = 392
?secondDayNumber@@YAHHHH_N@Z PROC			; secondDayNumber, COMDAT

; 54   : {

$LN7:
  00000	44 88 4c 24 20	 mov	 BYTE PTR [rsp+32], r9b
  00005	44 89 44 24 18	 mov	 DWORD PTR [rsp+24], r8d
  0000a	89 54 24 10	 mov	 DWORD PTR [rsp+16], edx
  0000e	89 4c 24 08	 mov	 DWORD PTR [rsp+8], ecx
  00012	55		 push	 rbp
  00013	57		 push	 rdi
  00014	48 81 ec 78 01
	00 00		 sub	 rsp, 376		; 00000178H
  0001b	48 8d 6c 24 20	 lea	 rbp, QWORD PTR [rsp+32]
  00020	48 8d 7c 24 20	 lea	 rdi, QWORD PTR [rsp+32]
  00025	b9 26 00 00 00	 mov	 ecx, 38			; 00000026H
  0002a	b8 cc cc cc cc	 mov	 eax, -858993460		; ccccccccH
  0002f	f3 ab		 rep stosd
  00031	8b 8c 24 98 01
	00 00		 mov	 ecx, DWORD PTR [rsp+408]
  00038	48 8d 0d 00 00
	00 00		 lea	 rcx, OFFSET FLAT:__0E5718B5_main@cpp
  0003f	e8 00 00 00 00	 call	 __CheckForDebuggerJustMyCode

; 55   : 	int countday=0;

  00044	c7 45 04 00 00
	00 00		 mov	 DWORD PTR countday$[rbp], 0

; 56   : 	int monthsnoleap[12] = { 31,28,31,30,31,30,31,31,30,31,30,31 };

  0004b	c7 45 28 1f 00
	00 00		 mov	 DWORD PTR monthsnoleap$[rbp], 31
  00052	c7 45 2c 1c 00
	00 00		 mov	 DWORD PTR monthsnoleap$[rbp+4], 28
  00059	c7 45 30 1f 00
	00 00		 mov	 DWORD PTR monthsnoleap$[rbp+8], 31
  00060	c7 45 34 1e 00
	00 00		 mov	 DWORD PTR monthsnoleap$[rbp+12], 30
  00067	c7 45 38 1f 00
	00 00		 mov	 DWORD PTR monthsnoleap$[rbp+16], 31
  0006e	c7 45 3c 1e 00
	00 00		 mov	 DWORD PTR monthsnoleap$[rbp+20], 30
  00075	c7 45 40 1f 00
	00 00		 mov	 DWORD PTR monthsnoleap$[rbp+24], 31
  0007c	c7 45 44 1f 00
	00 00		 mov	 DWORD PTR monthsnoleap$[rbp+28], 31
  00083	c7 45 48 1e 00
	00 00		 mov	 DWORD PTR monthsnoleap$[rbp+32], 30
  0008a	c7 45 4c 1f 00
	00 00		 mov	 DWORD PTR monthsnoleap$[rbp+36], 31
  00091	c7 45 50 1e 00
	00 00		 mov	 DWORD PTR monthsnoleap$[rbp+40], 30
  00098	c7 45 54 1f 00
	00 00		 mov	 DWORD PTR monthsnoleap$[rbp+44], 31

; 57   : 	if (isLeap && month > 2)

  0009f	0f b6 85 88 01
	00 00		 movzx	 eax, BYTE PTR isLeap$[rbp]
  000a6	85 c0		 test	 eax, eax
  000a8	74 1a		 je	 SHORT $LN5@secondDayN
  000aa	83 bd 78 01 00
	00 02		 cmp	 DWORD PTR month$[rbp], 2
  000b1	7e 11		 jle	 SHORT $LN5@secondDayN

; 58   : 	{
; 59   : 		monthsnoleap[1] = 29;

  000b3	b8 04 00 00 00	 mov	 eax, 4
  000b8	48 6b c0 01	 imul	 rax, rax, 1
  000bc	c7 44 05 28 1d
	00 00 00	 mov	 DWORD PTR monthsnoleap$[rbp+rax], 29
$LN5@secondDayN:

; 60   : 	}
; 61   : 	for (int i = 0;i < month - 1;i++)

  000c4	c7 45 74 00 00
	00 00		 mov	 DWORD PTR i$4[rbp], 0
  000cb	eb 08		 jmp	 SHORT $LN4@secondDayN
$LN2@secondDayN:
  000cd	8b 45 74	 mov	 eax, DWORD PTR i$4[rbp]
  000d0	ff c0		 inc	 eax
  000d2	89 45 74	 mov	 DWORD PTR i$4[rbp], eax
$LN4@secondDayN:
  000d5	8b 85 78 01 00
	00		 mov	 eax, DWORD PTR month$[rbp]
  000db	ff c8		 dec	 eax
  000dd	39 45 74	 cmp	 DWORD PTR i$4[rbp], eax
  000e0	7d 14		 jge	 SHORT $LN3@secondDayN

; 62   : 	{
; 63   : 		countday += monthsnoleap[i];

  000e2	48 63 45 74	 movsxd	 rax, DWORD PTR i$4[rbp]
  000e6	8b 44 85 28	 mov	 eax, DWORD PTR monthsnoleap$[rbp+rax*4]
  000ea	8b 4d 04	 mov	 ecx, DWORD PTR countday$[rbp]
  000ed	03 c8		 add	 ecx, eax
  000ef	8b c1		 mov	 eax, ecx
  000f1	89 45 04	 mov	 DWORD PTR countday$[rbp], eax

; 64   : 	}

  000f4	eb d7		 jmp	 SHORT $LN2@secondDayN
$LN3@secondDayN:

; 65   : 	countday = countday + day;

  000f6	8b 85 70 01 00
	00		 mov	 eax, DWORD PTR day$[rbp]
  000fc	8b 4d 04	 mov	 ecx, DWORD PTR countday$[rbp]
  000ff	03 c8		 add	 ecx, eax
  00101	8b c1		 mov	 eax, ecx
  00103	89 45 04	 mov	 DWORD PTR countday$[rbp], eax

; 66   : 	countday += (year-1) * 365 + ((year-1) / 4);

  00106	8b 85 80 01 00
	00		 mov	 eax, DWORD PTR year$[rbp]
  0010c	ff c8		 dec	 eax
  0010e	69 c0 6d 01 00
	00		 imul	 eax, eax, 365		; 0000016dH
  00114	89 85 44 01 00
	00		 mov	 DWORD PTR tv78[rbp], eax
  0011a	8b 8d 80 01 00
	00		 mov	 ecx, DWORD PTR year$[rbp]
  00120	ff c9		 dec	 ecx
  00122	8b c1		 mov	 eax, ecx
  00124	99		 cdq
  00125	83 e2 03	 and	 edx, 3
  00128	03 c2		 add	 eax, edx
  0012a	c1 f8 02	 sar	 eax, 2
  0012d	03 45 04	 add	 eax, DWORD PTR countday$[rbp]
  00130	8b 8d 44 01 00
	00		 mov	 ecx, DWORD PTR tv78[rbp]
  00136	03 c1		 add	 eax, ecx
  00138	89 45 04	 mov	 DWORD PTR countday$[rbp], eax

; 67   : 	return countday;

  0013b	8b 45 04	 mov	 eax, DWORD PTR countday$[rbp]

; 68   : }

  0013e	8b f8		 mov	 edi, eax
  00140	48 8d 4d e0	 lea	 rcx, QWORD PTR [rbp-32]
  00144	48 8d 15 00 00
	00 00		 lea	 rdx, OFFSET FLAT:?secondDayNumber@@YAHHHH_N@Z$rtcFrameData
  0014b	e8 00 00 00 00	 call	 _RTC_CheckStackVars
  00150	8b c7		 mov	 eax, edi
  00152	48 8d a5 58 01
	00 00		 lea	 rsp, QWORD PTR [rbp+344]
  00159	5f		 pop	 rdi
  0015a	5d		 pop	 rbp
  0015b	c3		 ret	 0
?secondDayNumber@@YAHHHH_N@Z ENDP			; secondDayNumber
_TEXT	ENDS
; Function compile flags: /Odtp /RTCsu /ZI
; File C:\Program Files\Microsoft Visual Studio\2022\Community\VC\Tools\MSVC\14.37.32822\include\ostream
;	COMDAT ??$endl@DU?$char_traits@D@std@@@std@@YAAEAV?$basic_ostream@DU?$char_traits@D@std@@@0@AEAV10@@Z
_TEXT	SEGMENT
_Ostr$ = 224
??$endl@DU?$char_traits@D@std@@@std@@YAAEAV?$basic_ostream@DU?$char_traits@D@std@@@0@AEAV10@@Z PROC ; std::endl<char,std::char_traits<char> >, COMDAT

; 1011 :     basic_ostream<_Elem, _Traits>& _Ostr) { // insert newline and flush stream

$LN3:
  00000	48 89 4c 24 08	 mov	 QWORD PTR [rsp+8], rcx
  00005	55		 push	 rbp
  00006	57		 push	 rdi
  00007	48 81 ec e8 00
	00 00		 sub	 rsp, 232		; 000000e8H
  0000e	48 8d 6c 24 20	 lea	 rbp, QWORD PTR [rsp+32]
  00013	48 8d 0d 00 00
	00 00		 lea	 rcx, OFFSET FLAT:__1D69971C_ostream
  0001a	e8 00 00 00 00	 call	 __CheckForDebuggerJustMyCode

; 1012 :     _Ostr.put(_Ostr.widen('\n'));

  0001f	48 8b 85 e0 00
	00 00		 mov	 rax, QWORD PTR _Ostr$[rbp]
  00026	48 8b 00	 mov	 rax, QWORD PTR [rax]
  00029	48 63 40 04	 movsxd	 rax, DWORD PTR [rax+4]
  0002d	48 8b 8d e0 00
	00 00		 mov	 rcx, QWORD PTR _Ostr$[rbp]
  00034	48 03 c8	 add	 rcx, rax
  00037	48 8b c1	 mov	 rax, rcx
  0003a	b2 0a		 mov	 dl, 10
  0003c	48 8b c8	 mov	 rcx, rax
  0003f	ff 15 00 00 00
	00		 call	 QWORD PTR __imp_?widen@?$basic_ios@DU?$char_traits@D@std@@@std@@QEBADD@Z
  00045	0f b6 d0	 movzx	 edx, al
  00048	48 8b 8d e0 00
	00 00		 mov	 rcx, QWORD PTR _Ostr$[rbp]
  0004f	ff 15 00 00 00
	00		 call	 QWORD PTR __imp_?put@?$basic_ostream@DU?$char_traits@D@std@@@std@@QEAAAEAV12@D@Z

; 1013 :     _Ostr.flush();

  00055	48 8b 8d e0 00
	00 00		 mov	 rcx, QWORD PTR _Ostr$[rbp]
  0005c	ff 15 00 00 00
	00		 call	 QWORD PTR __imp_?flush@?$basic_ostream@DU?$char_traits@D@std@@@std@@QEAAAEAV12@XZ

; 1014 :     return _Ostr;

  00062	48 8b 85 e0 00
	00 00		 mov	 rax, QWORD PTR _Ostr$[rbp]

; 1015 : }

  00069	48 8d a5 c8 00
	00 00		 lea	 rsp, QWORD PTR [rbp+200]
  00070	5f		 pop	 rdi
  00071	5d		 pop	 rbp
  00072	c3		 ret	 0
??$endl@DU?$char_traits@D@std@@@std@@YAAEAV?$basic_ostream@DU?$char_traits@D@std@@@0@AEAV10@@Z ENDP ; std::endl<char,std::char_traits<char> >
_TEXT	ENDS
; Function compile flags: /Odtp /RTCsu /ZI
; File C:\Program Files\Microsoft Visual Studio\2022\Community\VC\Tools\MSVC\14.37.32822\include\ostream
;	COMDAT ??$?6U?$char_traits@D@std@@@std@@YAAEAV?$basic_ostream@DU?$char_traits@D@std@@@0@AEAV10@PEBD@Z
_TEXT	SEGMENT
_State$ = 4
_Count$ = 40
_Pad$ = 72
_Ok$ = 104
$T4 = 340
$T5 = 372
$T6 = 404
$T7 = 436
$T8 = 472
tv285 = 484
tv283 = 484
tv296 = 488
tv295 = 488
tv139 = 488
tv137 = 488
__$ArrayPad$ = 496
_Ostr$ = 544
_Val$ = 552
??$?6U?$char_traits@D@std@@@std@@YAAEAV?$basic_ostream@DU?$char_traits@D@std@@@0@AEAV10@PEBD@Z PROC ; std::operator<<<std::char_traits<char> >, COMDAT

; 767  : basic_ostream<char, _Traits>& operator<<(basic_ostream<char, _Traits>& _Ostr, const char* _Val) {

$LN25:
  00000	48 89 54 24 10	 mov	 QWORD PTR [rsp+16], rdx
  00005	48 89 4c 24 08	 mov	 QWORD PTR [rsp+8], rcx
  0000a	55		 push	 rbp
  0000b	57		 push	 rdi
  0000c	48 81 ec 28 02
	00 00		 sub	 rsp, 552		; 00000228H
  00013	48 8d 6c 24 20	 lea	 rbp, QWORD PTR [rsp+32]
  00018	48 8d 7c 24 20	 lea	 rdi, QWORD PTR [rsp+32]
  0001d	b9 52 00 00 00	 mov	 ecx, 82			; 00000052H
  00022	b8 cc cc cc cc	 mov	 eax, -858993460		; ccccccccH
  00027	f3 ab		 rep stosd
  00029	48 8b 8c 24 48
	02 00 00	 mov	 rcx, QWORD PTR [rsp+584]
  00031	48 8b 05 00 00
	00 00		 mov	 rax, QWORD PTR __security_cookie
  00038	48 33 c5	 xor	 rax, rbp
  0003b	48 89 85 f0 01
	00 00		 mov	 QWORD PTR __$ArrayPad$[rbp], rax
  00042	48 8d 0d 00 00
	00 00		 lea	 rcx, OFFSET FLAT:__1D69971C_ostream
  00049	e8 00 00 00 00	 call	 __CheckForDebuggerJustMyCode

; 768  :     // insert NTBS into char stream
; 769  :     using _Elem = char;
; 770  :     using _Myos = basic_ostream<_Elem, _Traits>;
; 771  : 
; 772  :     ios_base::iostate _State = ios_base::goodbit;

  0004e	c7 45 04 00 00
	00 00		 mov	 DWORD PTR _State$[rbp], 0

; 773  :     streamsize _Count        = static_cast<streamsize>(_Traits::length(_Val));

  00055	48 8b 8d 28 02
	00 00		 mov	 rcx, QWORD PTR _Val$[rbp]
  0005c	e8 00 00 00 00	 call	 ?length@?$_Narrow_char_traits@DH@std@@SA_KQEBD@Z ; std::_Narrow_char_traits<char,int>::length
  00061	48 89 45 28	 mov	 QWORD PTR _Count$[rbp], rax

; 774  :     streamsize _Pad          = _Ostr.width() <= 0 || _Ostr.width() <= _Count ? 0 : _Ostr.width() - _Count;

  00065	48 8b 85 20 02
	00 00		 mov	 rax, QWORD PTR _Ostr$[rbp]
  0006c	48 8b 00	 mov	 rax, QWORD PTR [rax]
  0006f	48 63 40 04	 movsxd	 rax, DWORD PTR [rax+4]
  00073	48 8b 8d 20 02
	00 00		 mov	 rcx, QWORD PTR _Ostr$[rbp]
  0007a	48 03 c8	 add	 rcx, rax
  0007d	48 8b c1	 mov	 rax, rcx
  00080	48 8b c8	 mov	 rcx, rax
  00083	ff 15 00 00 00
	00		 call	 QWORD PTR __imp_?width@ios_base@std@@QEBA_JXZ
  00089	48 85 c0	 test	 rax, rax
  0008c	7e 5b		 jle	 SHORT $LN17@operator
  0008e	48 8b 85 20 02
	00 00		 mov	 rax, QWORD PTR _Ostr$[rbp]
  00095	48 8b 00	 mov	 rax, QWORD PTR [rax]
  00098	48 63 40 04	 movsxd	 rax, DWORD PTR [rax+4]
  0009c	48 8b 8d 20 02
	00 00		 mov	 rcx, QWORD PTR _Ostr$[rbp]
  000a3	48 03 c8	 add	 rcx, rax
  000a6	48 8b c1	 mov	 rax, rcx
  000a9	48 8b c8	 mov	 rcx, rax
  000ac	ff 15 00 00 00
	00		 call	 QWORD PTR __imp_?width@ios_base@std@@QEBA_JXZ
  000b2	48 3b 45 28	 cmp	 rax, QWORD PTR _Count$[rbp]
  000b6	7e 31		 jle	 SHORT $LN17@operator
  000b8	48 8b 85 20 02
	00 00		 mov	 rax, QWORD PTR _Ostr$[rbp]
  000bf	48 8b 00	 mov	 rax, QWORD PTR [rax]
  000c2	48 63 40 04	 movsxd	 rax, DWORD PTR [rax+4]
  000c6	48 8b 8d 20 02
	00 00		 mov	 rcx, QWORD PTR _Ostr$[rbp]
  000cd	48 03 c8	 add	 rcx, rax
  000d0	48 8b c1	 mov	 rax, rcx
  000d3	48 8b c8	 mov	 rcx, rax
  000d6	ff 15 00 00 00
	00		 call	 QWORD PTR __imp_?width@ios_base@std@@QEBA_JXZ
  000dc	48 2b 45 28	 sub	 rax, QWORD PTR _Count$[rbp]
  000e0	48 89 85 e8 01
	00 00		 mov	 QWORD PTR tv137[rbp], rax
  000e7	eb 0b		 jmp	 SHORT $LN18@operator
$LN17@operator:
  000e9	48 c7 85 e8 01
	00 00 00 00 00
	00		 mov	 QWORD PTR tv137[rbp], 0
$LN18@operator:
  000f4	48 8b 85 e8 01
	00 00		 mov	 rax, QWORD PTR tv137[rbp]
  000fb	48 89 45 48	 mov	 QWORD PTR _Pad$[rbp], rax

; 775  :     const typename _Myos::sentry _Ok(_Ostr);

  000ff	48 8b 95 20 02
	00 00		 mov	 rdx, QWORD PTR _Ostr$[rbp]
  00106	48 8d 4d 68	 lea	 rcx, QWORD PTR _Ok$[rbp]
  0010a	e8 00 00 00 00	 call	 ??0sentry@?$basic_ostream@DU?$char_traits@D@std@@@std@@QEAA@AEAV12@@Z ; std::basic_ostream<char,std::char_traits<char> >::sentry::sentry
  0010f	90		 npad	 1

; 776  : 
; 777  :     if (!_Ok) {

  00110	48 8d 4d 68	 lea	 rcx, QWORD PTR _Ok$[rbp]
  00114	e8 00 00 00 00	 call	 ??Bsentry@?$basic_ostream@DU?$char_traits@D@std@@@std@@QEBA_NXZ ; std::basic_ostream<char,std::char_traits<char> >::sentry::operator bool
  00119	0f b6 c0	 movzx	 eax, al
  0011c	85 c0		 test	 eax, eax
  0011e	75 0e		 jne	 SHORT $LN8@operator

; 778  :         _State |= ios_base::badbit;

  00120	8b 45 04	 mov	 eax, DWORD PTR _State$[rbp]
  00123	83 c8 04	 or	 eax, 4
  00126	89 45 04	 mov	 DWORD PTR _State$[rbp], eax

; 779  :     } else { // state okay, insert

  00129	e9 3a 02 00 00	 jmp	 $LN9@operator
$LN8@operator:

; 780  :         _TRY_IO_BEGIN
; 781  :         if ((_Ostr.flags() & ios_base::adjustfield) != ios_base::left) {

  0012e	48 8b 85 20 02
	00 00		 mov	 rax, QWORD PTR _Ostr$[rbp]
  00135	48 8b 00	 mov	 rax, QWORD PTR [rax]
  00138	48 63 40 04	 movsxd	 rax, DWORD PTR [rax+4]
  0013c	48 8b 8d 20 02
	00 00		 mov	 rcx, QWORD PTR _Ostr$[rbp]
  00143	48 03 c8	 add	 rcx, rax
  00146	48 8b c1	 mov	 rax, rcx
  00149	48 8b c8	 mov	 rcx, rax
  0014c	ff 15 00 00 00
	00		 call	 QWORD PTR __imp_?flags@ios_base@std@@QEBAHXZ
  00152	25 c0 01 00 00	 and	 eax, 448		; 000001c0H
  00157	83 f8 40	 cmp	 eax, 64			; 00000040H
  0015a	0f 84 bd 00 00
	00		 je	 $LN11@operator

; 782  :             for (; 0 < _Pad; --_Pad) { // pad on left

  00160	eb 0b		 jmp	 SHORT $LN4@operator
$LN2@operator:
  00162	48 8b 45 48	 mov	 rax, QWORD PTR _Pad$[rbp]
  00166	48 ff c8	 dec	 rax
  00169	48 89 45 48	 mov	 QWORD PTR _Pad$[rbp], rax
$LN4@operator:
  0016d	48 83 7d 48 00	 cmp	 QWORD PTR _Pad$[rbp], 0
  00172	0f 8e a5 00 00
	00		 jle	 $LN11@operator

; 783  :                 if (_Traits::eq_int_type(_Traits::eof(), _Ostr.rdbuf()->sputc(_Ostr.fill()))) {

  00178	48 8b 85 20 02
	00 00		 mov	 rax, QWORD PTR _Ostr$[rbp]
  0017f	48 8b 00	 mov	 rax, QWORD PTR [rax]
  00182	48 63 40 04	 movsxd	 rax, DWORD PTR [rax+4]
  00186	48 8b 8d 20 02
	00 00		 mov	 rcx, QWORD PTR _Ostr$[rbp]
  0018d	48 03 c8	 add	 rcx, rax
  00190	48 8b c1	 mov	 rax, rcx
  00193	48 8b c8	 mov	 rcx, rax
  00196	ff 15 00 00 00
	00		 call	 QWORD PTR __imp_?fill@?$basic_ios@DU?$char_traits@D@std@@@std@@QEBADXZ
  0019c	88 85 e4 01 00
	00		 mov	 BYTE PTR tv285[rbp], al
  001a2	48 8b 8d 20 02
	00 00		 mov	 rcx, QWORD PTR _Ostr$[rbp]
  001a9	48 8b 09	 mov	 rcx, QWORD PTR [rcx]
  001ac	48 63 49 04	 movsxd	 rcx, DWORD PTR [rcx+4]
  001b0	48 8b 95 20 02
	00 00		 mov	 rdx, QWORD PTR _Ostr$[rbp]
  001b7	48 03 d1	 add	 rdx, rcx
  001ba	48 8b ca	 mov	 rcx, rdx
  001bd	ff 15 00 00 00
	00		 call	 QWORD PTR __imp_?rdbuf@?$basic_ios@DU?$char_traits@D@std@@@std@@QEBAPEAV?$basic_streambuf@DU?$char_traits@D@std@@@2@XZ
  001c3	0f b6 8d e4 01
	00 00		 movzx	 ecx, BYTE PTR tv285[rbp]
  001ca	0f b6 d1	 movzx	 edx, cl
  001cd	48 8b c8	 mov	 rcx, rax
  001d0	ff 15 00 00 00
	00		 call	 QWORD PTR __imp_?sputc@?$basic_streambuf@DU?$char_traits@D@std@@@std@@QEAAHD@Z
  001d6	89 85 e8 01 00
	00		 mov	 DWORD PTR tv139[rbp], eax
  001dc	8b 85 e8 01 00
	00		 mov	 eax, DWORD PTR tv139[rbp]
  001e2	89 85 54 01 00
	00		 mov	 DWORD PTR $T4[rbp], eax
  001e8	e8 00 00 00 00	 call	 ?eof@?$_Narrow_char_traits@DH@std@@SAHXZ ; std::_Narrow_char_traits<char,int>::eof
  001ed	89 85 74 01 00
	00		 mov	 DWORD PTR $T5[rbp], eax
  001f3	48 8d 95 54 01
	00 00		 lea	 rdx, QWORD PTR $T4[rbp]
  001fa	48 8d 8d 74 01
	00 00		 lea	 rcx, QWORD PTR $T5[rbp]
  00201	e8 00 00 00 00	 call	 ?eq_int_type@?$_Narrow_char_traits@DH@std@@SA_NAEBH0@Z ; std::_Narrow_char_traits<char,int>::eq_int_type
  00206	0f b6 c0	 movzx	 eax, al
  00209	85 c0		 test	 eax, eax
  0020b	74 0b		 je	 SHORT $LN12@operator

; 784  :                     _State |= ios_base::badbit; // insertion failed, quit

  0020d	8b 45 04	 mov	 eax, DWORD PTR _State$[rbp]
  00210	83 c8 04	 or	 eax, 4
  00213	89 45 04	 mov	 DWORD PTR _State$[rbp], eax

; 785  :                     break;

  00216	eb 05		 jmp	 SHORT $LN11@operator
$LN12@operator:

; 786  :                 }
; 787  :             }

  00218	e9 45 ff ff ff	 jmp	 $LN2@operator
$LN11@operator:

; 788  :         }
; 789  : 
; 790  :         if (_State == ios_base::goodbit && _Ostr.rdbuf()->sputn(_Val, _Count) != _Count) {

  0021d	83 7d 04 00	 cmp	 DWORD PTR _State$[rbp], 0
  00221	75 55		 jne	 SHORT $LN13@operator
  00223	48 8b 85 20 02
	00 00		 mov	 rax, QWORD PTR _Ostr$[rbp]
  0022a	48 8b 00	 mov	 rax, QWORD PTR [rax]
  0022d	48 63 40 04	 movsxd	 rax, DWORD PTR [rax+4]
  00231	48 8b 8d 20 02
	00 00		 mov	 rcx, QWORD PTR _Ostr$[rbp]
  00238	48 03 c8	 add	 rcx, rax
  0023b	48 8b c1	 mov	 rax, rcx
  0023e	48 8b c8	 mov	 rcx, rax
  00241	ff 15 00 00 00
	00		 call	 QWORD PTR __imp_?rdbuf@?$basic_ios@DU?$char_traits@D@std@@@std@@QEBAPEAV?$basic_streambuf@DU?$char_traits@D@std@@@2@XZ
  00247	4c 8b 45 28	 mov	 r8, QWORD PTR _Count$[rbp]
  0024b	48 8b 95 28 02
	00 00		 mov	 rdx, QWORD PTR _Val$[rbp]
  00252	48 8b c8	 mov	 rcx, rax
  00255	ff 15 00 00 00
	00		 call	 QWORD PTR __imp_?sputn@?$basic_streambuf@DU?$char_traits@D@std@@@std@@QEAA_JPEBD_J@Z
  0025b	48 89 85 e8 01
	00 00		 mov	 QWORD PTR tv295[rbp], rax
  00262	48 8b 45 28	 mov	 rax, QWORD PTR _Count$[rbp]
  00266	48 39 85 e8 01
	00 00		 cmp	 QWORD PTR tv295[rbp], rax
  0026d	74 09		 je	 SHORT $LN13@operator

; 791  :             _State |= ios_base::badbit;

  0026f	8b 45 04	 mov	 eax, DWORD PTR _State$[rbp]
  00272	83 c8 04	 or	 eax, 4
  00275	89 45 04	 mov	 DWORD PTR _State$[rbp], eax
$LN13@operator:

; 792  :         }
; 793  : 
; 794  :         if (_State == ios_base::goodbit) {

  00278	83 7d 04 00	 cmp	 DWORD PTR _State$[rbp], 0
  0027c	0f 85 bd 00 00
	00		 jne	 $LN14@operator

; 795  :             for (; 0 < _Pad; --_Pad) { // pad on right

  00282	eb 0b		 jmp	 SHORT $LN7@operator
$LN5@operator:
  00284	48 8b 45 48	 mov	 rax, QWORD PTR _Pad$[rbp]
  00288	48 ff c8	 dec	 rax
  0028b	48 89 45 48	 mov	 QWORD PTR _Pad$[rbp], rax
$LN7@operator:
  0028f	48 83 7d 48 00	 cmp	 QWORD PTR _Pad$[rbp], 0
  00294	0f 8e a5 00 00
	00		 jle	 $LN14@operator

; 796  :                 if (_Traits::eq_int_type(_Traits::eof(), _Ostr.rdbuf()->sputc(_Ostr.fill()))) {

  0029a	48 8b 85 20 02
	00 00		 mov	 rax, QWORD PTR _Ostr$[rbp]
  002a1	48 8b 00	 mov	 rax, QWORD PTR [rax]
  002a4	48 63 40 04	 movsxd	 rax, DWORD PTR [rax+4]
  002a8	48 8b 8d 20 02
	00 00		 mov	 rcx, QWORD PTR _Ostr$[rbp]
  002af	48 03 c8	 add	 rcx, rax
  002b2	48 8b c1	 mov	 rax, rcx
  002b5	48 8b c8	 mov	 rcx, rax
  002b8	ff 15 00 00 00
	00		 call	 QWORD PTR __imp_?fill@?$basic_ios@DU?$char_traits@D@std@@@std@@QEBADXZ
  002be	88 85 e4 01 00
	00		 mov	 BYTE PTR tv283[rbp], al
  002c4	48 8b 8d 20 02
	00 00		 mov	 rcx, QWORD PTR _Ostr$[rbp]
  002cb	48 8b 09	 mov	 rcx, QWORD PTR [rcx]
  002ce	48 63 49 04	 movsxd	 rcx, DWORD PTR [rcx+4]
  002d2	48 8b 95 20 02
	00 00		 mov	 rdx, QWORD PTR _Ostr$[rbp]
  002d9	48 03 d1	 add	 rdx, rcx
  002dc	48 8b ca	 mov	 rcx, rdx
  002df	ff 15 00 00 00
	00		 call	 QWORD PTR __imp_?rdbuf@?$basic_ios@DU?$char_traits@D@std@@@std@@QEBAPEAV?$basic_streambuf@DU?$char_traits@D@std@@@2@XZ
  002e5	0f b6 8d e4 01
	00 00		 movzx	 ecx, BYTE PTR tv283[rbp]
  002ec	0f b6 d1	 movzx	 edx, cl
  002ef	48 8b c8	 mov	 rcx, rax
  002f2	ff 15 00 00 00
	00		 call	 QWORD PTR __imp_?sputc@?$basic_streambuf@DU?$char_traits@D@std@@@std@@QEAAHD@Z
  002f8	89 85 e8 01 00
	00		 mov	 DWORD PTR tv296[rbp], eax
  002fe	8b 85 e8 01 00
	00		 mov	 eax, DWORD PTR tv296[rbp]
  00304	89 85 94 01 00
	00		 mov	 DWORD PTR $T6[rbp], eax
  0030a	e8 00 00 00 00	 call	 ?eof@?$_Narrow_char_traits@DH@std@@SAHXZ ; std::_Narrow_char_traits<char,int>::eof
  0030f	89 85 b4 01 00
	00		 mov	 DWORD PTR $T7[rbp], eax
  00315	48 8d 95 94 01
	00 00		 lea	 rdx, QWORD PTR $T6[rbp]
  0031c	48 8d 8d b4 01
	00 00		 lea	 rcx, QWORD PTR $T7[rbp]
  00323	e8 00 00 00 00	 call	 ?eq_int_type@?$_Narrow_char_traits@DH@std@@SA_NAEBH0@Z ; std::_Narrow_char_traits<char,int>::eq_int_type
  00328	0f b6 c0	 movzx	 eax, al
  0032b	85 c0		 test	 eax, eax
  0032d	74 0b		 je	 SHORT $LN15@operator

; 797  :                     _State |= ios_base::badbit; // insertion failed, quit

  0032f	8b 45 04	 mov	 eax, DWORD PTR _State$[rbp]
  00332	83 c8 04	 or	 eax, 4
  00335	89 45 04	 mov	 DWORD PTR _State$[rbp], eax

; 798  :                     break;

  00338	eb 05		 jmp	 SHORT $LN14@operator
$LN15@operator:

; 799  :                 }
; 800  :             }

  0033a	e9 45 ff ff ff	 jmp	 $LN5@operator
$LN14@operator:

; 801  :         }
; 802  : 
; 803  :         _Ostr.width(0);

  0033f	48 8b 85 20 02
	00 00		 mov	 rax, QWORD PTR _Ostr$[rbp]
  00346	48 8b 00	 mov	 rax, QWORD PTR [rax]
  00349	48 63 40 04	 movsxd	 rax, DWORD PTR [rax+4]
  0034d	48 8b 8d 20 02
	00 00		 mov	 rcx, QWORD PTR _Ostr$[rbp]
  00354	48 03 c8	 add	 rcx, rax
  00357	48 8b c1	 mov	 rax, rcx
  0035a	33 d2		 xor	 edx, edx
  0035c	48 8b c8	 mov	 rcx, rax
  0035f	ff 15 00 00 00
	00		 call	 QWORD PTR __imp_?width@ios_base@std@@QEAA_J_J@Z
  00365	90		 npad	 1
  00366	eb 00		 jmp	 SHORT $LN9@operator
$LN23@operator:
$LN9@operator:

; 804  :         _CATCH_IO_(ios_base, _Ostr)
; 805  :     }
; 806  : 
; 807  :     _Ostr.setstate(_State);

  00368	48 8b 85 20 02
	00 00		 mov	 rax, QWORD PTR _Ostr$[rbp]
  0036f	48 8b 00	 mov	 rax, QWORD PTR [rax]
  00372	48 63 40 04	 movsxd	 rax, DWORD PTR [rax+4]
  00376	48 8b 8d 20 02
	00 00		 mov	 rcx, QWORD PTR _Ostr$[rbp]
  0037d	48 03 c8	 add	 rcx, rax
  00380	48 8b c1	 mov	 rax, rcx
  00383	45 33 c0	 xor	 r8d, r8d
  00386	8b 55 04	 mov	 edx, DWORD PTR _State$[rbp]
  00389	48 8b c8	 mov	 rcx, rax
  0038c	ff 15 00 00 00
	00		 call	 QWORD PTR __imp_?setstate@?$basic_ios@DU?$char_traits@D@std@@@std@@QEAAXH_N@Z

; 808  :     return _Ostr;

  00392	48 8b 85 20 02
	00 00		 mov	 rax, QWORD PTR _Ostr$[rbp]
  00399	48 89 85 d8 01
	00 00		 mov	 QWORD PTR $T8[rbp], rax
  003a0	48 8d 4d 68	 lea	 rcx, QWORD PTR _Ok$[rbp]
  003a4	e8 00 00 00 00	 call	 ??1sentry@?$basic_ostream@DU?$char_traits@D@std@@@std@@QEAA@XZ ; std::basic_ostream<char,std::char_traits<char> >::sentry::~sentry
  003a9	48 8b 85 d8 01
	00 00		 mov	 rax, QWORD PTR $T8[rbp]

; 809  : }

  003b0	48 8b f8	 mov	 rdi, rax
  003b3	48 8d 4d e0	 lea	 rcx, QWORD PTR [rbp-32]
  003b7	48 8d 15 00 00
	00 00		 lea	 rdx, OFFSET FLAT:??$?6U?$char_traits@D@std@@@std@@YAAEAV?$basic_ostream@DU?$char_traits@D@std@@@0@AEAV10@PEBD@Z$rtcFrameData
  003be	e8 00 00 00 00	 call	 _RTC_CheckStackVars
  003c3	48 8b c7	 mov	 rax, rdi
  003c6	48 8b 8d f0 01
	00 00		 mov	 rcx, QWORD PTR __$ArrayPad$[rbp]
  003cd	48 33 cd	 xor	 rcx, rbp
  003d0	e8 00 00 00 00	 call	 __security_check_cookie
  003d5	48 8d a5 08 02
	00 00		 lea	 rsp, QWORD PTR [rbp+520]
  003dc	5f		 pop	 rdi
  003dd	5d		 pop	 rbp
  003de	c3		 ret	 0
??$?6U?$char_traits@D@std@@@std@@YAAEAV?$basic_ostream@DU?$char_traits@D@std@@@0@AEAV10@PEBD@Z ENDP ; std::operator<<<std::char_traits<char> >
_TEXT	ENDS
; Function compile flags: /Odtp /RTCsu /ZI
;	COMDAT text$x
text$x	SEGMENT
_State$ = 4
_Count$ = 40
_Pad$ = 72
_Ok$ = 104
$T4 = 340
$T5 = 372
$T6 = 404
$T7 = 436
$T8 = 472
tv285 = 484
tv283 = 484
tv296 = 488
tv295 = 488
tv139 = 488
tv137 = 488
__$ArrayPad$ = 496
_Ostr$ = 544
_Val$ = 552
?dtor$0@?0???$?6U?$char_traits@D@std@@@std@@YAAEAV?$basic_ostream@DU?$char_traits@D@std@@@0@AEAV10@PEBD@Z@4HA PROC ; `std::operator<<<std::char_traits<char> >'::`1'::dtor$0
  00000	48 89 4c 24 08	 mov	 QWORD PTR [rsp+8], rcx
  00005	48 89 54 24 10	 mov	 QWORD PTR [rsp+16], rdx
  0000a	55		 push	 rbp
  0000b	57		 push	 rdi
  0000c	48 83 ec 28	 sub	 rsp, 40			; 00000028H
  00010	48 8d 6a 20	 lea	 rbp, QWORD PTR [rdx+32]
  00014	48 8d 4d 68	 lea	 rcx, QWORD PTR _Ok$[rbp]
  00018	e8 00 00 00 00	 call	 ??1sentry@?$basic_ostream@DU?$char_traits@D@std@@@std@@QEAA@XZ ; std::basic_ostream<char,std::char_traits<char> >::sentry::~sentry
  0001d	48 83 c4 28	 add	 rsp, 40			; 00000028H
  00021	5f		 pop	 rdi
  00022	5d		 pop	 rbp
  00023	c3		 ret	 0
?dtor$0@?0???$?6U?$char_traits@D@std@@@std@@YAAEAV?$basic_ostream@DU?$char_traits@D@std@@@0@AEAV10@PEBD@Z@4HA ENDP ; `std::operator<<<std::char_traits<char> >'::`1'::dtor$0
text$x	ENDS
; Function compile flags: /Odtp /RTCsu /ZI
;	COMDAT text$x
text$x	SEGMENT
_State$ = 4
_Count$ = 40
_Pad$ = 72
_Ok$ = 104
$T4 = 340
$T5 = 372
$T6 = 404
$T7 = 436
$T8 = 472
tv285 = 484
tv283 = 484
tv296 = 488
tv295 = 488
tv139 = 488
tv137 = 488
__$ArrayPad$ = 496
_Ostr$ = 544
_Val$ = 552
?catch$1@?0???$?6U?$char_traits@D@std@@@std@@YAAEAV?$basic_ostream@DU?$char_traits@D@std@@@0@AEAV10@PEBD@Z@4HA PROC ; `std::operator<<<std::char_traits<char> >'::`1'::catch$1

; 804  :         _CATCH_IO_(ios_base, _Ostr)

  00000	48 89 4c 24 08	 mov	 QWORD PTR [rsp+8], rcx
  00005	48 89 54 24 10	 mov	 QWORD PTR [rsp+16], rdx
  0000a	55		 push	 rbp
  0000b	57		 push	 rdi
  0000c	48 83 ec 28	 sub	 rsp, 40			; 00000028H
  00010	48 8d 6a 20	 lea	 rbp, QWORD PTR [rdx+32]
__catch$??$?6U?$char_traits@D@std@@@std@@YAAEAV?$basic_ostream@DU?$char_traits@D@std@@@0@AEAV10@PEBD@Z$0:
  00014	48 8b 85 20 02
	00 00		 mov	 rax, QWORD PTR _Ostr$[rbp]
  0001b	48 8b 00	 mov	 rax, QWORD PTR [rax]
  0001e	48 63 40 04	 movsxd	 rax, DWORD PTR [rax+4]
  00022	48 8b 8d 20 02
	00 00		 mov	 rcx, QWORD PTR _Ostr$[rbp]
  00029	48 03 c8	 add	 rcx, rax
  0002c	48 8b c1	 mov	 rax, rcx
  0002f	41 b0 01	 mov	 r8b, 1
  00032	ba 04 00 00 00	 mov	 edx, 4
  00037	48 8b c8	 mov	 rcx, rax
  0003a	ff 15 00 00 00
	00		 call	 QWORD PTR __imp_?setstate@?$basic_ios@DU?$char_traits@D@std@@@std@@QEAAXH_N@Z
  00040	90		 npad	 1
  00041	48 8d 05 00 00
	00 00		 lea	 rax, $LN23@catch$1
  00048	48 83 c4 28	 add	 rsp, 40			; 00000028H
  0004c	5f		 pop	 rdi
  0004d	5d		 pop	 rbp
  0004e	c3		 ret	 0
  0004f	cc		 int	 3
?catch$1@?0???$?6U?$char_traits@D@std@@@std@@YAAEAV?$basic_ostream@DU?$char_traits@D@std@@@0@AEAV10@PEBD@Z@4HA ENDP ; `std::operator<<<std::char_traits<char> >'::`1'::catch$1
text$x	ENDS
; Function compile flags: /Odtp /RTCsu /ZI
; File C:\\\\lab_03\ConsoleApplication1\main.cpp
;	COMDAT ?holiday@@YAXH_NH@Z
_TEXT	SEGMENT
month$ = 4
day$ = 36
f$ = 68
monthses$ = 104
i$ = 180
nowmon$ = 212
$T6 = 436
$T7 = 468
ind$ = 528
isLeap$ = 536
year$ = 544
?holiday@@YAXH_NH@Z PROC				; holiday, COMDAT

; 13   : {

$LN23:
  00000	44 89 44 24 18	 mov	 DWORD PTR [rsp+24], r8d
  00005	88 54 24 10	 mov	 BYTE PTR [rsp+16], dl
  00009	89 4c 24 08	 mov	 DWORD PTR [rsp+8], ecx
  0000d	55		 push	 rbp
  0000e	57		 push	 rdi
  0000f	48 81 ec 18 02
	00 00		 sub	 rsp, 536		; 00000218H
  00016	48 8d 6c 24 20	 lea	 rbp, QWORD PTR [rsp+32]
  0001b	48 8d 7c 24 20	 lea	 rdi, QWORD PTR [rsp+32]
  00020	b9 4e 00 00 00	 mov	 ecx, 78			; 0000004eH
  00025	b8 cc cc cc cc	 mov	 eax, -858993460		; ccccccccH
  0002a	f3 ab		 rep stosd
  0002c	8b 8c 24 38 02
	00 00		 mov	 ecx, DWORD PTR [rsp+568]
  00033	c6 85 b4 01 00
	00 00		 mov	 BYTE PTR $T6[rbp], 0
  0003a	c6 85 d4 01 00
	00 00		 mov	 BYTE PTR $T7[rbp], 0
  00041	48 8d 0d 00 00
	00 00		 lea	 rcx, OFFSET FLAT:__0E5718B5_main@cpp
  00048	e8 00 00 00 00	 call	 __CheckForDebuggerJustMyCode

; 14   : 	int month, day;
; 15   : 	bool f = true;

  0004d	c6 45 44 01	 mov	 BYTE PTR f$[rbp], 1

; 16   : 	int monthses[12] = { 31, 28, 31, 30, 31, 30, 31, 31, 30, 31, 30, 31 };

  00051	c7 45 68 1f 00
	00 00		 mov	 DWORD PTR monthses$[rbp], 31
  00058	c7 45 6c 1c 00
	00 00		 mov	 DWORD PTR monthses$[rbp+4], 28
  0005f	c7 45 70 1f 00
	00 00		 mov	 DWORD PTR monthses$[rbp+8], 31
  00066	c7 45 74 1e 00
	00 00		 mov	 DWORD PTR monthses$[rbp+12], 30
  0006d	c7 45 78 1f 00
	00 00		 mov	 DWORD PTR monthses$[rbp+16], 31
  00074	c7 45 7c 1e 00
	00 00		 mov	 DWORD PTR monthses$[rbp+20], 30
  0007b	c7 85 80 00 00
	00 1f 00 00 00	 mov	 DWORD PTR monthses$[rbp+24], 31
  00085	c7 85 84 00 00
	00 1f 00 00 00	 mov	 DWORD PTR monthses$[rbp+28], 31
  0008f	c7 85 88 00 00
	00 1e 00 00 00	 mov	 DWORD PTR monthses$[rbp+32], 30
  00099	c7 85 8c 00 00
	00 1f 00 00 00	 mov	 DWORD PTR monthses$[rbp+36], 31
  000a3	c7 85 90 00 00
	00 1e 00 00 00	 mov	 DWORD PTR monthses$[rbp+40], 30
  000ad	c7 85 94 00 00
	00 1f 00 00 00	 mov	 DWORD PTR monthses$[rbp+44], 31

; 17   : 	int i = 1;

  000b7	c7 85 b4 00 00
	00 01 00 00 00	 mov	 DWORD PTR i$[rbp], 1

; 18   : 	int nowmon = monthses[0];

  000c1	b8 04 00 00 00	 mov	 eax, 4
  000c6	48 6b c0 00	 imul	 rax, rax, 0
  000ca	8b 44 05 68	 mov	 eax, DWORD PTR monthses$[rbp+rax]
  000ce	89 85 d4 00 00
	00		 mov	 DWORD PTR nowmon$[rbp], eax

; 19   : 	if (isLeap)

  000d4	0f b6 85 18 02
	00 00		 movzx	 eax, BYTE PTR isLeap$[rbp]
  000db	85 c0		 test	 eax, eax
  000dd	74 11		 je	 SHORT $LN4@holiday

; 20   : 	{
; 21   : 		monthses[1] = 29;

  000df	b8 04 00 00 00	 mov	 eax, 4
  000e4	48 6b c0 01	 imul	 rax, rax, 1
  000e8	c7 44 05 68 1d
	00 00 00	 mov	 DWORD PTR monthses$[rbp+rax], 29
$LN4@holiday:
$LN12@holiday:
$LN2@holiday:

; 22   : 	}
; 23   : 	while (f)

  000f0	0f b6 45 44	 movzx	 eax, BYTE PTR f$[rbp]
  000f4	85 c0		 test	 eax, eax
  000f6	74 7e		 je	 SHORT $LN3@holiday

; 24   : 	{
; 25   : 		if (ind > nowmon)

  000f8	8b 85 d4 00 00
	00		 mov	 eax, DWORD PTR nowmon$[rbp]
  000fe	39 85 10 02 00
	00		 cmp	 DWORD PTR ind$[rbp], eax
  00104	7e 2b		 jle	 SHORT $LN5@holiday

; 26   : 		{
; 27   : 			nowmon += monthses[i];

  00106	48 63 85 b4 00
	00 00		 movsxd	 rax, DWORD PTR i$[rbp]
  0010d	8b 44 85 68	 mov	 eax, DWORD PTR monthses$[rbp+rax*4]
  00111	8b 8d d4 00 00
	00		 mov	 ecx, DWORD PTR nowmon$[rbp]
  00117	03 c8		 add	 ecx, eax
  00119	8b c1		 mov	 eax, ecx
  0011b	89 85 d4 00 00
	00		 mov	 DWORD PTR nowmon$[rbp], eax

; 28   : 			i++;

  00121	8b 85 b4 00 00
	00		 mov	 eax, DWORD PTR i$[rbp]
  00127	ff c0		 inc	 eax
  00129	89 85 b4 00 00
	00		 mov	 DWORD PTR i$[rbp], eax

; 29   : 			continue;

  0012f	eb bf		 jmp	 SHORT $LN2@holiday
$LN5@holiday:

; 30   : 		}
; 31   : 		day = ind - (nowmon - monthses[i-1]);

  00131	8b 85 b4 00 00
	00		 mov	 eax, DWORD PTR i$[rbp]
  00137	ff c8		 dec	 eax
  00139	48 98		 cdqe
  0013b	8b 44 85 68	 mov	 eax, DWORD PTR monthses$[rbp+rax*4]
  0013f	8b 8d d4 00 00
	00		 mov	 ecx, DWORD PTR nowmon$[rbp]
  00145	2b c8		 sub	 ecx, eax
  00147	8b c1		 mov	 eax, ecx
  00149	8b 8d 10 02 00
	00		 mov	 ecx, DWORD PTR ind$[rbp]
  0014f	2b c8		 sub	 ecx, eax
  00151	8b c1		 mov	 eax, ecx
  00153	c6 85 b4 01 00
	00 01		 mov	 BYTE PTR $T6[rbp], 1
  0015a	89 45 24	 mov	 DWORD PTR day$[rbp], eax

; 32   : 		month = i;

  0015d	c6 85 d4 01 00
	00 01		 mov	 BYTE PTR $T7[rbp], 1
  00164	8b 85 b4 00 00
	00		 mov	 eax, DWORD PTR i$[rbp]
  0016a	89 45 04	 mov	 DWORD PTR month$[rbp], eax

; 33   : 		f = false;

  0016d	c6 45 44 00	 mov	 BYTE PTR f$[rbp], 0

; 34   : 	}

  00171	e9 7a ff ff ff	 jmp	 $LN12@holiday
$LN3@holiday:

; 35   : 	cout << day << "." << month << "." << year << endl;

  00176	80 bd d4 01 00
	00 00		 cmp	 BYTE PTR $T7[rbp], 0
  0017d	75 0c		 jne	 SHORT $LN13@holiday
  0017f	48 8d 0d 00 00
	00 00		 lea	 rcx, OFFSET FLAT:?holiday@@YAXH_NH@Z$rtcName$0
  00186	e8 00 00 00 00	 call	 _RTC_UninitUse
$LN13@holiday:
  0018b	80 bd b4 01 00
	00 00		 cmp	 BYTE PTR $T6[rbp], 0
  00192	75 0c		 jne	 SHORT $LN14@holiday
  00194	48 8d 0d 00 00
	00 00		 lea	 rcx, OFFSET FLAT:?holiday@@YAXH_NH@Z$rtcName$1
  0019b	e8 00 00 00 00	 call	 _RTC_UninitUse
$LN14@holiday:
  001a0	8b 55 24	 mov	 edx, DWORD PTR day$[rbp]
  001a3	48 8b 0d 00 00
	00 00		 mov	 rcx, QWORD PTR __imp_?cout@std@@3V?$basic_ostream@DU?$char_traits@D@std@@@1@A
  001aa	ff 15 00 00 00
	00		 call	 QWORD PTR __imp_??6?$basic_ostream@DU?$char_traits@D@std@@@std@@QEAAAEAV01@H@Z
  001b0	48 8d 15 00 00
	00 00		 lea	 rdx, OFFSET FLAT:??_C@_01LFCBOECM@?4@
  001b7	48 8b c8	 mov	 rcx, rax
  001ba	e8 00 00 00 00	 call	 ??$?6U?$char_traits@D@std@@@std@@YAAEAV?$basic_ostream@DU?$char_traits@D@std@@@0@AEAV10@PEBD@Z ; std::operator<<<std::char_traits<char> >
  001bf	8b 55 04	 mov	 edx, DWORD PTR month$[rbp]
  001c2	48 8b c8	 mov	 rcx, rax
  001c5	ff 15 00 00 00
	00		 call	 QWORD PTR __imp_??6?$basic_ostream@DU?$char_traits@D@std@@@std@@QEAAAEAV01@H@Z
  001cb	48 8d 15 00 00
	00 00		 lea	 rdx, OFFSET FLAT:??_C@_01LFCBOECM@?4@
  001d2	48 8b c8	 mov	 rcx, rax
  001d5	e8 00 00 00 00	 call	 ??$?6U?$char_traits@D@std@@@std@@YAAEAV?$basic_ostream@DU?$char_traits@D@std@@@0@AEAV10@PEBD@Z ; std::operator<<<std::char_traits<char> >
  001da	8b 95 20 02 00
	00		 mov	 edx, DWORD PTR year$[rbp]
  001e0	48 8b c8	 mov	 rcx, rax
  001e3	ff 15 00 00 00
	00		 call	 QWORD PTR __imp_??6?$basic_ostream@DU?$char_traits@D@std@@@std@@QEAAAEAV01@H@Z
  001e9	48 8d 15 00 00
	00 00		 lea	 rdx, OFFSET FLAT:??$endl@DU?$char_traits@D@std@@@std@@YAAEAV?$basic_ostream@DU?$char_traits@D@std@@@0@AEAV10@@Z ; std::endl<char,std::char_traits<char> >
  001f0	48 8b c8	 mov	 rcx, rax
  001f3	ff 15 00 00 00
	00		 call	 QWORD PTR __imp_??6?$basic_ostream@DU?$char_traits@D@std@@@std@@QEAAAEAV01@P6AAEAV01@AEAV01@@Z@Z

; 36   : 	if ((day == 13 && month == 9 && !isLeap) || (day == 12 && month == 9 && isLeap))

  001f9	80 bd b4 01 00
	00 00		 cmp	 BYTE PTR $T6[rbp], 0
  00200	75 0c		 jne	 SHORT $LN15@holiday
  00202	48 8d 0d 00 00
	00 00		 lea	 rcx, OFFSET FLAT:?holiday@@YAXH_NH@Z$rtcName$1
  00209	e8 00 00 00 00	 call	 _RTC_UninitUse
$LN15@holiday:
  0020e	83 7d 24 0d	 cmp	 DWORD PTR day$[rbp], 13
  00212	75 26		 jne	 SHORT $LN8@holiday
  00214	80 bd d4 01 00
	00 00		 cmp	 BYTE PTR $T7[rbp], 0
  0021b	75 0c		 jne	 SHORT $LN16@holiday
  0021d	48 8d 0d 00 00
	00 00		 lea	 rcx, OFFSET FLAT:?holiday@@YAXH_NH@Z$rtcName$0
  00224	e8 00 00 00 00	 call	 _RTC_UninitUse
$LN16@holiday:
  00229	83 7d 04 09	 cmp	 DWORD PTR month$[rbp], 9
  0022d	75 0b		 jne	 SHORT $LN8@holiday
  0022f	0f b6 85 18 02
	00 00		 movzx	 eax, BYTE PTR isLeap$[rbp]
  00236	85 c0		 test	 eax, eax
  00238	74 41		 je	 SHORT $LN7@holiday
$LN8@holiday:
  0023a	80 bd b4 01 00
	00 00		 cmp	 BYTE PTR $T6[rbp], 0
  00241	75 0c		 jne	 SHORT $LN17@holiday
  00243	48 8d 0d 00 00
	00 00		 lea	 rcx, OFFSET FLAT:?holiday@@YAXH_NH@Z$rtcName$1
  0024a	e8 00 00 00 00	 call	 _RTC_UninitUse
$LN17@holiday:
  0024f	83 7d 24 0c	 cmp	 DWORD PTR day$[rbp], 12
  00253	75 59		 jne	 SHORT $LN6@holiday
  00255	80 bd d4 01 00
	00 00		 cmp	 BYTE PTR $T7[rbp], 0
  0025c	75 0c		 jne	 SHORT $LN18@holiday
  0025e	48 8d 0d 00 00
	00 00		 lea	 rcx, OFFSET FLAT:?holiday@@YAXH_NH@Z$rtcName$0
  00265	e8 00 00 00 00	 call	 _RTC_UninitUse
$LN18@holiday:
  0026a	83 7d 04 09	 cmp	 DWORD PTR month$[rbp], 9
  0026e	75 3e		 jne	 SHORT $LN6@holiday
  00270	0f b6 85 18 02
	00 00		 movzx	 eax, BYTE PTR isLeap$[rbp]
  00277	85 c0		 test	 eax, eax
  00279	74 33		 je	 SHORT $LN6@holiday
$LN7@holiday:

; 37   : 	{
; 38   : 		cout << " !!!!" << endl << endl;

  0027b	48 8d 15 00 00
	00 00		 lea	 rdx, OFFSET FLAT:??_C@_0BG@LDDGAJMP@?D?E?M?$NM?5?O?P?N?C?P?$MA?L?L?H?Q?R?$MA?$CB?$CB?$CB?$CB@
  00282	48 8b 0d 00 00
	00 00		 mov	 rcx, QWORD PTR __imp_?cout@std@@3V?$basic_ostream@DU?$char_traits@D@std@@@1@A
  00289	e8 00 00 00 00	 call	 ??$?6U?$char_traits@D@std@@@std@@YAAEAV?$basic_ostream@DU?$char_traits@D@std@@@0@AEAV10@PEBD@Z ; std::operator<<<std::char_traits<char> >
  0028e	48 8d 15 00 00
	00 00		 lea	 rdx, OFFSET FLAT:??$endl@DU?$char_traits@D@std@@@std@@YAAEAV?$basic_ostream@DU?$char_traits@D@std@@@0@AEAV10@@Z ; std::endl<char,std::char_traits<char> >
  00295	48 8b c8	 mov	 rcx, rax
  00298	ff 15 00 00 00
	00		 call	 QWORD PTR __imp_??6?$basic_ostream@DU?$char_traits@D@std@@@std@@QEAAAEAV01@P6AAEAV01@AEAV01@@Z@Z
  0029e	48 8d 15 00 00
	00 00		 lea	 rdx, OFFSET FLAT:??$endl@DU?$char_traits@D@std@@@std@@YAAEAV?$basic_ostream@DU?$char_traits@D@std@@@0@AEAV10@@Z ; std::endl<char,std::char_traits<char> >
  002a5	48 8b c8	 mov	 rcx, rax
  002a8	ff 15 00 00 00
	00		 call	 QWORD PTR __imp_??6?$basic_ostream@DU?$char_traits@D@std@@@std@@QEAAAEAV01@P6AAEAV01@AEAV01@@Z@Z
$LN6@holiday:

; 39   : 	}
; 40   : 
; 41   : 	if (day == 9 && month == 5)

  002ae	80 bd b4 01 00
	00 00		 cmp	 BYTE PTR $T6[rbp], 0
  002b5	75 0c		 jne	 SHORT $LN19@holiday
  002b7	48 8d 0d 00 00
	00 00		 lea	 rcx, OFFSET FLAT:?holiday@@YAXH_NH@Z$rtcName$1
  002be	e8 00 00 00 00	 call	 _RTC_UninitUse
$LN19@holiday:
  002c3	83 7d 24 09	 cmp	 DWORD PTR day$[rbp], 9
  002c7	75 4e		 jne	 SHORT $LN9@holiday
  002c9	80 bd d4 01 00
	00 00		 cmp	 BYTE PTR $T7[rbp], 0
  002d0	75 0c		 jne	 SHORT $LN20@holiday
  002d2	48 8d 0d 00 00
	00 00		 lea	 rcx, OFFSET FLAT:?holiday@@YAXH_NH@Z$rtcName$0
  002d9	e8 00 00 00 00	 call	 _RTC_UninitUse
$LN20@holiday:
  002de	83 7d 04 05	 cmp	 DWORD PTR month$[rbp], 5
  002e2	75 33		 jne	 SHORT $LN9@holiday

; 42   : 	{
; 43   : 		cout << " !!!!" << endl << endl;

  002e4	48 8d 15 00 00
	00 00		 lea	 rdx, OFFSET FLAT:??_C@_0BA@IEBPNGBA@?D?E?M?$NM?5?O?N?A?E?D?$NL?$CB?$CB?$CB?$CB@
  002eb	48 8b 0d 00 00
	00 00		 mov	 rcx, QWORD PTR __imp_?cout@std@@3V?$basic_ostream@DU?$char_traits@D@std@@@1@A
  002f2	e8 00 00 00 00	 call	 ??$?6U?$char_traits@D@std@@@std@@YAAEAV?$basic_ostream@DU?$char_traits@D@std@@@0@AEAV10@PEBD@Z ; std::operator<<<std::char_traits<char> >
  002f7	48 8d 15 00 00
	00 00		 lea	 rdx, OFFSET FLAT:??$endl@DU?$char_traits@D@std@@@std@@YAAEAV?$basic_ostream@DU?$char_traits@D@std@@@0@AEAV10@@Z ; std::endl<char,std::char_traits<char> >
  002fe	48 8b c8	 mov	 rcx, rax
  00301	ff 15 00 00 00
	00		 call	 QWORD PTR __imp_??6?$basic_ostream@DU?$char_traits@D@std@@@std@@QEAAAEAV01@P6AAEAV01@AEAV01@@Z@Z
  00307	48 8d 15 00 00
	00 00		 lea	 rdx, OFFSET FLAT:??$endl@DU?$char_traits@D@std@@@std@@YAAEAV?$basic_ostream@DU?$char_traits@D@std@@@0@AEAV10@@Z ; std::endl<char,std::char_traits<char> >
  0030e	48 8b c8	 mov	 rcx, rax
  00311	ff 15 00 00 00
	00		 call	 QWORD PTR __imp_??6?$basic_ostream@DU?$char_traits@D@std@@@std@@QEAAAEAV01@P6AAEAV01@AEAV01@@Z@Z
$LN9@holiday:

; 44   : 	}
; 45   : 
; 46   : 	if (day == 1 && month == 1)

  00317	80 bd b4 01 00
	00 00		 cmp	 BYTE PTR $T6[rbp], 0
  0031e	75 0c		 jne	 SHORT $LN21@holiday
  00320	48 8d 0d 00 00
	00 00		 lea	 rcx, OFFSET FLAT:?holiday@@YAXH_NH@Z$rtcName$1
  00327	e8 00 00 00 00	 call	 _RTC_UninitUse
$LN21@holiday:
  0032c	83 7d 24 01	 cmp	 DWORD PTR day$[rbp], 1
  00330	75 4e		 jne	 SHORT $LN10@holiday
  00332	80 bd d4 01 00
	00 00		 cmp	 BYTE PTR $T7[rbp], 0
  00339	75 0c		 jne	 SHORT $LN22@holiday
  0033b	48 8d 0d 00 00
	00 00		 lea	 rcx, OFFSET FLAT:?holiday@@YAXH_NH@Z$rtcName$0
  00342	e8 00 00 00 00	 call	 _RTC_UninitUse
$LN22@holiday:
  00347	83 7d 04 01	 cmp	 DWORD PTR month$[rbp], 1
  0034b	75 33		 jne	 SHORT $LN10@holiday

; 47   : 	{
; 48   : 		cout << " !!!!" << endl << endl;

  0034d	48 8d 15 00 00
	00 00		 lea	 rdx, OFFSET FLAT:??_C@_0O@JJICNHLP@?M?N?B?$NL?I?5?C?N?D?$CB?$CB?$CB?$CB@
  00354	48 8b 0d 00 00
	00 00		 mov	 rcx, QWORD PTR __imp_?cout@std@@3V?$basic_ostream@DU?$char_traits@D@std@@@1@A
  0035b	e8 00 00 00 00	 call	 ??$?6U?$char_traits@D@std@@@std@@YAAEAV?$basic_ostream@DU?$char_traits@D@std@@@0@AEAV10@PEBD@Z ; std::operator<<<std::char_traits<char> >
  00360	48 8d 15 00 00
	00 00		 lea	 rdx, OFFSET FLAT:??$endl@DU?$char_traits@D@std@@@std@@YAAEAV?$basic_ostream@DU?$char_traits@D@std@@@0@AEAV10@@Z ; std::endl<char,std::char_traits<char> >
  00367	48 8b c8	 mov	 rcx, rax
  0036a	ff 15 00 00 00
	00		 call	 QWORD PTR __imp_??6?$basic_ostream@DU?$char_traits@D@std@@@std@@QEAAAEAV01@P6AAEAV01@AEAV01@@Z@Z
  00370	48 8d 15 00 00
	00 00		 lea	 rdx, OFFSET FLAT:??$endl@DU?$char_traits@D@std@@@std@@YAAEAV?$basic_ostream@DU?$char_traits@D@std@@@0@AEAV10@@Z ; std::endl<char,std::char_traits<char> >
  00377	48 8b c8	 mov	 rcx, rax
  0037a	ff 15 00 00 00
	00		 call	 QWORD PTR __imp_??6?$basic_ostream@DU?$char_traits@D@std@@@std@@QEAAAEAV01@P6AAEAV01@AEAV01@@Z@Z
$LN10@holiday:

; 49   : 	}
; 50   : 
; 51   : }

  00380	48 8d 4d e0	 lea	 rcx, QWORD PTR [rbp-32]
  00384	48 8d 15 00 00
	00 00		 lea	 rdx, OFFSET FLAT:?holiday@@YAXH_NH@Z$rtcFrameData
  0038b	e8 00 00 00 00	 call	 _RTC_CheckStackVars
  00390	48 8d a5 f8 01
	00 00		 lea	 rsp, QWORD PTR [rbp+504]
  00397	5f		 pop	 rdi
  00398	5d		 pop	 rbp
  00399	c3		 ret	 0
?holiday@@YAXH_NH@Z ENDP				; holiday
_TEXT	ENDS
; Function compile flags: /Odtp /RTCsu /ZI
; File C:\\\\lab_03\ConsoleApplication1\main.cpp
;	COMDAT ?mont@@YA?AV?$basic_string@DU?$char_traits@D@std@@V?$allocator@D@2@@std@@H@Z
_TEXT	SEGMENT
monthsess$ = 16
$T4 = 900
__$ArrayPad$ = 920
__$ReturnUdt$ = 960
month$ = 968
?mont@@YA?AV?$basic_string@DU?$char_traits@D@std@@V?$allocator@D@2@@std@@H@Z PROC ; mont, COMDAT

; 7    : {

$LN18:
  00000	89 54 24 10	 mov	 DWORD PTR [rsp+16], edx
  00004	48 89 4c 24 08	 mov	 QWORD PTR [rsp+8], rcx
  00009	55		 push	 rbp
  0000a	57		 push	 rdi
  0000b	48 81 ec c8 03
	00 00		 sub	 rsp, 968		; 000003c8H
  00012	48 8d 6c 24 20	 lea	 rbp, QWORD PTR [rsp+32]
  00017	48 8d 7c 24 20	 lea	 rdi, QWORD PTR [rsp+32]
  0001c	b9 8a 00 00 00	 mov	 ecx, 138		; 0000008aH
  00021	b8 cc cc cc cc	 mov	 eax, -858993460		; ccccccccH
  00026	f3 ab		 rep stosd
  00028	48 8b 8c 24 e8
	03 00 00	 mov	 rcx, QWORD PTR [rsp+1000]
  00030	48 8b 05 00 00
	00 00		 mov	 rax, QWORD PTR __security_cookie
  00037	48 33 c5	 xor	 rax, rbp
  0003a	48 89 85 98 03
	00 00		 mov	 QWORD PTR __$ArrayPad$[rbp], rax
  00041	c7 85 84 03 00
	00 00 00 00 00	 mov	 DWORD PTR $T4[rbp], 0
  0004b	48 8d 0d 00 00
	00 00		 lea	 rcx, OFFSET FLAT:__0E5718B5_main@cpp
  00052	e8 00 00 00 00	 call	 __CheckForDebuggerJustMyCode

; 8    : 	string monthsess[] = {"","","","","","","","","","","",""};

  00057	48 8d 15 00 00
	00 00		 lea	 rdx, OFFSET FLAT:??_C@_06BMGEFDJH@?$NP?m?b?$OA?p?$PM@
  0005e	48 8d 4d 10	 lea	 rcx, QWORD PTR monthsess$[rbp]
  00062	e8 00 00 00 00	 call	 ??0?$basic_string@DU?$char_traits@D@std@@V?$allocator@D@2@@std@@QEAA@QEBD@Z ; std::basic_string<char,std::char_traits<char>,std::allocator<char> >::basic_string<char,std::char_traits<char>,std::allocator<char> >
  00067	90		 npad	 1
  00068	48 8d 15 00 00
	00 00		 lea	 rdx, OFFSET FLAT:??_C@_07JBGLOLNM@?T?e?b?p?$OA?k?$PM@
  0006f	48 8d 4d 38	 lea	 rcx, QWORD PTR monthsess$[rbp+40]
  00073	e8 00 00 00 00	 call	 ??0?$basic_string@DU?$char_traits@D@std@@V?$allocator@D@2@@std@@QEAA@QEBD@Z ; std::basic_string<char,std::char_traits<char>,std::allocator<char> >::basic_string<char,std::char_traits<char>,std::allocator<char> >
  00078	90		 npad	 1
  00079	48 8d 15 00 00
	00 00		 lea	 rdx, OFFSET FLAT:??_C@_04FAAJLMOP@?L?$OA?p?r@
  00080	48 8d 4d 60	 lea	 rcx, QWORD PTR monthsess$[rbp+80]
  00084	e8 00 00 00 00	 call	 ??0?$basic_string@DU?$char_traits@D@std@@V?$allocator@D@2@@std@@QEAA@QEBD@Z ; std::basic_string<char,std::char_traits<char>,std::allocator<char> >::basic_string<char,std::char_traits<char>,std::allocator<char> >
  00089	90		 npad	 1
  0008a	48 8d 15 00 00
	00 00		 lea	 rdx, OFFSET FLAT:??_C@_06PNLHGGPK@?$MA?o?p?e?k?$PM@
  00091	48 8d 8d 88 00
	00 00		 lea	 rcx, QWORD PTR monthsess$[rbp+120]
  00098	e8 00 00 00 00	 call	 ??0?$basic_string@DU?$char_traits@D@std@@V?$allocator@D@2@@std@@QEAA@QEBD@Z ; std::basic_string<char,std::char_traits<char>,std::allocator<char> >::basic_string<char,std::char_traits<char>,std::allocator<char> >
  0009d	90		 npad	 1
  0009e	48 8d 15 00 00
	00 00		 lea	 rdx, OFFSET FLAT:??_C@_03MEHOOJFI@?L?$OA?i@
  000a5	48 8d 8d b0 00
	00 00		 lea	 rcx, QWORD PTR monthsess$[rbp+160]
  000ac	e8 00 00 00 00	 call	 ??0?$basic_string@DU?$char_traits@D@std@@V?$allocator@D@2@@std@@QEAA@QEBD@Z ; std::basic_string<char,std::char_traits<char>,std::allocator<char> >::basic_string<char,std::char_traits<char>,std::allocator<char> >
  000b1	90		 npad	 1
  000b2	48 8d 15 00 00
	00 00		 lea	 rdx, OFFSET FLAT:??_C@_04JPDCCHCO@?H?$PO?m?$PM@
  000b9	48 8d 8d d8 00
	00 00		 lea	 rcx, QWORD PTR monthsess$[rbp+200]
  000c0	e8 00 00 00 00	 call	 ??0?$basic_string@DU?$char_traits@D@std@@V?$allocator@D@2@@std@@QEAA@QEBD@Z ; std::basic_string<char,std::char_traits<char>,std::allocator<char> >::basic_string<char,std::char_traits<char>,std::allocator<char> >
  000c5	90		 npad	 1
  000c6	48 8d 15 00 00
	00 00		 lea	 rdx, OFFSET FLAT:??_C@_04JLLPFLJM@?H?$PO?k?$PM@
  000cd	48 8d 8d 00 01
	00 00		 lea	 rcx, QWORD PTR monthsess$[rbp+240]
  000d4	e8 00 00 00 00	 call	 ??0?$basic_string@DU?$char_traits@D@std@@V?$allocator@D@2@@std@@QEAA@QEBD@Z ; std::basic_string<char,std::char_traits<char>,std::allocator<char> >::basic_string<char,std::char_traits<char>,std::allocator<char> >
  000d9	90		 npad	 1
  000da	48 8d 15 00 00
	00 00		 lea	 rdx, OFFSET FLAT:??_C@_06JMCJJLBN@?$MA?b?c?s?q?r@
  000e1	48 8d 8d 28 01
	00 00		 lea	 rcx, QWORD PTR monthsess$[rbp+280]
  000e8	e8 00 00 00 00	 call	 ??0?$basic_string@DU?$char_traits@D@std@@V?$allocator@D@2@@std@@QEAA@QEBD@Z ; std::basic_string<char,std::char_traits<char>,std::allocator<char> >::basic_string<char,std::char_traits<char>,std::allocator<char> >
  000ed	90		 npad	 1
  000ee	48 8d 15 00 00
	00 00		 lea	 rdx, OFFSET FLAT:??_C@_08ECPNNGFL@?Q?e?m?r?$PP?a?p?$PM@
  000f5	48 8d 8d 50 01
	00 00		 lea	 rcx, QWORD PTR monthsess$[rbp+320]
  000fc	e8 00 00 00 00	 call	 ??0?$basic_string@DU?$char_traits@D@std@@V?$allocator@D@2@@std@@QEAA@QEBD@Z ; std::basic_string<char,std::char_traits<char>,std::allocator<char> >::basic_string<char,std::char_traits<char>,std::allocator<char> >
  00101	90		 npad	 1
  00102	48 8d 15 00 00
	00 00		 lea	 rdx, OFFSET FLAT:??_C@_07KDBBAIGI@?N?j?r?$PP?a?p?$PM@
  00109	48 8d 8d 78 01
	00 00		 lea	 rcx, QWORD PTR monthsess$[rbp+360]
  00110	e8 00 00 00 00	 call	 ??0?$basic_string@DU?$char_traits@D@std@@V?$allocator@D@2@@std@@QEAA@QEBD@Z ; std::basic_string<char,std::char_traits<char>,std::allocator<char> >::basic_string<char,std::char_traits<char>,std::allocator<char> >
  00115	90		 npad	 1
  00116	48 8d 15 00 00
	00 00		 lea	 rdx, OFFSET FLAT:??_C@_06EKHNJIII@?M?n?$PP?a?p?$PM@
  0011d	48 8d 8d a0 01
	00 00		 lea	 rcx, QWORD PTR monthsess$[rbp+400]
  00124	e8 00 00 00 00	 call	 ??0?$basic_string@DU?$char_traits@D@std@@V?$allocator@D@2@@std@@QEAA@QEBD@Z ; std::basic_string<char,std::char_traits<char>,std::allocator<char> >::basic_string<char,std::char_traits<char>,std::allocator<char> >
  00129	90		 npad	 1
  0012a	48 8d 15 00 00
	00 00		 lea	 rdx, OFFSET FLAT:??_C@_07MJKMOEOM@?D?e?j?$OA?a?p?$PM@
  00131	48 8d 8d c8 01
	00 00		 lea	 rcx, QWORD PTR monthsess$[rbp+440]
  00138	e8 00 00 00 00	 call	 ??0?$basic_string@DU?$char_traits@D@std@@V?$allocator@D@2@@std@@QEAA@QEBD@Z ; std::basic_string<char,std::char_traits<char>,std::allocator<char> >::basic_string<char,std::char_traits<char>,std::allocator<char> >
  0013d	90		 npad	 1

; 9    : 	return monthsess[month-1];

  0013e	8b 85 c8 03 00
	00		 mov	 eax, DWORD PTR month$[rbp]
  00144	ff c8		 dec	 eax
  00146	48 98		 cdqe
  00148	48 6b c0 28	 imul	 rax, rax, 40		; 00000028H
  0014c	48 8d 44 05 10	 lea	 rax, QWORD PTR monthsess$[rbp+rax]
  00151	48 8b d0	 mov	 rdx, rax
  00154	48 8b 8d c0 03
	00 00		 mov	 rcx, QWORD PTR __$ReturnUdt$[rbp]
  0015b	e8 00 00 00 00	 call	 ??0?$basic_string@DU?$char_traits@D@std@@V?$allocator@D@2@@std@@QEAA@AEBV01@@Z ; std::basic_string<char,std::char_traits<char>,std::allocator<char> >::basic_string<char,std::char_traits<char>,std::allocator<char> >
  00160	8b 85 84 03 00
	00		 mov	 eax, DWORD PTR $T4[rbp]
  00166	83 c8 01	 or	 eax, 1
  00169	89 85 84 03 00
	00		 mov	 DWORD PTR $T4[rbp], eax
  0016f	4c 8d 0d 00 00
	00 00		 lea	 r9, OFFSET FLAT:??1?$basic_string@DU?$char_traits@D@std@@V?$allocator@D@2@@std@@QEAA@XZ ; std::basic_string<char,std::char_traits<char>,std::allocator<char> >::~basic_string<char,std::char_traits<char>,std::allocator<char> >
  00176	41 b8 0c 00 00
	00		 mov	 r8d, 12
  0017c	ba 28 00 00 00	 mov	 edx, 40			; 00000028H
  00181	48 8d 4d 10	 lea	 rcx, QWORD PTR monthsess$[rbp]
  00185	e8 00 00 00 00	 call	 ??_M@YAXPEAX_K1P6AX0@Z@Z
  0018a	48 8b 85 c0 03
	00 00		 mov	 rax, QWORD PTR __$ReturnUdt$[rbp]

; 10   : }

  00191	48 8b f8	 mov	 rdi, rax
  00194	48 8d 4d e0	 lea	 rcx, QWORD PTR [rbp-32]
  00198	48 8d 15 00 00
	00 00		 lea	 rdx, OFFSET FLAT:?mont@@YA?AV?$basic_string@DU?$char_traits@D@std@@V?$allocator@D@2@@std@@H@Z$rtcFrameData
  0019f	e8 00 00 00 00	 call	 _RTC_CheckStackVars
  001a4	48 8b c7	 mov	 rax, rdi
  001a7	48 8b 8d 98 03
	00 00		 mov	 rcx, QWORD PTR __$ArrayPad$[rbp]
  001ae	48 33 cd	 xor	 rcx, rbp
  001b1	e8 00 00 00 00	 call	 __security_check_cookie
  001b6	48 8d a5 a8 03
	00 00		 lea	 rsp, QWORD PTR [rbp+936]
  001bd	5f		 pop	 rdi
  001be	5d		 pop	 rbp
  001bf	c3		 ret	 0
  001c0	cc		 int	 3
?mont@@YA?AV?$basic_string@DU?$char_traits@D@std@@V?$allocator@D@2@@std@@H@Z ENDP ; mont
_TEXT	ENDS
; Function compile flags: /Odtp /RTCsu /ZI
;	COMDAT text$x
text$x	SEGMENT
monthsess$ = 16
$T4 = 900
__$ArrayPad$ = 920
__$ReturnUdt$ = 960
month$ = 968
?dtor$0@?0??mont@@YA?AV?$basic_string@DU?$char_traits@D@std@@V?$allocator@D@2@@std@@H@Z@4HA PROC ; `mont'::`1'::dtor$0
  00000	48 89 4c 24 08	 mov	 QWORD PTR [rsp+8], rcx
  00005	48 89 54 24 10	 mov	 QWORD PTR [rsp+16], rdx
  0000a	55		 push	 rbp
  0000b	57		 push	 rdi
  0000c	48 83 ec 28	 sub	 rsp, 40			; 00000028H
  00010	48 8d 6a 20	 lea	 rbp, QWORD PTR [rdx+32]
  00014	48 8d 4d 10	 lea	 rcx, QWORD PTR monthsess$[rbp]
  00018	e8 00 00 00 00	 call	 ??1?$basic_string@DU?$char_traits@D@std@@V?$allocator@D@2@@std@@QEAA@XZ ; std::basic_string<char,std::char_traits<char>,std::allocator<char> >::~basic_string<char,std::char_traits<char>,std::allocator<char> >
  0001d	48 83 c4 28	 add	 rsp, 40			; 00000028H
  00021	5f		 pop	 rdi
  00022	5d		 pop	 rbp
  00023	c3		 ret	 0
?dtor$0@?0??mont@@YA?AV?$basic_string@DU?$char_traits@D@std@@V?$allocator@D@2@@std@@H@Z@4HA ENDP ; `mont'::`1'::dtor$0
text$x	ENDS
; Function compile flags: /Odtp /RTCsu /ZI
;	COMDAT text$x
text$x	SEGMENT
monthsess$ = 16
$T4 = 900
__$ArrayPad$ = 920
__$ReturnUdt$ = 960
month$ = 968
?dtor$1@?0??mont@@YA?AV?$basic_string@DU?$char_traits@D@std@@V?$allocator@D@2@@std@@H@Z@4HA PROC ; `mont'::`1'::dtor$1
  00000	48 89 4c 24 08	 mov	 QWORD PTR [rsp+8], rcx
  00005	48 89 54 24 10	 mov	 QWORD PTR [rsp+16], rdx
  0000a	55		 push	 rbp
  0000b	57		 push	 rdi
  0000c	48 83 ec 28	 sub	 rsp, 40			; 00000028H
  00010	48 8d 6a 20	 lea	 rbp, QWORD PTR [rdx+32]
  00014	48 8d 4d 38	 lea	 rcx, QWORD PTR monthsess$[rbp+40]
  00018	e8 00 00 00 00	 call	 ??1?$basic_string@DU?$char_traits@D@std@@V?$allocator@D@2@@std@@QEAA@XZ ; std::basic_string<char,std::char_traits<char>,std::allocator<char> >::~basic_string<char,std::char_traits<char>,std::allocator<char> >
  0001d	48 83 c4 28	 add	 rsp, 40			; 00000028H
  00021	5f		 pop	 rdi
  00022	5d		 pop	 rbp
  00023	c3		 ret	 0
?dtor$1@?0??mont@@YA?AV?$basic_string@DU?$char_traits@D@std@@V?$allocator@D@2@@std@@H@Z@4HA ENDP ; `mont'::`1'::dtor$1
text$x	ENDS
; Function compile flags: /Odtp /RTCsu /ZI
;	COMDAT text$x
text$x	SEGMENT
monthsess$ = 16
$T4 = 900
__$ArrayPad$ = 920
__$ReturnUdt$ = 960
month$ = 968
?dtor$2@?0??mont@@YA?AV?$basic_string@DU?$char_traits@D@std@@V?$allocator@D@2@@std@@H@Z@4HA PROC ; `mont'::`1'::dtor$2
  00000	48 89 4c 24 08	 mov	 QWORD PTR [rsp+8], rcx
  00005	48 89 54 24 10	 mov	 QWORD PTR [rsp+16], rdx
  0000a	55		 push	 rbp
  0000b	57		 push	 rdi
  0000c	48 83 ec 28	 sub	 rsp, 40			; 00000028H
  00010	48 8d 6a 20	 lea	 rbp, QWORD PTR [rdx+32]
  00014	48 8d 4d 60	 lea	 rcx, QWORD PTR monthsess$[rbp+80]
  00018	e8 00 00 00 00	 call	 ??1?$basic_string@DU?$char_traits@D@std@@V?$allocator@D@2@@std@@QEAA@XZ ; std::basic_string<char,std::char_traits<char>,std::allocator<char> >::~basic_string<char,std::char_traits<char>,std::allocator<char> >
  0001d	48 83 c4 28	 add	 rsp, 40			; 00000028H
  00021	5f		 pop	 rdi
  00022	5d		 pop	 rbp
  00023	c3		 ret	 0
?dtor$2@?0??mont@@YA?AV?$basic_string@DU?$char_traits@D@std@@V?$allocator@D@2@@std@@H@Z@4HA ENDP ; `mont'::`1'::dtor$2
text$x	ENDS
; Function compile flags: /Odtp /RTCsu /ZI
;	COMDAT text$x
text$x	SEGMENT
monthsess$ = 16
$T4 = 900
__$ArrayPad$ = 920
__$ReturnUdt$ = 960
month$ = 968
?dtor$3@?0??mont@@YA?AV?$basic_string@DU?$char_traits@D@std@@V?$allocator@D@2@@std@@H@Z@4HA PROC ; `mont'::`1'::dtor$3
  00000	48 89 4c 24 08	 mov	 QWORD PTR [rsp+8], rcx
  00005	48 89 54 24 10	 mov	 QWORD PTR [rsp+16], rdx
  0000a	55		 push	 rbp
  0000b	57		 push	 rdi
  0000c	48 83 ec 28	 sub	 rsp, 40			; 00000028H
  00010	48 8d 6a 20	 lea	 rbp, QWORD PTR [rdx+32]
  00014	48 8d 8d 88 00
	00 00		 lea	 rcx, QWORD PTR monthsess$[rbp+120]
  0001b	e8 00 00 00 00	 call	 ??1?$basic_string@DU?$char_traits@D@std@@V?$allocator@D@2@@std@@QEAA@XZ ; std::basic_string<char,std::char_traits<char>,std::allocator<char> >::~basic_string<char,std::char_traits<char>,std::allocator<char> >
  00020	48 83 c4 28	 add	 rsp, 40			; 00000028H
  00024	5f		 pop	 rdi
  00025	5d		 pop	 rbp
  00026	c3		 ret	 0
?dtor$3@?0??mont@@YA?AV?$basic_string@DU?$char_traits@D@std@@V?$allocator@D@2@@std@@H@Z@4HA ENDP ; `mont'::`1'::dtor$3
text$x	ENDS
; Function compile flags: /Odtp /RTCsu /ZI
;	COMDAT text$x
text$x	SEGMENT
monthsess$ = 16
$T4 = 900
__$ArrayPad$ = 920
__$ReturnUdt$ = 960
month$ = 968
?dtor$4@?0??mont@@YA?AV?$basic_string@DU?$char_traits@D@std@@V?$allocator@D@2@@std@@H@Z@4HA PROC ; `mont'::`1'::dtor$4
  00000	48 89 4c 24 08	 mov	 QWORD PTR [rsp+8], rcx
  00005	48 89 54 24 10	 mov	 QWORD PTR [rsp+16], rdx
  0000a	55		 push	 rbp
  0000b	57		 push	 rdi
  0000c	48 83 ec 28	 sub	 rsp, 40			; 00000028H
  00010	48 8d 6a 20	 lea	 rbp, QWORD PTR [rdx+32]
  00014	48 8d 8d b0 00
	00 00		 lea	 rcx, QWORD PTR monthsess$[rbp+160]
  0001b	e8 00 00 00 00	 call	 ??1?$basic_string@DU?$char_traits@D@std@@V?$allocator@D@2@@std@@QEAA@XZ ; std::basic_string<char,std::char_traits<char>,std::allocator<char> >::~basic_string<char,std::char_traits<char>,std::allocator<char> >
  00020	48 83 c4 28	 add	 rsp, 40			; 00000028H
  00024	5f		 pop	 rdi
  00025	5d		 pop	 rbp
  00026	c3		 ret	 0
?dtor$4@?0??mont@@YA?AV?$basic_string@DU?$char_traits@D@std@@V?$allocator@D@2@@std@@H@Z@4HA ENDP ; `mont'::`1'::dtor$4
text$x	ENDS
; Function compile flags: /Odtp /RTCsu /ZI
;	COMDAT text$x
text$x	SEGMENT
monthsess$ = 16
$T4 = 900
__$ArrayPad$ = 920
__$ReturnUdt$ = 960
month$ = 968
?dtor$5@?0??mont@@YA?AV?$basic_string@DU?$char_traits@D@std@@V?$allocator@D@2@@std@@H@Z@4HA PROC ; `mont'::`1'::dtor$5
  00000	48 89 4c 24 08	 mov	 QWORD PTR [rsp+8], rcx
  00005	48 89 54 24 10	 mov	 QWORD PTR [rsp+16], rdx
  0000a	55		 push	 rbp
  0000b	57		 push	 rdi
  0000c	48 83 ec 28	 sub	 rsp, 40			; 00000028H
  00010	48 8d 6a 20	 lea	 rbp, QWORD PTR [rdx+32]
  00014	48 8d 8d d8 00
	00 00		 lea	 rcx, QWORD PTR monthsess$[rbp+200]
  0001b	e8 00 00 00 00	 call	 ??1?$basic_string@DU?$char_traits@D@std@@V?$allocator@D@2@@std@@QEAA@XZ ; std::basic_string<char,std::char_traits<char>,std::allocator<char> >::~basic_string<char,std::char_traits<char>,std::allocator<char> >
  00020	48 83 c4 28	 add	 rsp, 40			; 00000028H
  00024	5f		 pop	 rdi
  00025	5d		 pop	 rbp
  00026	c3		 ret	 0
?dtor$5@?0??mont@@YA?AV?$basic_string@DU?$char_traits@D@std@@V?$allocator@D@2@@std@@H@Z@4HA ENDP ; `mont'::`1'::dtor$5
text$x	ENDS
; Function compile flags: /Odtp /RTCsu /ZI
;	COMDAT text$x
text$x	SEGMENT
monthsess$ = 16
$T4 = 900
__$ArrayPad$ = 920
__$ReturnUdt$ = 960
month$ = 968
?dtor$6@?0??mont@@YA?AV?$basic_string@DU?$char_traits@D@std@@V?$allocator@D@2@@std@@H@Z@4HA PROC ; `mont'::`1'::dtor$6
  00000	48 89 4c 24 08	 mov	 QWORD PTR [rsp+8], rcx
  00005	48 89 54 24 10	 mov	 QWORD PTR [rsp+16], rdx
  0000a	55		 push	 rbp
  0000b	57		 push	 rdi
  0000c	48 83 ec 28	 sub	 rsp, 40			; 00000028H
  00010	48 8d 6a 20	 lea	 rbp, QWORD PTR [rdx+32]
  00014	48 8d 8d 00 01
	00 00		 lea	 rcx, QWORD PTR monthsess$[rbp+240]
  0001b	e8 00 00 00 00	 call	 ??1?$basic_string@DU?$char_traits@D@std@@V?$allocator@D@2@@std@@QEAA@XZ ; std::basic_string<char,std::char_traits<char>,std::allocator<char> >::~basic_string<char,std::char_traits<char>,std::allocator<char> >
  00020	48 83 c4 28	 add	 rsp, 40			; 00000028H
  00024	5f		 pop	 rdi
  00025	5d		 pop	 rbp
  00026	c3		 ret	 0
?dtor$6@?0??mont@@YA?AV?$basic_string@DU?$char_traits@D@std@@V?$allocator@D@2@@std@@H@Z@4HA ENDP ; `mont'::`1'::dtor$6
text$x	ENDS
; Function compile flags: /Odtp /RTCsu /ZI
;	COMDAT text$x
text$x	SEGMENT
monthsess$ = 16
$T4 = 900
__$ArrayPad$ = 920
__$ReturnUdt$ = 960
month$ = 968
?dtor$7@?0??mont@@YA?AV?$basic_string@DU?$char_traits@D@std@@V?$allocator@D@2@@std@@H@Z@4HA PROC ; `mont'::`1'::dtor$7
  00000	48 89 4c 24 08	 mov	 QWORD PTR [rsp+8], rcx
  00005	48 89 54 24 10	 mov	 QWORD PTR [rsp+16], rdx
  0000a	55		 push	 rbp
  0000b	57		 push	 rdi
  0000c	48 83 ec 28	 sub	 rsp, 40			; 00000028H
  00010	48 8d 6a 20	 lea	 rbp, QWORD PTR [rdx+32]
  00014	48 8d 8d 28 01
	00 00		 lea	 rcx, QWORD PTR monthsess$[rbp+280]
  0001b	e8 00 00 00 00	 call	 ??1?$basic_string@DU?$char_traits@D@std@@V?$allocator@D@2@@std@@QEAA@XZ ; std::basic_string<char,std::char_traits<char>,std::allocator<char> >::~basic_string<char,std::char_traits<char>,std::allocator<char> >
  00020	48 83 c4 28	 add	 rsp, 40			; 00000028H
  00024	5f		 pop	 rdi
  00025	5d		 pop	 rbp
  00026	c3		 ret	 0
?dtor$7@?0??mont@@YA?AV?$basic_string@DU?$char_traits@D@std@@V?$allocator@D@2@@std@@H@Z@4HA ENDP ; `mont'::`1'::dtor$7
text$x	ENDS
; Function compile flags: /Odtp /RTCsu /ZI
;	COMDAT text$x
text$x	SEGMENT
monthsess$ = 16
$T4 = 900
__$ArrayPad$ = 920
__$ReturnUdt$ = 960
month$ = 968
?dtor$8@?0??mont@@YA?AV?$basic_string@DU?$char_traits@D@std@@V?$allocator@D@2@@std@@H@Z@4HA PROC ; `mont'::`1'::dtor$8
  00000	48 89 4c 24 08	 mov	 QWORD PTR [rsp+8], rcx
  00005	48 89 54 24 10	 mov	 QWORD PTR [rsp+16], rdx
  0000a	55		 push	 rbp
  0000b	57		 push	 rdi
  0000c	48 83 ec 28	 sub	 rsp, 40			; 00000028H
  00010	48 8d 6a 20	 lea	 rbp, QWORD PTR [rdx+32]
  00014	48 8d 8d 50 01
	00 00		 lea	 rcx, QWORD PTR monthsess$[rbp+320]
  0001b	e8 00 00 00 00	 call	 ??1?$basic_string@DU?$char_traits@D@std@@V?$allocator@D@2@@std@@QEAA@XZ ; std::basic_string<char,std::char_traits<char>,std::allocator<char> >::~basic_string<char,std::char_traits<char>,std::allocator<char> >
  00020	48 83 c4 28	 add	 rsp, 40			; 00000028H
  00024	5f		 pop	 rdi
  00025	5d		 pop	 rbp
  00026	c3		 ret	 0
?dtor$8@?0??mont@@YA?AV?$basic_string@DU?$char_traits@D@std@@V?$allocator@D@2@@std@@H@Z@4HA ENDP ; `mont'::`1'::dtor$8
text$x	ENDS
; Function compile flags: /Odtp /RTCsu /ZI
;	COMDAT text$x
text$x	SEGMENT
monthsess$ = 16
$T4 = 900
__$ArrayPad$ = 920
__$ReturnUdt$ = 960
month$ = 968
?dtor$9@?0??mont@@YA?AV?$basic_string@DU?$char_traits@D@std@@V?$allocator@D@2@@std@@H@Z@4HA PROC ; `mont'::`1'::dtor$9
  00000	48 89 4c 24 08	 mov	 QWORD PTR [rsp+8], rcx
  00005	48 89 54 24 10	 mov	 QWORD PTR [rsp+16], rdx
  0000a	55		 push	 rbp
  0000b	57		 push	 rdi
  0000c	48 83 ec 28	 sub	 rsp, 40			; 00000028H
  00010	48 8d 6a 20	 lea	 rbp, QWORD PTR [rdx+32]
  00014	48 8d 8d 78 01
	00 00		 lea	 rcx, QWORD PTR monthsess$[rbp+360]
  0001b	e8 00 00 00 00	 call	 ??1?$basic_string@DU?$char_traits@D@std@@V?$allocator@D@2@@std@@QEAA@XZ ; std::basic_string<char,std::char_traits<char>,std::allocator<char> >::~basic_string<char,std::char_traits<char>,std::allocator<char> >
  00020	48 83 c4 28	 add	 rsp, 40			; 00000028H
  00024	5f		 pop	 rdi
  00025	5d		 pop	 rbp
  00026	c3		 ret	 0
?dtor$9@?0??mont@@YA?AV?$basic_string@DU?$char_traits@D@std@@V?$allocator@D@2@@std@@H@Z@4HA ENDP ; `mont'::`1'::dtor$9
text$x	ENDS
; Function compile flags: /Odtp /RTCsu /ZI
;	COMDAT text$x
text$x	SEGMENT
monthsess$ = 16
$T4 = 900
__$ArrayPad$ = 920
__$ReturnUdt$ = 960
month$ = 968
?dtor$10@?0??mont@@YA?AV?$basic_string@DU?$char_traits@D@std@@V?$allocator@D@2@@std@@H@Z@4HA PROC ; `mont'::`1'::dtor$10
  00000	48 89 4c 24 08	 mov	 QWORD PTR [rsp+8], rcx
  00005	48 89 54 24 10	 mov	 QWORD PTR [rsp+16], rdx
  0000a	55		 push	 rbp
  0000b	57		 push	 rdi
  0000c	48 83 ec 28	 sub	 rsp, 40			; 00000028H
  00010	48 8d 6a 20	 lea	 rbp, QWORD PTR [rdx+32]
  00014	48 8d 8d a0 01
	00 00		 lea	 rcx, QWORD PTR monthsess$[rbp+400]
  0001b	e8 00 00 00 00	 call	 ??1?$basic_string@DU?$char_traits@D@std@@V?$allocator@D@2@@std@@QEAA@XZ ; std::basic_string<char,std::char_traits<char>,std::allocator<char> >::~basic_string<char,std::char_traits<char>,std::allocator<char> >
  00020	48 83 c4 28	 add	 rsp, 40			; 00000028H
  00024	5f		 pop	 rdi
  00025	5d		 pop	 rbp
  00026	c3		 ret	 0
?dtor$10@?0??mont@@YA?AV?$basic_string@DU?$char_traits@D@std@@V?$allocator@D@2@@std@@H@Z@4HA ENDP ; `mont'::`1'::dtor$10
text$x	ENDS
; Function compile flags: /Odtp /RTCsu /ZI
;	COMDAT text$x
text$x	SEGMENT
monthsess$ = 16
$T4 = 900
__$ArrayPad$ = 920
__$ReturnUdt$ = 960
month$ = 968
?dtor$12@?0??mont@@YA?AV?$basic_string@DU?$char_traits@D@std@@V?$allocator@D@2@@std@@H@Z@4HA PROC ; `mont'::`1'::dtor$12
  00000	48 89 4c 24 08	 mov	 QWORD PTR [rsp+8], rcx
  00005	48 89 54 24 10	 mov	 QWORD PTR [rsp+16], rdx
  0000a	55		 push	 rbp
  0000b	57		 push	 rdi
  0000c	48 83 ec 28	 sub	 rsp, 40			; 00000028H
  00010	48 8d 6a 20	 lea	 rbp, QWORD PTR [rdx+32]
  00014	4c 8d 0d 00 00
	00 00		 lea	 r9, OFFSET FLAT:??1?$basic_string@DU?$char_traits@D@std@@V?$allocator@D@2@@std@@QEAA@XZ ; std::basic_string<char,std::char_traits<char>,std::allocator<char> >::~basic_string<char,std::char_traits<char>,std::allocator<char> >
  0001b	41 b8 0c 00 00
	00		 mov	 r8d, 12
  00021	ba 28 00 00 00	 mov	 edx, 40			; 00000028H
  00026	48 8d 4d 10	 lea	 rcx, QWORD PTR monthsess$[rbp]
  0002a	e8 00 00 00 00	 call	 ??_M@YAXPEAX_K1P6AX0@Z@Z
  0002f	48 83 c4 28	 add	 rsp, 40			; 00000028H
  00033	5f		 pop	 rdi
  00034	5d		 pop	 rbp
  00035	c3		 ret	 0
?dtor$12@?0??mont@@YA?AV?$basic_string@DU?$char_traits@D@std@@V?$allocator@D@2@@std@@H@Z@4HA ENDP ; `mont'::`1'::dtor$12
text$x	ENDS
; Function compile flags: /Odtp /RTCsu /ZI
;	COMDAT text$x
text$x	SEGMENT
monthsess$ = 16
$T4 = 900
__$ArrayPad$ = 920
__$ReturnUdt$ = 960
month$ = 968
?dtor$13@?0??mont@@YA?AV?$basic_string@DU?$char_traits@D@std@@V?$allocator@D@2@@std@@H@Z@4HA PROC ; `mont'::`1'::dtor$13
  00000	48 89 4c 24 08	 mov	 QWORD PTR [rsp+8], rcx
  00005	48 89 54 24 10	 mov	 QWORD PTR [rsp+16], rdx
  0000a	55		 push	 rbp
  0000b	57		 push	 rdi
  0000c	48 83 ec 28	 sub	 rsp, 40			; 00000028H
  00010	48 8d 6a 20	 lea	 rbp, QWORD PTR [rdx+32]
  00014	8b 85 84 03 00
	00		 mov	 eax, DWORD PTR $T4[rbp]
  0001a	83 e0 01	 and	 eax, 1
  0001d	85 c0		 test	 eax, eax
  0001f	74 13		 je	 SHORT $LN17@dtor$13
  00021	83 a5 84 03 00
	00 fe		 and	 DWORD PTR $T4[rbp], -2
  00028	48 8b 8d c0 03
	00 00		 mov	 rcx, QWORD PTR __$ReturnUdt$[rbp]
  0002f	e8 00 00 00 00	 call	 ??1?$basic_string@DU?$char_traits@D@std@@V?$allocator@D@2@@std@@QEAA@XZ ; std::basic_string<char,std::char_traits<char>,std::allocator<char> >::~basic_string<char,std::char_traits<char>,std::allocator<char> >
$LN17@dtor$13:
  00034	48 83 c4 28	 add	 rsp, 40			; 00000028H
  00038	5f		 pop	 rdi
  00039	5d		 pop	 rbp
  0003a	c3		 ret	 0
?dtor$13@?0??mont@@YA?AV?$basic_string@DU?$char_traits@D@std@@V?$allocator@D@2@@std@@H@Z@4HA ENDP ; `mont'::`1'::dtor$13
text$x	ENDS
; Function compile flags: /Odtp /RTCsu /ZI
; File C:\Program Files (x86)\Windows Kits\10\Include\10.0.22621.0\ucrt\time.h
;	COMDAT time
_TEXT	SEGMENT
_Time$ = 224
time	PROC						; COMDAT

; 551  :         {

  00000	48 89 4c 24 08	 mov	 QWORD PTR [rsp+8], rcx
  00005	55		 push	 rbp
  00006	57		 push	 rdi
  00007	48 81 ec e8 00
	00 00		 sub	 rsp, 232		; 000000e8H
  0000e	48 8d 6c 24 20	 lea	 rbp, QWORD PTR [rsp+32]
  00013	48 8d 0d 00 00
	00 00		 lea	 rcx, OFFSET FLAT:__0A9237D2_time@h
  0001a	e8 00 00 00 00	 call	 __CheckForDebuggerJustMyCode

; 552  :             return _time64(_Time);

  0001f	48 8b 8d e0 00
	00 00		 mov	 rcx, QWORD PTR _Time$[rbp]
  00026	ff 15 00 00 00
	00		 call	 QWORD PTR __imp__time64

; 553  :         }

  0002c	48 8d a5 c8 00
	00 00		 lea	 rsp, QWORD PTR [rbp+200]
  00033	5f		 pop	 rdi
  00034	5d		 pop	 rbp
  00035	c3		 ret	 0
time	ENDP
_TEXT	ENDS
; Function compile flags: /Odtp /RTCsu /ZI
; File C:\Program Files (x86)\Windows Kits\10\Include\10.0.22621.0\ucrt\time.h
;	COMDAT localtime
_TEXT	SEGMENT
_Time$ = 224
localtime PROC						; COMDAT

; 528  :         {

  00000	48 89 4c 24 08	 mov	 QWORD PTR [rsp+8], rcx
  00005	55		 push	 rbp
  00006	57		 push	 rdi
  00007	48 81 ec e8 00
	00 00		 sub	 rsp, 232		; 000000e8H
  0000e	48 8d 6c 24 20	 lea	 rbp, QWORD PTR [rsp+32]
  00013	48 8d 0d 00 00
	00 00		 lea	 rcx, OFFSET FLAT:__0A9237D2_time@h
  0001a	e8 00 00 00 00	 call	 __CheckForDebuggerJustMyCode

; 529  :             return _localtime64(_Time);

  0001f	48 8b 8d e0 00
	00 00		 mov	 rcx, QWORD PTR _Time$[rbp]
  00026	ff 15 00 00 00
	00		 call	 QWORD PTR __imp__localtime64

; 530  :         }

  0002c	48 8d a5 c8 00
	00 00		 lea	 rsp, QWORD PTR [rbp+200]
  00033	5f		 pop	 rdi
  00034	5d		 pop	 rbp
  00035	c3		 ret	 0
localtime ENDP
_TEXT	ENDS
; Function compile flags: /Odtp /RTCsu /ZI
;	COMDAT ??1?$_Compressed_pair@V?$allocator@D@std@@V?$_String_val@U?$_Simple_types@D@std@@@2@$00@std@@QEAA@XZ
_TEXT	SEGMENT
this$ = 224
??1?$_Compressed_pair@V?$allocator@D@std@@V?$_String_val@U?$_Simple_types@D@std@@@2@$00@std@@QEAA@XZ PROC ; std::_Compressed_pair<std::allocator<char>,std::_String_val<std::_Simple_types<char> >,1>::~_Compressed_pair<std::allocator<char>,std::_String_val<std::_Simple_types<char> >,1>, COMDAT
$LN3:
  00000	48 89 4c 24 08	 mov	 QWORD PTR [rsp+8], rcx
  00005	55		 push	 rbp
  00006	57		 push	 rdi
  00007	48 81 ec e8 00
	00 00		 sub	 rsp, 232		; 000000e8H
  0000e	48 8d 6c 24 20	 lea	 rbp, QWORD PTR [rsp+32]
  00013	48 8b 85 e0 00
	00 00		 mov	 rax, QWORD PTR this$[rbp]
  0001a	48 8b c8	 mov	 rcx, rax
  0001d	e8 00 00 00 00	 call	 ??1?$_String_val@U?$_Simple_types@D@std@@@std@@QEAA@XZ
  00022	48 8d a5 c8 00
	00 00		 lea	 rsp, QWORD PTR [rbp+200]
  00029	5f		 pop	 rdi
  0002a	5d		 pop	 rbp
  0002b	c3		 ret	 0
??1?$_Compressed_pair@V?$allocator@D@std@@V?$_String_val@U?$_Simple_types@D@std@@@2@$00@std@@QEAA@XZ ENDP ; std::_Compressed_pair<std::allocator<char>,std::_String_val<std::_Simple_types<char> >,1>::~_Compressed_pair<std::allocator<char>,std::_String_val<std::_Simple_types<char> >,1>
_TEXT	ENDS
; Function compile flags: /Odtp /RTCsu /ZI
; File C:\Program Files\Microsoft Visual Studio\2022\Community\VC\Tools\MSVC\14.37.32822\include\xmemory
;	COMDAT ?_Get_first@?$_Compressed_pair@V?$allocator@D@std@@V?$_String_val@U?$_Simple_types@D@std@@@2@$00@std@@QEBAAEBV?$allocator@D@2@XZ
_TEXT	SEGMENT
this$ = 224
?_Get_first@?$_Compressed_pair@V?$allocator@D@std@@V?$_String_val@U?$_Simple_types@D@std@@@2@$00@std@@QEBAAEBV?$allocator@D@2@XZ PROC ; std::_Compressed_pair<std::allocator<char>,std::_String_val<std::_Simple_types<char> >,1>::_Get_first, COMDAT

; 1526 :     constexpr const _Ty1& _Get_first() const noexcept {

$LN3:
  00000	48 89 4c 24 08	 mov	 QWORD PTR [rsp+8], rcx
  00005	55		 push	 rbp
  00006	57		 push	 rdi
  00007	48 81 ec e8 00
	00 00		 sub	 rsp, 232		; 000000e8H
  0000e	48 8d 6c 24 20	 lea	 rbp, QWORD PTR [rsp+32]
  00013	48 8d 0d 00 00
	00 00		 lea	 rcx, OFFSET FLAT:__A594BF75_xmemory
  0001a	e8 00 00 00 00	 call	 __CheckForDebuggerJustMyCode

; 1527 :         return *this;

  0001f	48 8b 85 e0 00
	00 00		 mov	 rax, QWORD PTR this$[rbp]

; 1528 :     }

  00026	48 8d a5 c8 00
	00 00		 lea	 rsp, QWORD PTR [rbp+200]
  0002d	5f		 pop	 rdi
  0002e	5d		 pop	 rbp
  0002f	c3		 ret	 0
?_Get_first@?$_Compressed_pair@V?$allocator@D@std@@V?$_String_val@U?$_Simple_types@D@std@@@2@$00@std@@QEBAAEBV?$allocator@D@2@XZ ENDP ; std::_Compressed_pair<std::allocator<char>,std::_String_val<std::_Simple_types<char> >,1>::_Get_first
_TEXT	ENDS
; Function compile flags: /Odtp /RTCsu /ZI
; File C:\Program Files\Microsoft Visual Studio\2022\Community\VC\Tools\MSVC\14.37.32822\include\xmemory
;	COMDAT ?_Get_first@?$_Compressed_pair@V?$allocator@D@std@@V?$_String_val@U?$_Simple_types@D@std@@@2@$00@std@@QEAAAEAV?$allocator@D@2@XZ
_TEXT	SEGMENT
this$ = 224
?_Get_first@?$_Compressed_pair@V?$allocator@D@std@@V?$_String_val@U?$_Simple_types@D@std@@@2@$00@std@@QEAAAEAV?$allocator@D@2@XZ PROC ; std::_Compressed_pair<std::allocator<char>,std::_String_val<std::_Simple_types<char> >,1>::_Get_first, COMDAT

; 1522 :     constexpr _Ty1& _Get_first() noexcept {

$LN3:
  00000	48 89 4c 24 08	 mov	 QWORD PTR [rsp+8], rcx
  00005	55		 push	 rbp
  00006	57		 push	 rdi
  00007	48 81 ec e8 00
	00 00		 sub	 rsp, 232		; 000000e8H
  0000e	48 8d 6c 24 20	 lea	 rbp, QWORD PTR [rsp+32]
  00013	48 8d 0d 00 00
	00 00		 lea	 rcx, OFFSET FLAT:__A594BF75_xmemory
  0001a	e8 00 00 00 00	 call	 __CheckForDebuggerJustMyCode

; 1523 :         return *this;

  0001f	48 8b 85 e0 00
	00 00		 mov	 rax, QWORD PTR this$[rbp]

; 1524 :     }

  00026	48 8d a5 c8 00
	00 00		 lea	 rsp, QWORD PTR [rbp+200]
  0002d	5f		 pop	 rdi
  0002e	5d		 pop	 rbp
  0002f	c3		 ret	 0
?_Get_first@?$_Compressed_pair@V?$allocator@D@std@@V?$_String_val@U?$_Simple_types@D@std@@@2@$00@std@@QEAAAEAV?$allocator@D@2@XZ ENDP ; std::_Compressed_pair<std::allocator<char>,std::_String_val<std::_Simple_types<char> >,1>::_Get_first
_TEXT	ENDS
; Function compile flags: /Odtp /RTCsu /ZI
; File C:\Program Files\Microsoft Visual Studio\2022\Community\VC\Tools\MSVC\14.37.32822\include\xstring
;	COMDAT ?_Getal@?$basic_string@DU?$char_traits@D@std@@V?$allocator@D@2@@std@@AEBAAEBV?$allocator@D@2@XZ
_TEXT	SEGMENT
this$ = 224
?_Getal@?$basic_string@DU?$char_traits@D@std@@V?$allocator@D@2@@std@@AEBAAEBV?$allocator@D@2@XZ PROC ; std::basic_string<char,std::char_traits<char>,std::allocator<char> >::_Getal, COMDAT

; 4861 :     _CONSTEXPR20 const _Alty& _Getal() const noexcept {

$LN3:
  00000	48 89 4c 24 08	 mov	 QWORD PTR [rsp+8], rcx
  00005	55		 push	 rbp
  00006	57		 push	 rdi
  00007	48 81 ec e8 00
	00 00		 sub	 rsp, 232		; 000000e8H
  0000e	48 8d 6c 24 20	 lea	 rbp, QWORD PTR [rsp+32]
  00013	48 8d 0d 00 00
	00 00		 lea	 rcx, OFFSET FLAT:__D14739E9_xstring
  0001a	e8 00 00 00 00	 call	 __CheckForDebuggerJustMyCode

; 4862 :         return _Mypair._Get_first();

  0001f	48 8b 85 e0 00
	00 00		 mov	 rax, QWORD PTR this$[rbp]
  00026	48 8b c8	 mov	 rcx, rax
  00029	e8 00 00 00 00	 call	 ?_Get_first@?$_Compressed_pair@V?$allocator@D@std@@V?$_String_val@U?$_Simple_types@D@std@@@2@$00@std@@QEBAAEBV?$allocator@D@2@XZ ; std::_Compressed_pair<std::allocator<char>,std::_String_val<std::_Simple_types<char> >,1>::_Get_first

; 4863 :     }

  0002e	48 8d a5 c8 00
	00 00		 lea	 rsp, QWORD PTR [rbp+200]
  00035	5f		 pop	 rdi
  00036	5d		 pop	 rbp
  00037	c3		 ret	 0
?_Getal@?$basic_string@DU?$char_traits@D@std@@V?$allocator@D@2@@std@@AEBAAEBV?$allocator@D@2@XZ ENDP ; std::basic_string<char,std::char_traits<char>,std::allocator<char> >::_Getal
_TEXT	ENDS
; Function compile flags: /Odtp /RTCsu /ZI
; File C:\Program Files\Microsoft Visual Studio\2022\Community\VC\Tools\MSVC\14.37.32822\include\xstring
;	COMDAT ?_Getal@?$basic_string@DU?$char_traits@D@std@@V?$allocator@D@2@@std@@AEAAAEAV?$allocator@D@2@XZ
_TEXT	SEGMENT
this$ = 224
?_Getal@?$basic_string@DU?$char_traits@D@std@@V?$allocator@D@2@@std@@AEAAAEAV?$allocator@D@2@XZ PROC ; std::basic_string<char,std::char_traits<char>,std::allocator<char> >::_Getal, COMDAT

; 4857 :     _CONSTEXPR20 _Alty& _Getal() noexcept {

$LN3:
  00000	48 89 4c 24 08	 mov	 QWORD PTR [rsp+8], rcx
  00005	55		 push	 rbp
  00006	57		 push	 rdi
  00007	48 81 ec e8 00
	00 00		 sub	 rsp, 232		; 000000e8H
  0000e	48 8d 6c 24 20	 lea	 rbp, QWORD PTR [rsp+32]
  00013	48 8d 0d 00 00
	00 00		 lea	 rcx, OFFSET FLAT:__D14739E9_xstring
  0001a	e8 00 00 00 00	 call	 __CheckForDebuggerJustMyCode

; 4858 :         return _Mypair._Get_first();

  0001f	48 8b 85 e0 00
	00 00		 mov	 rax, QWORD PTR this$[rbp]
  00026	48 8b c8	 mov	 rcx, rax
  00029	e8 00 00 00 00	 call	 ?_Get_first@?$_Compressed_pair@V?$allocator@D@std@@V?$_String_val@U?$_Simple_types@D@std@@@2@$00@std@@QEAAAEAV?$allocator@D@2@XZ ; std::_Compressed_pair<std::allocator<char>,std::_String_val<std::_Simple_types<char> >,1>::_Get_first

; 4859 :     }

  0002e	48 8d a5 c8 00
	00 00		 lea	 rsp, QWORD PTR [rbp+200]
  00035	5f		 pop	 rdi
  00036	5d		 pop	 rbp
  00037	c3		 ret	 0
?_Getal@?$basic_string@DU?$char_traits@D@std@@V?$allocator@D@2@@std@@AEAAAEAV?$allocator@D@2@XZ ENDP ; std::basic_string<char,std::char_traits<char>,std::allocator<char> >::_Getal
_TEXT	ENDS
; Function compile flags: /Odtp /RTCsu /ZI
; File C:\Program Files\Microsoft Visual Studio\2022\Community\VC\Tools\MSVC\14.37.32822\include\xstring
;	COMDAT ?_Tidy_deallocate@?$basic_string@DU?$char_traits@D@std@@V?$allocator@D@2@@std@@AEAAXXZ
_TEXT	SEGMENT
_My_data$ = 8
_Ptr$1 = 40
_Al$2 = 72
$T3 = 292
this$ = 352
?_Tidy_deallocate@?$basic_string@DU?$char_traits@D@std@@V?$allocator@D@2@@std@@AEAAXXZ PROC ; std::basic_string<char,std::char_traits<char>,std::allocator<char> >::_Tidy_deallocate, COMDAT

; 4829 :     _CONSTEXPR20 void _Tidy_deallocate() noexcept { // initialize buffer, deallocating any storage

$LN4:
  00000	48 89 4c 24 08	 mov	 QWORD PTR [rsp+8], rcx
  00005	55		 push	 rbp
  00006	57		 push	 rdi
  00007	48 81 ec 68 01
	00 00		 sub	 rsp, 360		; 00000168H
  0000e	48 8d 6c 24 20	 lea	 rbp, QWORD PTR [rsp+32]
  00013	48 8d 0d 00 00
	00 00		 lea	 rcx, OFFSET FLAT:__D14739E9_xstring
  0001a	e8 00 00 00 00	 call	 __CheckForDebuggerJustMyCode

; 4830 :         auto& _My_data = _Mypair._Myval2;

  0001f	48 8b 85 60 01
	00 00		 mov	 rax, QWORD PTR this$[rbp]
  00026	48 89 45 08	 mov	 QWORD PTR _My_data$[rbp], rax

; 4831 :         _My_data._Orphan_all();

  0002a	48 8b 4d 08	 mov	 rcx, QWORD PTR _My_data$[rbp]
  0002e	e8 00 00 00 00	 call	 ?_Orphan_all@_Container_base12@std@@QEAAXXZ ; std::_Container_base12::_Orphan_all

; 4832 :         if (_My_data._Large_string_engaged()) {

  00033	48 8b 4d 08	 mov	 rcx, QWORD PTR _My_data$[rbp]
  00037	e8 00 00 00 00	 call	 ?_Large_string_engaged@?$_String_val@U?$_Simple_types@D@std@@@std@@QEBA_NXZ ; std::_String_val<std::_Simple_types<char> >::_Large_string_engaged
  0003c	0f b6 c0	 movzx	 eax, al
  0003f	85 c0		 test	 eax, eax
  00041	74 50		 je	 SHORT $LN2@Tidy_deall

; 4833 :             _ASAN_STRING_REMOVE(*this);
; 4834 :             const pointer _Ptr = _My_data._Bx._Ptr;

  00043	48 8b 45 08	 mov	 rax, QWORD PTR _My_data$[rbp]
  00047	48 8b 40 08	 mov	 rax, QWORD PTR [rax+8]
  0004b	48 89 45 28	 mov	 QWORD PTR _Ptr$1[rbp], rax

; 4835 :             auto& _Al          = _Getal();

  0004f	48 8b 8d 60 01
	00 00		 mov	 rcx, QWORD PTR this$[rbp]
  00056	e8 00 00 00 00	 call	 ?_Getal@?$basic_string@DU?$char_traits@D@std@@V?$allocator@D@2@@std@@AEAAAEAV?$allocator@D@2@XZ ; std::basic_string<char,std::char_traits<char>,std::allocator<char> >::_Getal
  0005b	48 89 45 48	 mov	 QWORD PTR _Al$2[rbp], rax

; 4836 :             _Destroy_in_place(_My_data._Bx._Ptr);

  0005f	48 8b 45 08	 mov	 rax, QWORD PTR _My_data$[rbp]
  00063	48 83 c0 08	 add	 rax, 8
  00067	48 8b c8	 mov	 rcx, rax
  0006a	e8 00 00 00 00	 call	 ??$_Destroy_in_place@PEAD@std@@YAXAEAPEAD@Z ; std::_Destroy_in_place<char *>

; 4837 :             _My_data._Activate_SSO_buffer();

  0006f	48 8b 4d 08	 mov	 rcx, QWORD PTR _My_data$[rbp]
  00073	e8 00 00 00 00	 call	 ?_Activate_SSO_buffer@?$_String_val@U?$_Simple_types@D@std@@@std@@QEAAXXZ ; std::_String_val<std::_Simple_types<char> >::_Activate_SSO_buffer

; 4838 :             _Al.deallocate(_Ptr, _My_data._Myres + 1);

  00078	48 8b 45 08	 mov	 rax, QWORD PTR _My_data$[rbp]
  0007c	48 8b 40 20	 mov	 rax, QWORD PTR [rax+32]
  00080	48 ff c0	 inc	 rax
  00083	4c 8b c0	 mov	 r8, rax
  00086	48 8b 55 28	 mov	 rdx, QWORD PTR _Ptr$1[rbp]
  0008a	48 8b 4d 48	 mov	 rcx, QWORD PTR _Al$2[rbp]
  0008e	e8 00 00 00 00	 call	 ?deallocate@?$allocator@D@std@@QEAAXQEAD_K@Z ; std::allocator<char>::deallocate
$LN2@Tidy_deall:

; 4839 :         }
; 4840 : 
; 4841 :         _My_data._Mysize = 0;

  00093	48 8b 45 08	 mov	 rax, QWORD PTR _My_data$[rbp]
  00097	48 c7 40 18 00
	00 00 00	 mov	 QWORD PTR [rax+24], 0

; 4842 :         _My_data._Myres  = _BUF_SIZE - 1;

  0009f	48 8b 45 08	 mov	 rax, QWORD PTR _My_data$[rbp]
  000a3	48 c7 40 20 0f
	00 00 00	 mov	 QWORD PTR [rax+32], 15

; 4843 :         // the _Traits::assign is last so the codegen doesn't think the char write can alias this
; 4844 :         _Traits::assign(_My_data._Bx._Buf[0], _Elem());

  000ab	c6 85 24 01 00
	00 00		 mov	 BYTE PTR $T3[rbp], 0
  000b2	b8 01 00 00 00	 mov	 eax, 1
  000b7	48 6b c0 00	 imul	 rax, rax, 0
  000bb	48 8b 4d 08	 mov	 rcx, QWORD PTR _My_data$[rbp]
  000bf	48 8d 44 01 08	 lea	 rax, QWORD PTR [rcx+rax+8]
  000c4	48 8d 95 24 01
	00 00		 lea	 rdx, QWORD PTR $T3[rbp]
  000cb	48 8b c8	 mov	 rcx, rax
  000ce	e8 00 00 00 00	 call	 ?assign@?$_Narrow_char_traits@DH@std@@SAXAEADAEBD@Z ; std::_Narrow_char_traits<char,int>::assign
  000d3	90		 npad	 1

; 4845 :     }

  000d4	48 8d a5 48 01
	00 00		 lea	 rsp, QWORD PTR [rbp+328]
  000db	5f		 pop	 rdi
  000dc	5d		 pop	 rbp
  000dd	c3		 ret	 0
?_Tidy_deallocate@?$basic_string@DU?$char_traits@D@std@@V?$allocator@D@2@@std@@AEAAXXZ ENDP ; std::basic_string<char,std::char_traits<char>,std::allocator<char> >::_Tidy_deallocate
_TEXT	ENDS
; Function compile flags: /Odtp /RTCsu /ZI
; File C:\Program Files\Microsoft Visual Studio\2022\Community\VC\Tools\MSVC\14.37.32822\include\xstring
;	COMDAT ?_Calculate_growth@?$basic_string@DU?$char_traits@D@std@@V?$allocator@D@2@@std@@AEBA_K_K@Z
_TEXT	SEGMENT
this$ = 224
_Requested$ = 232
?_Calculate_growth@?$basic_string@DU?$char_traits@D@std@@V?$allocator@D@2@@std@@AEBA_K_K@Z PROC ; std::basic_string<char,std::char_traits<char>,std::allocator<char> >::_Calculate_growth, COMDAT

; 4726 :     _NODISCARD _CONSTEXPR20 size_type _Calculate_growth(const size_type _Requested) const noexcept {

$LN3:
  00000	48 89 54 24 10	 mov	 QWORD PTR [rsp+16], rdx
  00005	48 89 4c 24 08	 mov	 QWORD PTR [rsp+8], rcx
  0000a	55		 push	 rbp
  0000b	57		 push	 rdi
  0000c	48 81 ec e8 00
	00 00		 sub	 rsp, 232		; 000000e8H
  00013	48 8d 6c 24 20	 lea	 rbp, QWORD PTR [rsp+32]
  00018	48 8d 0d 00 00
	00 00		 lea	 rcx, OFFSET FLAT:__D14739E9_xstring
  0001f	e8 00 00 00 00	 call	 __CheckForDebuggerJustMyCode

; 4727 :         return _Calculate_growth(_Requested, _Mypair._Myval2._Myres, max_size());

  00024	48 8b 8d e0 00
	00 00		 mov	 rcx, QWORD PTR this$[rbp]
  0002b	e8 00 00 00 00	 call	 ?max_size@?$basic_string@DU?$char_traits@D@std@@V?$allocator@D@2@@std@@QEBA_KXZ ; std::basic_string<char,std::char_traits<char>,std::allocator<char> >::max_size
  00030	4c 8b c0	 mov	 r8, rax
  00033	48 8b 85 e0 00
	00 00		 mov	 rax, QWORD PTR this$[rbp]
  0003a	48 8b 50 20	 mov	 rdx, QWORD PTR [rax+32]
  0003e	48 8b 8d e8 00
	00 00		 mov	 rcx, QWORD PTR _Requested$[rbp]
  00045	e8 00 00 00 00	 call	 ?_Calculate_growth@?$basic_string@DU?$char_traits@D@std@@V?$allocator@D@2@@std@@CA_K_K00@Z ; std::basic_string<char,std::char_traits<char>,std::allocator<char> >::_Calculate_growth

; 4728 :     }

  0004a	48 8d a5 c8 00
	00 00		 lea	 rsp, QWORD PTR [rbp+200]
  00051	5f		 pop	 rdi
  00052	5d		 pop	 rbp
  00053	c3		 ret	 0
?_Calculate_growth@?$basic_string@DU?$char_traits@D@std@@V?$allocator@D@2@@std@@AEBA_K_K@Z ENDP ; std::basic_string<char,std::char_traits<char>,std::allocator<char> >::_Calculate_growth
_TEXT	ENDS
; Function compile flags: /Odtp /RTCsu /ZI
; File C:\Program Files\Microsoft Visual Studio\2022\Community\VC\Tools\MSVC\14.37.32822\include\xstring
;	COMDAT ?_Calculate_growth@?$basic_string@DU?$char_traits@D@std@@V?$allocator@D@2@@std@@CA_K_K00@Z
_TEXT	SEGMENT
_Masked$ = 8
$T4 = 232
__$ArrayPad$ = 248
_Requested$ = 288
_Old$ = 296
_Max$ = 304
?_Calculate_growth@?$basic_string@DU?$char_traits@D@std@@V?$allocator@D@2@@std@@CA_K_K00@Z PROC ; std::basic_string<char,std::char_traits<char>,std::allocator<char> >::_Calculate_growth, COMDAT

; 4713 :         const size_type _Requested, const size_type _Old, const size_type _Max) noexcept {

$LN5:
  00000	4c 89 44 24 18	 mov	 QWORD PTR [rsp+24], r8
  00005	48 89 54 24 10	 mov	 QWORD PTR [rsp+16], rdx
  0000a	48 89 4c 24 08	 mov	 QWORD PTR [rsp+8], rcx
  0000f	55		 push	 rbp
  00010	57		 push	 rdi
  00011	48 81 ec 28 01
	00 00		 sub	 rsp, 296		; 00000128H
  00018	48 8d 6c 24 20	 lea	 rbp, QWORD PTR [rsp+32]
  0001d	48 8d 7c 24 20	 lea	 rdi, QWORD PTR [rsp+32]
  00022	b9 12 00 00 00	 mov	 ecx, 18
  00027	b8 cc cc cc cc	 mov	 eax, -858993460		; ccccccccH
  0002c	f3 ab		 rep stosd
  0002e	48 8b 8c 24 48
	01 00 00	 mov	 rcx, QWORD PTR [rsp+328]
  00036	48 8b 05 00 00
	00 00		 mov	 rax, QWORD PTR __security_cookie
  0003d	48 33 c5	 xor	 rax, rbp
  00040	48 89 85 f8 00
	00 00		 mov	 QWORD PTR __$ArrayPad$[rbp], rax
  00047	48 8d 0d 00 00
	00 00		 lea	 rcx, OFFSET FLAT:__D14739E9_xstring
  0004e	e8 00 00 00 00	 call	 __CheckForDebuggerJustMyCode

; 4714 :         const size_type _Masked = _Requested | _ALLOC_MASK;

  00053	48 8b 85 20 01
	00 00		 mov	 rax, QWORD PTR _Requested$[rbp]
  0005a	48 83 c8 0f	 or	 rax, 15
  0005e	48 89 45 08	 mov	 QWORD PTR _Masked$[rbp], rax

; 4715 :         if (_Masked > _Max) { // the mask overflows, settle for max_size()

  00062	48 8b 85 30 01
	00 00		 mov	 rax, QWORD PTR _Max$[rbp]
  00069	48 39 45 08	 cmp	 QWORD PTR _Masked$[rbp], rax
  0006d	76 09		 jbe	 SHORT $LN2@Calculate_

; 4716 :             return _Max;

  0006f	48 8b 85 30 01
	00 00		 mov	 rax, QWORD PTR _Max$[rbp]
  00076	eb 68		 jmp	 SHORT $LN1@Calculate_
$LN2@Calculate_:

; 4717 :         }
; 4718 : 
; 4719 :         if (_Old > _Max - _Old / 2) { // similarly, geometric overflows

  00078	33 d2		 xor	 edx, edx
  0007a	48 8b 85 28 01
	00 00		 mov	 rax, QWORD PTR _Old$[rbp]
  00081	b9 02 00 00 00	 mov	 ecx, 2
  00086	48 f7 f1	 div	 rcx
  00089	48 8b 8d 30 01
	00 00		 mov	 rcx, QWORD PTR _Max$[rbp]
  00090	48 2b c8	 sub	 rcx, rax
  00093	48 8b c1	 mov	 rax, rcx
  00096	48 39 85 28 01
	00 00		 cmp	 QWORD PTR _Old$[rbp], rax
  0009d	76 09		 jbe	 SHORT $LN3@Calculate_

; 4720 :             return _Max;

  0009f	48 8b 85 30 01
	00 00		 mov	 rax, QWORD PTR _Max$[rbp]
  000a6	eb 38		 jmp	 SHORT $LN1@Calculate_
$LN3@Calculate_:

; 4721 :         }
; 4722 : 
; 4723 :         return (_STD max)(_Masked, _Old + _Old / 2);

  000a8	33 d2		 xor	 edx, edx
  000aa	48 8b 85 28 01
	00 00		 mov	 rax, QWORD PTR _Old$[rbp]
  000b1	b9 02 00 00 00	 mov	 ecx, 2
  000b6	48 f7 f1	 div	 rcx
  000b9	48 8b 8d 28 01
	00 00		 mov	 rcx, QWORD PTR _Old$[rbp]
  000c0	48 03 c8	 add	 rcx, rax
  000c3	48 8b c1	 mov	 rax, rcx
  000c6	48 89 85 e8 00
	00 00		 mov	 QWORD PTR $T4[rbp], rax
  000cd	48 8d 95 e8 00
	00 00		 lea	 rdx, QWORD PTR $T4[rbp]
  000d4	48 8d 4d 08	 lea	 rcx, QWORD PTR _Masked$[rbp]
  000d8	e8 00 00 00 00	 call	 ??$max@_K@std@@YAAEB_KAEB_K0@Z ; std::max<unsigned __int64>
  000dd	48 8b 00	 mov	 rax, QWORD PTR [rax]
$LN1@Calculate_:

; 4724 :     }

  000e0	48 8b f8	 mov	 rdi, rax
  000e3	48 8d 4d e0	 lea	 rcx, QWORD PTR [rbp-32]
  000e7	48 8d 15 00 00
	00 00		 lea	 rdx, OFFSET FLAT:?_Calculate_growth@?$basic_string@DU?$char_traits@D@std@@V?$allocator@D@2@@std@@CA_K_K00@Z$rtcFrameData
  000ee	e8 00 00 00 00	 call	 _RTC_CheckStackVars
  000f3	48 8b c7	 mov	 rax, rdi
  000f6	48 8b 8d f8 00
	00 00		 mov	 rcx, QWORD PTR __$ArrayPad$[rbp]
  000fd	48 33 cd	 xor	 rcx, rbp
  00100	e8 00 00 00 00	 call	 __security_check_cookie
  00105	48 8d a5 08 01
	00 00		 lea	 rsp, QWORD PTR [rbp+264]
  0010c	5f		 pop	 rdi
  0010d	5d		 pop	 rbp
  0010e	c3		 ret	 0
?_Calculate_growth@?$basic_string@DU?$char_traits@D@std@@V?$allocator@D@2@@std@@CA_K_K00@Z ENDP ; std::basic_string<char,std::char_traits<char>,std::allocator<char> >::_Calculate_growth
_TEXT	ENDS
; Function compile flags: /Odtp /RTCsu /ZI
; File C:\Program Files\Microsoft Visual Studio\2022\Community\VC\Tools\MSVC\14.37.32822\include\xstring
;	COMDAT ?max_size@?$basic_string@DU?$char_traits@D@std@@V?$allocator@D@2@@std@@QEBA_KXZ
_TEXT	SEGMENT
_Alloc_max$ = 8
_Storage_max$ = 40
$T4 = 264
$T5 = 296
$T6 = 328
__$ArrayPad$ = 344
this$ = 384
?max_size@?$basic_string@DU?$char_traits@D@std@@V?$allocator@D@2@@std@@QEBA_KXZ PROC ; std::basic_string<char,std::char_traits<char>,std::allocator<char> >::max_size, COMDAT

; 4128 :     _NODISCARD _CONSTEXPR20 size_type max_size() const noexcept {

$LN3:
  00000	48 89 4c 24 08	 mov	 QWORD PTR [rsp+8], rcx
  00005	55		 push	 rbp
  00006	57		 push	 rdi
  00007	48 81 ec 88 01
	00 00		 sub	 rsp, 392		; 00000188H
  0000e	48 8d 6c 24 20	 lea	 rbp, QWORD PTR [rsp+32]
  00013	48 8d 7c 24 20	 lea	 rdi, QWORD PTR [rsp+32]
  00018	b9 2a 00 00 00	 mov	 ecx, 42			; 0000002aH
  0001d	b8 cc cc cc cc	 mov	 eax, -858993460		; ccccccccH
  00022	f3 ab		 rep stosd
  00024	48 8b 8c 24 a8
	01 00 00	 mov	 rcx, QWORD PTR [rsp+424]
  0002c	48 8b 05 00 00
	00 00		 mov	 rax, QWORD PTR __security_cookie
  00033	48 33 c5	 xor	 rax, rbp
  00036	48 89 85 58 01
	00 00		 mov	 QWORD PTR __$ArrayPad$[rbp], rax
  0003d	48 8d 0d 00 00
	00 00		 lea	 rcx, OFFSET FLAT:__D14739E9_xstring
  00044	e8 00 00 00 00	 call	 __CheckForDebuggerJustMyCode

; 4129 :         const size_type _Alloc_max   = _Alty_traits::max_size(_Getal());

  00049	48 8b 8d 80 01
	00 00		 mov	 rcx, QWORD PTR this$[rbp]
  00050	e8 00 00 00 00	 call	 ?_Getal@?$basic_string@DU?$char_traits@D@std@@V?$allocator@D@2@@std@@AEBAAEBV?$allocator@D@2@XZ ; std::basic_string<char,std::char_traits<char>,std::allocator<char> >::_Getal
  00055	48 8b c8	 mov	 rcx, rax
  00058	e8 00 00 00 00	 call	 ?max_size@?$_Default_allocator_traits@V?$allocator@D@std@@@std@@SA_KAEBV?$allocator@D@2@@Z ; std::_Default_allocator_traits<std::allocator<char> >::max_size
  0005d	48 89 45 08	 mov	 QWORD PTR _Alloc_max$[rbp], rax

; 4130 :         const size_type _Storage_max = // can always store small string

  00061	48 c7 85 08 01
	00 00 10 00 00
	00		 mov	 QWORD PTR $T4[rbp], 16
  0006c	48 8d 95 08 01
	00 00		 lea	 rdx, QWORD PTR $T4[rbp]
  00073	48 8d 4d 08	 lea	 rcx, QWORD PTR _Alloc_max$[rbp]
  00077	e8 00 00 00 00	 call	 ??$max@_K@std@@YAAEB_KAEB_K0@Z ; std::max<unsigned __int64>
  0007c	48 8b 00	 mov	 rax, QWORD PTR [rax]
  0007f	48 89 45 28	 mov	 QWORD PTR _Storage_max$[rbp], rax

; 4131 :             (_STD max)(_Alloc_max, static_cast<size_type>(_BUF_SIZE));
; 4132 :         return (_STD min)(static_cast<size_type>((numeric_limits<difference_type>::max)()),

  00083	48 8b 45 28	 mov	 rax, QWORD PTR _Storage_max$[rbp]
  00087	48 ff c8	 dec	 rax
  0008a	48 89 85 28 01
	00 00		 mov	 QWORD PTR $T5[rbp], rax
  00091	e8 00 00 00 00	 call	 ?max@?$numeric_limits@_J@std@@SA_JXZ ; std::numeric_limits<__int64>::max
  00096	48 89 85 48 01
	00 00		 mov	 QWORD PTR $T6[rbp], rax
  0009d	48 8d 95 28 01
	00 00		 lea	 rdx, QWORD PTR $T5[rbp]
  000a4	48 8d 8d 48 01
	00 00		 lea	 rcx, QWORD PTR $T6[rbp]
  000ab	e8 00 00 00 00	 call	 ??$min@_K@std@@YAAEB_KAEB_K0@Z ; std::min<unsigned __int64>
  000b0	48 8b 00	 mov	 rax, QWORD PTR [rax]

; 4133 :             _Storage_max - 1 // -1 is for null terminator and/or npos
; 4134 :         );
; 4135 :     }

  000b3	48 8b f8	 mov	 rdi, rax
  000b6	48 8d 4d e0	 lea	 rcx, QWORD PTR [rbp-32]
  000ba	48 8d 15 00 00
	00 00		 lea	 rdx, OFFSET FLAT:?max_size@?$basic_string@DU?$char_traits@D@std@@V?$allocator@D@2@@std@@QEBA_KXZ$rtcFrameData
  000c1	e8 00 00 00 00	 call	 _RTC_CheckStackVars
  000c6	48 8b c7	 mov	 rax, rdi
  000c9	48 8b 8d 58 01
	00 00		 mov	 rcx, QWORD PTR __$ArrayPad$[rbp]
  000d0	48 33 cd	 xor	 rcx, rbp
  000d3	e8 00 00 00 00	 call	 __security_check_cookie
  000d8	48 8d a5 68 01
	00 00		 lea	 rsp, QWORD PTR [rbp+360]
  000df	5f		 pop	 rdi
  000e0	5d		 pop	 rbp
  000e1	c3		 ret	 0
?max_size@?$basic_string@DU?$char_traits@D@std@@V?$allocator@D@2@@std@@QEBA_KXZ ENDP ; std::basic_string<char,std::char_traits<char>,std::allocator<char> >::max_size
_TEXT	ENDS
; Function compile flags: /Odtp /RTCsu /ZI
; File C:\Program Files\Microsoft Visual Studio\2022\Community\VC\Tools\MSVC\14.37.32822\include\xstring
;	COMDAT ?size@?$basic_string@DU?$char_traits@D@std@@V?$allocator@D@2@@std@@QEBA_KXZ
_TEXT	SEGMENT
this$ = 224
?size@?$basic_string@DU?$char_traits@D@std@@V?$allocator@D@2@@std@@QEBA_KXZ PROC ; std::basic_string<char,std::char_traits<char>,std::allocator<char> >::size, COMDAT

; 4124 :     _NODISCARD _CONSTEXPR20 size_type size() const noexcept {

$LN3:
  00000	48 89 4c 24 08	 mov	 QWORD PTR [rsp+8], rcx
  00005	55		 push	 rbp
  00006	57		 push	 rdi
  00007	48 81 ec e8 00
	00 00		 sub	 rsp, 232		; 000000e8H
  0000e	48 8d 6c 24 20	 lea	 rbp, QWORD PTR [rsp+32]
  00013	48 8d 0d 00 00
	00 00		 lea	 rcx, OFFSET FLAT:__D14739E9_xstring
  0001a	e8 00 00 00 00	 call	 __CheckForDebuggerJustMyCode

; 4125 :         return _Mypair._Myval2._Mysize;

  0001f	48 8b 85 e0 00
	00 00		 mov	 rax, QWORD PTR this$[rbp]
  00026	48 8b 40 18	 mov	 rax, QWORD PTR [rax+24]

; 4126 :     }

  0002a	48 8d a5 c8 00
	00 00		 lea	 rsp, QWORD PTR [rbp+200]
  00031	5f		 pop	 rdi
  00032	5d		 pop	 rbp
  00033	c3		 ret	 0
?size@?$basic_string@DU?$char_traits@D@std@@V?$allocator@D@2@@std@@QEBA_KXZ ENDP ; std::basic_string<char,std::char_traits<char>,std::allocator<char> >::size
_TEXT	ENDS
; Function compile flags: /Odtp /RTCsu /ZI
; File C:\Program Files\Microsoft Visual Studio\2022\Community\VC\Tools\MSVC\14.37.32822\include\xstring
;	COMDAT ?data@?$basic_string@DU?$char_traits@D@std@@V?$allocator@D@2@@std@@QEBAPEBDXZ
_TEXT	SEGMENT
this$ = 224
?data@?$basic_string@DU?$char_traits@D@std@@V?$allocator@D@2@@std@@QEBAPEBDXZ PROC ; std::basic_string<char,std::char_traits<char>,std::allocator<char> >::data, COMDAT

; 4110 :     _NODISCARD _CONSTEXPR20 _Ret_z_ const _Elem* data() const noexcept {

$LN3:
  00000	48 89 4c 24 08	 mov	 QWORD PTR [rsp+8], rcx
  00005	55		 push	 rbp
  00006	57		 push	 rdi
  00007	48 81 ec e8 00
	00 00		 sub	 rsp, 232		; 000000e8H
  0000e	48 8d 6c 24 20	 lea	 rbp, QWORD PTR [rsp+32]
  00013	48 8d 0d 00 00
	00 00		 lea	 rcx, OFFSET FLAT:__D14739E9_xstring
  0001a	e8 00 00 00 00	 call	 __CheckForDebuggerJustMyCode

; 4111 :         return _Mypair._Myval2._Myptr();

  0001f	48 8b 85 e0 00
	00 00		 mov	 rax, QWORD PTR this$[rbp]
  00026	48 8b c8	 mov	 rcx, rax
  00029	e8 00 00 00 00	 call	 ?_Myptr@?$_String_val@U?$_Simple_types@D@std@@@std@@QEBAPEBDXZ ; std::_String_val<std::_Simple_types<char> >::_Myptr

; 4112 :     }

  0002e	48 8d a5 c8 00
	00 00		 lea	 rsp, QWORD PTR [rbp+200]
  00035	5f		 pop	 rdi
  00036	5d		 pop	 rbp
  00037	c3		 ret	 0
?data@?$basic_string@DU?$char_traits@D@std@@V?$allocator@D@2@@std@@QEBAPEBDXZ ENDP ; std::basic_string<char,std::char_traits<char>,std::allocator<char> >::data
_TEXT	ENDS
; Function compile flags: /Odtp /RTCsu /ZI
; File C:\Program Files\Microsoft Visual Studio\2022\Community\VC\Tools\MSVC\14.37.32822\include\xstring
;	COMDAT ??1?$basic_string@DU?$char_traits@D@std@@V?$allocator@D@2@@std@@QEAA@XZ
_TEXT	SEGMENT
_Alproxy$ = 8
$S4$ = 36
_To_delete$ = 72
__$ArrayPad$ = 280
this$ = 320
??1?$basic_string@DU?$char_traits@D@std@@V?$allocator@D@2@@std@@QEAA@XZ PROC ; std::basic_string<char,std::char_traits<char>,std::allocator<char> >::~basic_string<char,std::char_traits<char>,std::allocator<char> >, COMDAT

; 3118 :     _CONSTEXPR20 ~basic_string() noexcept {

$LN3:
  00000	48 89 4c 24 08	 mov	 QWORD PTR [rsp+8], rcx
  00005	55		 push	 rbp
  00006	57		 push	 rdi
  00007	48 81 ec 48 01
	00 00		 sub	 rsp, 328		; 00000148H
  0000e	48 8d 6c 24 20	 lea	 rbp, QWORD PTR [rsp+32]
  00013	48 8d 7c 24 20	 lea	 rdi, QWORD PTR [rsp+32]
  00018	b9 1a 00 00 00	 mov	 ecx, 26
  0001d	b8 cc cc cc cc	 mov	 eax, -858993460		; ccccccccH
  00022	f3 ab		 rep stosd
  00024	48 8b 8c 24 68
	01 00 00	 mov	 rcx, QWORD PTR [rsp+360]
  0002c	48 8b 05 00 00
	00 00		 mov	 rax, QWORD PTR __security_cookie
  00033	48 33 c5	 xor	 rax, rbp
  00036	48 89 85 18 01
	00 00		 mov	 QWORD PTR __$ArrayPad$[rbp], rax
  0003d	48 8d 0d 00 00
	00 00		 lea	 rcx, OFFSET FLAT:__D14739E9_xstring
  00044	e8 00 00 00 00	 call	 __CheckForDebuggerJustMyCode

; 3119 :         _Tidy_deallocate();

  00049	48 8b 8d 40 01
	00 00		 mov	 rcx, QWORD PTR this$[rbp]
  00050	e8 00 00 00 00	 call	 ?_Tidy_deallocate@?$basic_string@DU?$char_traits@D@std@@V?$allocator@D@2@@std@@AEAAXXZ ; std::basic_string<char,std::char_traits<char>,std::allocator<char> >::_Tidy_deallocate

; 3120 : #if _ITERATOR_DEBUG_LEVEL != 0
; 3121 :         auto&& _Alproxy          = _GET_PROXY_ALLOCATOR(_Alty, _Getal());

  00055	48 8b 8d 40 01
	00 00		 mov	 rcx, QWORD PTR this$[rbp]
  0005c	e8 00 00 00 00	 call	 ?_Getal@?$basic_string@DU?$char_traits@D@std@@V?$allocator@D@2@@std@@AEAAAEAV?$allocator@D@2@XZ ; std::basic_string<char,std::char_traits<char>,std::allocator<char> >::_Getal
  00061	48 8b d0	 mov	 rdx, rax
  00064	48 8d 4d 24	 lea	 rcx, QWORD PTR $S4$[rbp]
  00068	e8 00 00 00 00	 call	 ??$?0D@?$allocator@U_Container_proxy@std@@@std@@QEAA@AEBV?$allocator@D@1@@Z ; std::allocator<std::_Container_proxy>::allocator<std::_Container_proxy><char>
  0006d	48 8d 45 24	 lea	 rax, QWORD PTR $S4$[rbp]
  00071	48 89 45 08	 mov	 QWORD PTR _Alproxy$[rbp], rax

; 3122 :         const auto _To_delete    = _Mypair._Myval2._Myproxy;

  00075	48 8b 85 40 01
	00 00		 mov	 rax, QWORD PTR this$[rbp]
  0007c	48 8b 00	 mov	 rax, QWORD PTR [rax]
  0007f	48 89 45 48	 mov	 QWORD PTR _To_delete$[rbp], rax

; 3123 :         _Mypair._Myval2._Myproxy = nullptr;

  00083	48 8b 85 40 01
	00 00		 mov	 rax, QWORD PTR this$[rbp]
  0008a	48 c7 00 00 00
	00 00		 mov	 QWORD PTR [rax], 0

; 3124 :         _Delete_plain_internal(_Alproxy, _To_delete);

  00091	48 8b 55 48	 mov	 rdx, QWORD PTR _To_delete$[rbp]
  00095	48 8b 4d 08	 mov	 rcx, QWORD PTR _Alproxy$[rbp]
  00099	e8 00 00 00 00	 call	 ??$_Delete_plain_internal@V?$allocator@U_Container_proxy@std@@@std@@@std@@YAXAEAV?$allocator@U_Container_proxy@std@@@0@QEAU_Container_proxy@0@@Z ; std::_Delete_plain_internal<std::allocator<std::_Container_proxy> >

; 3125 : #endif // _ITERATOR_DEBUG_LEVEL != 0
; 3126 :     }

  0009e	48 8b 85 40 01
	00 00		 mov	 rax, QWORD PTR this$[rbp]
  000a5	48 8b c8	 mov	 rcx, rax
  000a8	e8 00 00 00 00	 call	 ??1?$_Compressed_pair@V?$allocator@D@std@@V?$_String_val@U?$_Simple_types@D@std@@@2@$00@std@@QEAA@XZ
  000ad	48 8d 4d e0	 lea	 rcx, QWORD PTR [rbp-32]
  000b1	48 8d 15 00 00
	00 00		 lea	 rdx, OFFSET FLAT:??1?$basic_string@DU?$char_traits@D@std@@V?$allocator@D@2@@std@@QEAA@XZ$rtcFrameData
  000b8	e8 00 00 00 00	 call	 _RTC_CheckStackVars
  000bd	48 8b 8d 18 01
	00 00		 mov	 rcx, QWORD PTR __$ArrayPad$[rbp]
  000c4	48 33 cd	 xor	 rcx, rbp
  000c7	e8 00 00 00 00	 call	 __security_check_cookie
  000cc	48 8d a5 28 01
	00 00		 lea	 rsp, QWORD PTR [rbp+296]
  000d3	5f		 pop	 rdi
  000d4	5d		 pop	 rbp
  000d5	c3		 ret	 0
??1?$basic_string@DU?$char_traits@D@std@@V?$allocator@D@2@@std@@QEAA@XZ ENDP ; std::basic_string<char,std::char_traits<char>,std::allocator<char> >::~basic_string<char,std::char_traits<char>,std::allocator<char> >
_TEXT	ENDS
; Function compile flags: /Odtp /RTCsu /ZI
; File C:\Program Files\Microsoft Visual Studio\2022\Community\VC\Tools\MSVC\14.37.32822\include\xstring
;	COMDAT ?_Start_element_lifetimes@?$basic_string@DU?$char_traits@D@std@@V?$allocator@D@2@@std@@CAXQEAD_K@Z
_TEXT	SEGMENT
_Ptr$ = 224
_Size$ = 232
?_Start_element_lifetimes@?$basic_string@DU?$char_traits@D@std@@V?$allocator@D@2@@std@@CAXQEAD_K@Z PROC ; std::basic_string<char,std::char_traits<char>,std::allocator<char> >::_Start_element_lifetimes, COMDAT

; 2592 :     static constexpr void _Start_element_lifetimes(_Elem* const _Ptr, const size_type _Size) {

$LN3:
  00000	48 89 54 24 10	 mov	 QWORD PTR [rsp+16], rdx
  00005	48 89 4c 24 08	 mov	 QWORD PTR [rsp+8], rcx
  0000a	55		 push	 rbp
  0000b	57		 push	 rdi
  0000c	48 81 ec e8 00
	00 00		 sub	 rsp, 232		; 000000e8H
  00013	48 8d 6c 24 20	 lea	 rbp, QWORD PTR [rsp+32]
  00018	48 8d 0d 00 00
	00 00		 lea	 rcx, OFFSET FLAT:__D14739E9_xstring
  0001f	e8 00 00 00 00	 call	 __CheckForDebuggerJustMyCode

; 2593 :         // Start element lifetimes to avoid UB. This is a more general mechanism than _String_val::_Activate_SSO_buffer,
; 2594 :         // but likely more impactful to throughput.
; 2595 : #if _HAS_CXX20
; 2596 :         if (_STD is_constant_evaluated()) {
; 2597 :             for (size_type _Idx = 0; _Idx < _Size; ++_Idx) {
; 2598 :                 _STD construct_at(_Ptr + _Idx);
; 2599 :             }
; 2600 :         }
; 2601 : #else // ^^^ C++20-or-later / pre-C++20 vvv
; 2602 :         (void) _Ptr;
; 2603 :         (void) _Size;
; 2604 : #endif // _HAS_CXX20
; 2605 :     }

  00024	48 8d a5 c8 00
	00 00		 lea	 rsp, QWORD PTR [rbp+200]
  0002b	5f		 pop	 rdi
  0002c	5d		 pop	 rbp
  0002d	c3		 ret	 0
?_Start_element_lifetimes@?$basic_string@DU?$char_traits@D@std@@V?$allocator@D@2@@std@@CAXQEAD_K@Z ENDP ; std::basic_string<char,std::char_traits<char>,std::allocator<char> >::_Start_element_lifetimes
_TEXT	ENDS
; Function compile flags: /Odtp /RTCsu /ZI
; File C:\Program Files\Microsoft Visual Studio\2022\Community\VC\Tools\MSVC\14.37.32822\include\xstring
;	COMDAT ??0?$basic_string@DU?$char_traits@D@std@@V?$allocator@D@2@@std@@QEAA@QEBD@Z
_TEXT	SEGMENT
$T1 = 196
this$ = 256
_Ptr$ = 264
??0?$basic_string@DU?$char_traits@D@std@@V?$allocator@D@2@@std@@QEAA@QEBD@Z PROC ; std::basic_string<char,std::char_traits<char>,std::allocator<char> >::basic_string<char,std::char_traits<char>,std::allocator<char> >, COMDAT

; 2539 :     _CONSTEXPR20 basic_string(_In_z_ const _Elem* const _Ptr) : _Mypair(_Zero_then_variadic_args_t{}) {

$LN4:
  00000	48 89 54 24 10	 mov	 QWORD PTR [rsp+16], rdx
  00005	48 89 4c 24 08	 mov	 QWORD PTR [rsp+8], rcx
  0000a	55		 push	 rbp
  0000b	57		 push	 rdi
  0000c	48 81 ec 08 01
	00 00		 sub	 rsp, 264		; 00000108H
  00013	48 8d 6c 24 20	 lea	 rbp, QWORD PTR [rsp+32]
  00018	48 8d 0d 00 00
	00 00		 lea	 rcx, OFFSET FLAT:__D14739E9_xstring
  0001f	e8 00 00 00 00	 call	 __CheckForDebuggerJustMyCode
  00024	48 8b 85 00 01
	00 00		 mov	 rax, QWORD PTR this$[rbp]
  0002b	0f b6 95 c4 00
	00 00		 movzx	 edx, BYTE PTR $T1[rbp]
  00032	48 8b c8	 mov	 rcx, rax
  00035	e8 00 00 00 00	 call	 ??$?0$$V@?$_Compressed_pair@V?$allocator@D@std@@V?$_String_val@U?$_Simple_types@D@std@@@2@$00@std@@QEAA@U_Zero_then_variadic_args_t@1@@Z ; std::_Compressed_pair<std::allocator<char>,std::_String_val<std::_Simple_types<char> >,1>::_Compressed_pair<std::allocator<char>,std::_String_val<std::_Simple_types<char> >,1><>
  0003a	90		 npad	 1

; 2540 :         _Construct<_Construct_strategy::_From_ptr>(_Ptr, _Convert_size<size_type>(_Traits::length(_Ptr)));

  0003b	48 8b 8d 08 01
	00 00		 mov	 rcx, QWORD PTR _Ptr$[rbp]
  00042	e8 00 00 00 00	 call	 ?length@?$_Narrow_char_traits@DH@std@@SA_KQEBD@Z ; std::_Narrow_char_traits<char,int>::length
  00047	48 8b c8	 mov	 rcx, rax
  0004a	e8 00 00 00 00	 call	 ??$_Convert_size@_K_K@std@@YA_K_K@Z ; std::_Convert_size<unsigned __int64,unsigned __int64>
  0004f	4c 8b c0	 mov	 r8, rax
  00052	48 8b 95 08 01
	00 00		 mov	 rdx, QWORD PTR _Ptr$[rbp]
  00059	48 8b 8d 00 01
	00 00		 mov	 rcx, QWORD PTR this$[rbp]
  00060	e8 00 00 00 00	 call	 ??$_Construct@$00PEBD@?$basic_string@DU?$char_traits@D@std@@V?$allocator@D@2@@std@@AEAAXQEBD_K@Z ; std::basic_string<char,std::char_traits<char>,std::allocator<char> >::_Construct<1,char const *>
  00065	90		 npad	 1

; 2541 :     }

  00066	48 8b 85 00 01
	00 00		 mov	 rax, QWORD PTR this$[rbp]
  0006d	48 8d a5 e8 00
	00 00		 lea	 rsp, QWORD PTR [rbp+232]
  00074	5f		 pop	 rdi
  00075	5d		 pop	 rbp
  00076	c3		 ret	 0
??0?$basic_string@DU?$char_traits@D@std@@V?$allocator@D@2@@std@@QEAA@QEBD@Z ENDP ; std::basic_string<char,std::char_traits<char>,std::allocator<char> >::basic_string<char,std::char_traits<char>,std::allocator<char> >
_TEXT	ENDS
; Function compile flags: /Odtp /RTCsu /ZI
;	COMDAT text$x
text$x	SEGMENT
$T1 = 196
this$ = 256
_Ptr$ = 264
?dtor$0@?0???0?$basic_string@DU?$char_traits@D@std@@V?$allocator@D@2@@std@@QEAA@QEBD@Z@4HA PROC ; `std::basic_string<char,std::char_traits<char>,std::allocator<char> >::basic_string<char,std::char_traits<char>,std::allocator<char> >'::`1'::dtor$0
  00000	48 89 4c 24 08	 mov	 QWORD PTR [rsp+8], rcx
  00005	48 89 54 24 10	 mov	 QWORD PTR [rsp+16], rdx
  0000a	55		 push	 rbp
  0000b	57		 push	 rdi
  0000c	48 83 ec 28	 sub	 rsp, 40			; 00000028H
  00010	48 8d 6a 20	 lea	 rbp, QWORD PTR [rdx+32]
  00014	48 8b 8d 00 01
	00 00		 mov	 rcx, QWORD PTR this$[rbp]
  0001b	e8 00 00 00 00	 call	 ??1?$_Compressed_pair@V?$allocator@D@std@@V?$_String_val@U?$_Simple_types@D@std@@@2@$00@std@@QEAA@XZ
  00020	48 83 c4 28	 add	 rsp, 40			; 00000028H
  00024	5f		 pop	 rdi
  00025	5d		 pop	 rbp
  00026	c3		 ret	 0
?dtor$0@?0???0?$basic_string@DU?$char_traits@D@std@@V?$allocator@D@2@@std@@QEAA@QEBD@Z@4HA ENDP ; `std::basic_string<char,std::char_traits<char>,std::allocator<char> >::basic_string<char,std::char_traits<char>,std::allocator<char> >'::`1'::dtor$0
text$x	ENDS
; Function compile flags: /Odtp /RTCsu /ZI
; File C:\Program Files\Microsoft Visual Studio\2022\Community\VC\Tools\MSVC\14.37.32822\include\xstring
;	COMDAT ??0?$basic_string@DU?$char_traits@D@std@@V?$allocator@D@2@@std@@QEAA@AEBV01@@Z
_TEXT	SEGMENT
$T1 = 196
$T2 = 228
this$ = 288
_Right$ = 296
??0?$basic_string@DU?$char_traits@D@std@@V?$allocator@D@2@@std@@QEAA@AEBV01@@Z PROC ; std::basic_string<char,std::char_traits<char>,std::allocator<char> >::basic_string<char,std::char_traits<char>,std::allocator<char> >, COMDAT

; 2491 :         : _Mypair(_One_then_variadic_args_t{}, _Alty_traits::select_on_container_copy_construction(_Right._Getal())) {

$LN4:
  00000	48 89 54 24 10	 mov	 QWORD PTR [rsp+16], rdx
  00005	48 89 4c 24 08	 mov	 QWORD PTR [rsp+8], rcx
  0000a	55		 push	 rbp
  0000b	57		 push	 rdi
  0000c	48 81 ec 28 01
	00 00		 sub	 rsp, 296		; 00000128H
  00013	48 8d 6c 24 20	 lea	 rbp, QWORD PTR [rsp+32]
  00018	48 8d 0d 00 00
	00 00		 lea	 rcx, OFFSET FLAT:__D14739E9_xstring
  0001f	e8 00 00 00 00	 call	 __CheckForDebuggerJustMyCode
  00024	48 8b 8d 28 01
	00 00		 mov	 rcx, QWORD PTR _Right$[rbp]
  0002b	e8 00 00 00 00	 call	 ?_Getal@?$basic_string@DU?$char_traits@D@std@@V?$allocator@D@2@@std@@AEBAAEBV?$allocator@D@2@XZ ; std::basic_string<char,std::char_traits<char>,std::allocator<char> >::_Getal
  00030	48 8b d0	 mov	 rdx, rax
  00033	48 8d 8d c4 00
	00 00		 lea	 rcx, QWORD PTR $T1[rbp]
  0003a	e8 00 00 00 00	 call	 ?select_on_container_copy_construction@?$_Default_allocator_traits@V?$allocator@D@std@@@std@@SA?AV?$allocator@D@2@AEBV32@@Z ; std::_Default_allocator_traits<std::allocator<char> >::select_on_container_copy_construction
  0003f	48 8b 8d 20 01
	00 00		 mov	 rcx, QWORD PTR this$[rbp]
  00046	4c 8b c0	 mov	 r8, rax
  00049	0f b6 95 e4 00
	00 00		 movzx	 edx, BYTE PTR $T2[rbp]
  00050	e8 00 00 00 00	 call	 ??$?0V?$allocator@D@std@@$$V@?$_Compressed_pair@V?$allocator@D@std@@V?$_String_val@U?$_Simple_types@D@std@@@2@$00@std@@QEAA@U_One_then_variadic_args_t@1@$$QEAV?$allocator@D@1@@Z ; std::_Compressed_pair<std::allocator<char>,std::_String_val<std::_Simple_types<char> >,1>::_Compressed_pair<std::allocator<char>,std::_String_val<std::_Simple_types<char> >,1><std::allocator<char> >
  00055	90		 npad	 1

; 2492 :         _Construct<_Construct_strategy::_From_string>(_Right._Mypair._Myval2._Myptr(), _Right._Mypair._Myval2._Mysize);

  00056	48 8b 85 28 01
	00 00		 mov	 rax, QWORD PTR _Right$[rbp]
  0005d	48 8b c8	 mov	 rcx, rax
  00060	e8 00 00 00 00	 call	 ?_Myptr@?$_String_val@U?$_Simple_types@D@std@@@std@@QEBAPEBDXZ ; std::_String_val<std::_Simple_types<char> >::_Myptr
  00065	48 8b 8d 28 01
	00 00		 mov	 rcx, QWORD PTR _Right$[rbp]
  0006c	4c 8b 41 18	 mov	 r8, QWORD PTR [rcx+24]
  00070	48 8b d0	 mov	 rdx, rax
  00073	48 8b 8d 20 01
	00 00		 mov	 rcx, QWORD PTR this$[rbp]
  0007a	e8 00 00 00 00	 call	 ??$_Construct@$01PEBD@?$basic_string@DU?$char_traits@D@std@@V?$allocator@D@2@@std@@AEAAXQEBD_K@Z ; std::basic_string<char,std::char_traits<char>,std::allocator<char> >::_Construct<2,char const *>
  0007f	90		 npad	 1

; 2493 :     }

  00080	48 8b 85 20 01
	00 00		 mov	 rax, QWORD PTR this$[rbp]
  00087	48 8d a5 08 01
	00 00		 lea	 rsp, QWORD PTR [rbp+264]
  0008e	5f		 pop	 rdi
  0008f	5d		 pop	 rbp
  00090	c3		 ret	 0
??0?$basic_string@DU?$char_traits@D@std@@V?$allocator@D@2@@std@@QEAA@AEBV01@@Z ENDP ; std::basic_string<char,std::char_traits<char>,std::allocator<char> >::basic_string<char,std::char_traits<char>,std::allocator<char> >
_TEXT	ENDS
; Function compile flags: /Odtp /RTCsu /ZI
;	COMDAT text$x
text$x	SEGMENT
$T1 = 196
$T2 = 228
this$ = 288
_Right$ = 296
?dtor$0@?0???0?$basic_string@DU?$char_traits@D@std@@V?$allocator@D@2@@std@@QEAA@AEBV01@@Z@4HA PROC ; `std::basic_string<char,std::char_traits<char>,std::allocator<char> >::basic_string<char,std::char_traits<char>,std::allocator<char> >'::`1'::dtor$0
  00000	48 89 4c 24 08	 mov	 QWORD PTR [rsp+8], rcx
  00005	48 89 54 24 10	 mov	 QWORD PTR [rsp+16], rdx
  0000a	55		 push	 rbp
  0000b	57		 push	 rdi
  0000c	48 83 ec 28	 sub	 rsp, 40			; 00000028H
  00010	48 8d 6a 20	 lea	 rbp, QWORD PTR [rdx+32]
  00014	48 8b 8d 20 01
	00 00		 mov	 rcx, QWORD PTR this$[rbp]
  0001b	e8 00 00 00 00	 call	 ??1?$_Compressed_pair@V?$allocator@D@std@@V?$_String_val@U?$_Simple_types@D@std@@@2@$00@std@@QEAA@XZ
  00020	48 83 c4 28	 add	 rsp, 40			; 00000028H
  00024	5f		 pop	 rdi
  00025	5d		 pop	 rbp
  00026	c3		 ret	 0
?dtor$0@?0???0?$basic_string@DU?$char_traits@D@std@@V?$allocator@D@2@@std@@QEAA@AEBV01@@Z@4HA ENDP ; `std::basic_string<char,std::char_traits<char>,std::allocator<char> >::basic_string<char,std::char_traits<char>,std::allocator<char> >'::`1'::dtor$0
text$x	ENDS
; Function compile flags: /Odtp /RTCsu /ZI
;	COMDAT ??1?$_String_val@U?$_Simple_types@D@std@@@std@@QEAA@XZ
_TEXT	SEGMENT
this$ = 224
??1?$_String_val@U?$_Simple_types@D@std@@@std@@QEAA@XZ PROC ; std::_String_val<std::_Simple_types<char> >::~_String_val<std::_Simple_types<char> >, COMDAT
$LN3:
  00000	48 89 4c 24 08	 mov	 QWORD PTR [rsp+8], rcx
  00005	55		 push	 rbp
  00006	57		 push	 rdi
  00007	48 81 ec e8 00
	00 00		 sub	 rsp, 232		; 000000e8H
  0000e	48 8d 6c 24 20	 lea	 rbp, QWORD PTR [rsp+32]
  00013	48 8b 85 e0 00
	00 00		 mov	 rax, QWORD PTR this$[rbp]
  0001a	48 83 c0 08	 add	 rax, 8
  0001e	48 8b c8	 mov	 rcx, rax
  00021	e8 00 00 00 00	 call	 ??1_Bxty@?$_String_val@U?$_Simple_types@D@std@@@std@@QEAA@XZ ; std::_String_val<std::_Simple_types<char> >::_Bxty::~_Bxty
  00026	48 8d a5 c8 00
	00 00		 lea	 rsp, QWORD PTR [rbp+200]
  0002d	5f		 pop	 rdi
  0002e	5d		 pop	 rbp
  0002f	c3		 ret	 0
??1?$_String_val@U?$_Simple_types@D@std@@@std@@QEAA@XZ ENDP ; std::_String_val<std::_Simple_types<char> >::~_String_val<std::_Simple_types<char> >
_TEXT	ENDS
; Function compile flags: /Odtp /RTCsu /ZI
; File C:\Program Files\Microsoft Visual Studio\2022\Community\VC\Tools\MSVC\14.37.32822\include\xstring
;	COMDAT ??1_Bxty@?$_String_val@U?$_Simple_types@D@std@@@std@@QEAA@XZ
_TEXT	SEGMENT
this$ = 224
??1_Bxty@?$_String_val@U?$_Simple_types@D@std@@@std@@QEAA@XZ PROC ; std::_String_val<std::_Simple_types<char> >::_Bxty::~_Bxty, COMDAT

; 2285 :         _CONSTEXPR20 ~_Bxty() noexcept {} // user-provided, for fancy pointers

$LN3:
  00000	48 89 4c 24 08	 mov	 QWORD PTR [rsp+8], rcx
  00005	55		 push	 rbp
  00006	57		 push	 rdi
  00007	48 81 ec e8 00
	00 00		 sub	 rsp, 232		; 000000e8H
  0000e	48 8d 6c 24 20	 lea	 rbp, QWORD PTR [rsp+32]
  00013	48 8d 0d 00 00
	00 00		 lea	 rcx, OFFSET FLAT:__D14739E9_xstring
  0001a	e8 00 00 00 00	 call	 __CheckForDebuggerJustMyCode
  0001f	48 8d a5 c8 00
	00 00		 lea	 rsp, QWORD PTR [rbp+200]
  00026	5f		 pop	 rdi
  00027	5d		 pop	 rbp
  00028	c3		 ret	 0
??1_Bxty@?$_String_val@U?$_Simple_types@D@std@@@std@@QEAA@XZ ENDP ; std::_String_val<std::_Simple_types<char> >::_Bxty::~_Bxty
_TEXT	ENDS
; Function compile flags: /Odtp /RTCsu /ZI
; File C:\Program Files\Microsoft Visual Studio\2022\Community\VC\Tools\MSVC\14.37.32822\include\xstring
;	COMDAT ??0_Bxty@?$_String_val@U?$_Simple_types@D@std@@@std@@QEAA@XZ
_TEXT	SEGMENT
this$ = 224
??0_Bxty@?$_String_val@U?$_Simple_types@D@std@@@std@@QEAA@XZ PROC ; std::_String_val<std::_Simple_types<char> >::_Bxty::_Bxty, COMDAT

; 2284 :         _CONSTEXPR20 _Bxty() noexcept : _Buf() {} // user-provided, for fancy pointers

$LN3:
  00000	48 89 4c 24 08	 mov	 QWORD PTR [rsp+8], rcx
  00005	55		 push	 rbp
  00006	57		 push	 rdi
  00007	48 81 ec e8 00
	00 00		 sub	 rsp, 232		; 000000e8H
  0000e	48 8d 6c 24 20	 lea	 rbp, QWORD PTR [rsp+32]
  00013	48 8d 0d 00 00
	00 00		 lea	 rcx, OFFSET FLAT:__D14739E9_xstring
  0001a	e8 00 00 00 00	 call	 __CheckForDebuggerJustMyCode
  0001f	48 8b 85 e0 00
	00 00		 mov	 rax, QWORD PTR this$[rbp]
  00026	48 8b bd e0 00
	00 00		 mov	 rdi, QWORD PTR this$[rbp]
  0002d	33 c0		 xor	 eax, eax
  0002f	b9 10 00 00 00	 mov	 ecx, 16
  00034	f3 aa		 rep stosb
  00036	48 8b 85 e0 00
	00 00		 mov	 rax, QWORD PTR this$[rbp]
  0003d	48 8d a5 c8 00
	00 00		 lea	 rsp, QWORD PTR [rbp+200]
  00044	5f		 pop	 rdi
  00045	5d		 pop	 rbp
  00046	c3		 ret	 0
??0_Bxty@?$_String_val@U?$_Simple_types@D@std@@@std@@QEAA@XZ ENDP ; std::_String_val<std::_Simple_types<char> >::_Bxty::_Bxty
_TEXT	ENDS
; Function compile flags: /Odtp /RTCsu /ZI
; File C:\Program Files\Microsoft Visual Studio\2022\Community\VC\Tools\MSVC\14.37.32822\include\xstring
;	COMDAT ?_Activate_SSO_buffer@?$_String_val@U?$_Simple_types@D@std@@@std@@QEAAXXZ
_TEXT	SEGMENT
this$ = 224
?_Activate_SSO_buffer@?$_String_val@U?$_Simple_types@D@std@@@std@@QEAAXXZ PROC ; std::_String_val<std::_Simple_types<char> >::_Activate_SSO_buffer, COMDAT

; 2247 :     constexpr void _Activate_SSO_buffer() noexcept {

$LN3:
  00000	48 89 4c 24 08	 mov	 QWORD PTR [rsp+8], rcx
  00005	55		 push	 rbp
  00006	57		 push	 rdi
  00007	48 81 ec e8 00
	00 00		 sub	 rsp, 232		; 000000e8H
  0000e	48 8d 6c 24 20	 lea	 rbp, QWORD PTR [rsp+32]
  00013	48 8d 0d 00 00
	00 00		 lea	 rcx, OFFSET FLAT:__D14739E9_xstring
  0001a	e8 00 00 00 00	 call	 __CheckForDebuggerJustMyCode

; 2248 :         // start the lifetime of the array elements
; 2249 : #if _HAS_CXX20
; 2250 :         if (_STD is_constant_evaluated()) {
; 2251 :             for (size_type _Idx = 0; _Idx < _BUF_SIZE; ++_Idx) {
; 2252 :                 _Bx._Buf[_Idx] = value_type();
; 2253 :             }
; 2254 :         }
; 2255 : #endif // _HAS_CXX20
; 2256 :     }

  0001f	48 8d a5 c8 00
	00 00		 lea	 rsp, QWORD PTR [rbp+200]
  00026	5f		 pop	 rdi
  00027	5d		 pop	 rbp
  00028	c3		 ret	 0
?_Activate_SSO_buffer@?$_String_val@U?$_Simple_types@D@std@@@std@@QEAAXXZ ENDP ; std::_String_val<std::_Simple_types<char> >::_Activate_SSO_buffer
_TEXT	ENDS
; Function compile flags: /Odtp /RTCsu /ZI
; File C:\Program Files\Microsoft Visual Studio\2022\Community\VC\Tools\MSVC\14.37.32822\include\xstring
;	COMDAT ?_Large_string_engaged@?$_String_val@U?$_Simple_types@D@std@@@std@@QEBA_NXZ
_TEXT	SEGMENT
tv66 = 192
this$ = 240
?_Large_string_engaged@?$_String_val@U?$_Simple_types@D@std@@@std@@QEBA_NXZ PROC ; std::_String_val<std::_Simple_types<char> >::_Large_string_engaged, COMDAT

; 2243 :     _CONSTEXPR20 bool _Large_string_engaged() const noexcept {

$LN5:
  00000	48 89 4c 24 08	 mov	 QWORD PTR [rsp+8], rcx
  00005	55		 push	 rbp
  00006	57		 push	 rdi
  00007	48 81 ec f8 00
	00 00		 sub	 rsp, 248		; 000000f8H
  0000e	48 8d 6c 24 20	 lea	 rbp, QWORD PTR [rsp+32]
  00013	48 8d 0d 00 00
	00 00		 lea	 rcx, OFFSET FLAT:__D14739E9_xstring
  0001a	e8 00 00 00 00	 call	 __CheckForDebuggerJustMyCode

; 2244 :         return _BUF_SIZE <= _Myres;

  0001f	48 8b 85 f0 00
	00 00		 mov	 rax, QWORD PTR this$[rbp]
  00026	48 83 78 20 10	 cmp	 QWORD PTR [rax+32], 16
  0002b	72 0c		 jb	 SHORT $LN3@Large_stri
  0002d	c7 85 c0 00 00
	00 01 00 00 00	 mov	 DWORD PTR tv66[rbp], 1
  00037	eb 0a		 jmp	 SHORT $LN4@Large_stri
$LN3@Large_stri:
  00039	c7 85 c0 00 00
	00 00 00 00 00	 mov	 DWORD PTR tv66[rbp], 0
$LN4@Large_stri:
  00043	0f b6 85 c0 00
	00 00		 movzx	 eax, BYTE PTR tv66[rbp]

; 2245 :     }

  0004a	48 8d a5 d8 00
	00 00		 lea	 rsp, QWORD PTR [rbp+216]
  00051	5f		 pop	 rdi
  00052	5d		 pop	 rbp
  00053	c3		 ret	 0
?_Large_string_engaged@?$_String_val@U?$_Simple_types@D@std@@@std@@QEBA_NXZ ENDP ; std::_String_val<std::_Simple_types<char> >::_Large_string_engaged
_TEXT	ENDS
; Function compile flags: /Odtp /RTCsu /ZI
; File C:\Program Files\Microsoft Visual Studio\2022\Community\VC\Tools\MSVC\14.37.32822\include\xstring
;	COMDAT ?_Myptr@?$_String_val@U?$_Simple_types@D@std@@@std@@QEBAPEBDXZ
_TEXT	SEGMENT
_Result$ = 8
this$ = 256
?_Myptr@?$_String_val@U?$_Simple_types@D@std@@@std@@QEBAPEBDXZ PROC ; std::_String_val<std::_Simple_types<char> >::_Myptr, COMDAT

; 2234 :     _CONSTEXPR20 const value_type* _Myptr() const noexcept {

$LN4:
  00000	48 89 4c 24 08	 mov	 QWORD PTR [rsp+8], rcx
  00005	55		 push	 rbp
  00006	57		 push	 rdi
  00007	48 81 ec 08 01
	00 00		 sub	 rsp, 264		; 00000108H
  0000e	48 8d 6c 24 20	 lea	 rbp, QWORD PTR [rsp+32]
  00013	48 8d 0d 00 00
	00 00		 lea	 rcx, OFFSET FLAT:__D14739E9_xstring
  0001a	e8 00 00 00 00	 call	 __CheckForDebuggerJustMyCode

; 2235 :         const value_type* _Result = _Bx._Buf;

  0001f	48 8b 85 00 01
	00 00		 mov	 rax, QWORD PTR this$[rbp]
  00026	48 83 c0 08	 add	 rax, 8
  0002a	48 89 45 08	 mov	 QWORD PTR _Result$[rbp], rax

; 2236 :         if (_Large_string_engaged()) {

  0002e	48 8b 8d 00 01
	00 00		 mov	 rcx, QWORD PTR this$[rbp]
  00035	e8 00 00 00 00	 call	 ?_Large_string_engaged@?$_String_val@U?$_Simple_types@D@std@@@std@@QEBA_NXZ ; std::_String_val<std::_Simple_types<char> >::_Large_string_engaged
  0003a	0f b6 c0	 movzx	 eax, al
  0003d	85 c0		 test	 eax, eax
  0003f	74 14		 je	 SHORT $LN2@Myptr

; 2237 :             _Result = _Unfancy(_Bx._Ptr);

  00041	48 8b 85 00 01
	00 00		 mov	 rax, QWORD PTR this$[rbp]
  00048	48 8b 48 08	 mov	 rcx, QWORD PTR [rax+8]
  0004c	e8 00 00 00 00	 call	 ??$_Unfancy@D@std@@YAPEADPEAD@Z ; std::_Unfancy<char>
  00051	48 89 45 08	 mov	 QWORD PTR _Result$[rbp], rax
$LN2@Myptr:

; 2238 :         }
; 2239 : 
; 2240 :         return _Result;

  00055	48 8b 45 08	 mov	 rax, QWORD PTR _Result$[rbp]

; 2241 :     }

  00059	48 8d a5 e8 00
	00 00		 lea	 rsp, QWORD PTR [rbp+232]
  00060	5f		 pop	 rdi
  00061	5d		 pop	 rbp
  00062	c3		 ret	 0
?_Myptr@?$_String_val@U?$_Simple_types@D@std@@@std@@QEBAPEBDXZ ENDP ; std::_String_val<std::_Simple_types<char> >::_Myptr
_TEXT	ENDS
; Function compile flags: /Odtp /RTCsu /ZI
; File C:\Program Files\Microsoft Visual Studio\2022\Community\VC\Tools\MSVC\14.37.32822\include\xstring
;	COMDAT ??0?$_String_val@U?$_Simple_types@D@std@@@std@@QEAA@XZ
_TEXT	SEGMENT
this$ = 224
??0?$_String_val@U?$_Simple_types@D@std@@@std@@QEAA@XZ PROC ; std::_String_val<std::_Simple_types<char> >::_String_val<std::_Simple_types<char> >, COMDAT

; 2214 :     _CONSTEXPR20 _String_val() noexcept : _Bx() {}

$LN3:
  00000	48 89 4c 24 08	 mov	 QWORD PTR [rsp+8], rcx
  00005	55		 push	 rbp
  00006	57		 push	 rdi
  00007	48 81 ec e8 00
	00 00		 sub	 rsp, 232		; 000000e8H
  0000e	48 8d 6c 24 20	 lea	 rbp, QWORD PTR [rsp+32]
  00013	48 8d 0d 00 00
	00 00		 lea	 rcx, OFFSET FLAT:__D14739E9_xstring
  0001a	e8 00 00 00 00	 call	 __CheckForDebuggerJustMyCode
  0001f	48 8b 8d e0 00
	00 00		 mov	 rcx, QWORD PTR this$[rbp]
  00026	e8 00 00 00 00	 call	 ??0_Container_base12@std@@QEAA@XZ ; std::_Container_base12::_Container_base12
  0002b	48 8b 85 e0 00
	00 00		 mov	 rax, QWORD PTR this$[rbp]
  00032	48 83 c0 08	 add	 rax, 8
  00036	48 8b c8	 mov	 rcx, rax
  00039	e8 00 00 00 00	 call	 ??0_Bxty@?$_String_val@U?$_Simple_types@D@std@@@std@@QEAA@XZ ; std::_String_val<std::_Simple_types<char> >::_Bxty::_Bxty

; 2215 : 
; 2216 :     // length of internal buffer, [1, 16]:
; 2217 :     static constexpr size_type _BUF_SIZE = 16 / sizeof(value_type) < 1 ? 1 : 16 / sizeof(value_type);
; 2218 :     // roundup mask for allocated buffers, [0, 15]:
; 2219 :     static constexpr size_type _ALLOC_MASK = sizeof(value_type) <= 1 ? 15
; 2220 :                                            : sizeof(value_type) <= 2 ? 7
; 2221 :                                            : sizeof(value_type) <= 4 ? 3
; 2222 :                                            : sizeof(value_type) <= 8 ? 1
; 2223 :                                                                      : 0;
; 2224 : 
; 2225 :     _CONSTEXPR20 value_type* _Myptr() noexcept {
; 2226 :         value_type* _Result = _Bx._Buf;
; 2227 :         if (_Large_string_engaged()) {
; 2228 :             _Result = _Unfancy(_Bx._Ptr);
; 2229 :         }
; 2230 : 
; 2231 :         return _Result;
; 2232 :     }
; 2233 : 
; 2234 :     _CONSTEXPR20 const value_type* _Myptr() const noexcept {
; 2235 :         const value_type* _Result = _Bx._Buf;
; 2236 :         if (_Large_string_engaged()) {
; 2237 :             _Result = _Unfancy(_Bx._Ptr);
; 2238 :         }
; 2239 : 
; 2240 :         return _Result;
; 2241 :     }
; 2242 : 
; 2243 :     _CONSTEXPR20 bool _Large_string_engaged() const noexcept {
; 2244 :         return _BUF_SIZE <= _Myres;
; 2245 :     }
; 2246 : 
; 2247 :     constexpr void _Activate_SSO_buffer() noexcept {
; 2248 :         // start the lifetime of the array elements
; 2249 : #if _HAS_CXX20
; 2250 :         if (_STD is_constant_evaluated()) {
; 2251 :             for (size_type _Idx = 0; _Idx < _BUF_SIZE; ++_Idx) {
; 2252 :                 _Bx._Buf[_Idx] = value_type();
; 2253 :             }
; 2254 :         }
; 2255 : #endif // _HAS_CXX20
; 2256 :     }
; 2257 : 
; 2258 :     _CONSTEXPR20 void _Check_offset(const size_type _Off) const {
; 2259 :         // checks whether _Off is in the bounds of [0, size()]
; 2260 :         if (_Mysize < _Off) {
; 2261 :             _Xran();
; 2262 :         }
; 2263 :     }
; 2264 : 
; 2265 :     _CONSTEXPR20 void _Check_offset_exclusive(const size_type _Off) const {
; 2266 :         // checks whether _Off is in the bounds of [0, size())
; 2267 :         if (_Mysize <= _Off) {
; 2268 :             _Xran();
; 2269 :         }
; 2270 :     }
; 2271 : 
; 2272 :     [[noreturn]] static void _Xran() {
; 2273 :         _Xout_of_range("invalid string position");
; 2274 :     }
; 2275 : 
; 2276 :     _CONSTEXPR20 size_type _Clamp_suffix_size(const size_type _Off, const size_type _Size) const noexcept {
; 2277 :         // trims _Size to the longest it can be assuming a string at/after _Off
; 2278 :         return (_STD min)(_Size, _Mysize - _Off);
; 2279 :     }
; 2280 : 
; 2281 :     union _Bxty { // storage for small buffer or pointer to larger one
; 2282 :         // This constructor previously initialized _Ptr. Don't rely on the new behavior without
; 2283 :         // renaming `_String_val` (and fixing the visualizer).
; 2284 :         _CONSTEXPR20 _Bxty() noexcept : _Buf() {} // user-provided, for fancy pointers
; 2285 :         _CONSTEXPR20 ~_Bxty() noexcept {} // user-provided, for fancy pointers
; 2286 : 
; 2287 :         value_type _Buf[_BUF_SIZE];
; 2288 :         pointer _Ptr;
; 2289 :         char _Alias[_BUF_SIZE]; // TRANSITION, ABI: _Alias is preserved for binary compatibility (especially /clr)
; 2290 :     };
; 2291 :     _Bxty _Bx;
; 2292 : 
; 2293 :     size_type _Mysize = 0; // current length of string

  0003e	48 8b 85 e0 00
	00 00		 mov	 rax, QWORD PTR this$[rbp]
  00045	48 c7 40 18 00
	00 00 00	 mov	 QWORD PTR [rax+24], 0

; 2294 :     size_type _Myres  = 0; // current storage reserved for string

  0004d	48 8b 85 e0 00
	00 00		 mov	 rax, QWORD PTR this$[rbp]
  00054	48 c7 40 20 00
	00 00 00	 mov	 QWORD PTR [rax+32], 0

; 2214 :     _CONSTEXPR20 _String_val() noexcept : _Bx() {}

  0005c	48 8b 85 e0 00
	00 00		 mov	 rax, QWORD PTR this$[rbp]
  00063	48 8d a5 c8 00
	00 00		 lea	 rsp, QWORD PTR [rbp+200]
  0006a	5f		 pop	 rdi
  0006b	5d		 pop	 rbp
  0006c	c3		 ret	 0
??0?$_String_val@U?$_Simple_types@D@std@@@std@@QEAA@XZ ENDP ; std::_String_val<std::_Simple_types<char> >::_String_val<std::_Simple_types<char> >
_TEXT	ENDS
; Function compile flags: /Odtp /RTCsu /ZI
; File C:\Program Files\Microsoft Visual Studio\2022\Community\VC\Tools\MSVC\14.37.32822\include\xmemory
;	COMDAT ?select_on_container_copy_construction@?$_Default_allocator_traits@V?$allocator@D@std@@@std@@SA?AV?$allocator@D@2@AEBV32@@Z
_TEXT	SEGMENT
__$ReturnUdt$ = 224
_Al$ = 232
?select_on_container_copy_construction@?$_Default_allocator_traits@V?$allocator@D@std@@@std@@SA?AV?$allocator@D@2@AEBV32@@Z PROC ; std::_Default_allocator_traits<std::allocator<char> >::select_on_container_copy_construction, COMDAT

; 736  :     _NODISCARD static _CONSTEXPR20 _Alloc select_on_container_copy_construction(const _Alloc& _Al) {

$LN3:
  00000	48 89 54 24 10	 mov	 QWORD PTR [rsp+16], rdx
  00005	48 89 4c 24 08	 mov	 QWORD PTR [rsp+8], rcx
  0000a	55		 push	 rbp
  0000b	57		 push	 rdi
  0000c	48 81 ec e8 00
	00 00		 sub	 rsp, 232		; 000000e8H
  00013	48 8d 6c 24 20	 lea	 rbp, QWORD PTR [rsp+32]
  00018	48 8d 0d 00 00
	00 00		 lea	 rcx, OFFSET FLAT:__A594BF75_xmemory
  0001f	e8 00 00 00 00	 call	 __CheckForDebuggerJustMyCode

; 737  :         return _Al;

  00024	48 8b 85 e0 00
	00 00		 mov	 rax, QWORD PTR __$ReturnUdt$[rbp]

; 738  :     }

  0002b	48 8d a5 c8 00
	00 00		 lea	 rsp, QWORD PTR [rbp+200]
  00032	5f		 pop	 rdi
  00033	5d		 pop	 rbp
  00034	c3		 ret	 0
?select_on_container_copy_construction@?$_Default_allocator_traits@V?$allocator@D@std@@@std@@SA?AV?$allocator@D@2@AEBV32@@Z ENDP ; std::_Default_allocator_traits<std::allocator<char> >::select_on_container_copy_construction
_TEXT	ENDS
; Function compile flags: /Odtp /RTCsu /ZI
; File C:\Program Files\Microsoft Visual Studio\2022\Community\VC\Tools\MSVC\14.37.32822\include\xmemory
;	COMDAT ?max_size@?$_Default_allocator_traits@V?$allocator@D@std@@@std@@SA_KAEBV?$allocator@D@2@@Z
_TEXT	SEGMENT
__formal$ = 224
?max_size@?$_Default_allocator_traits@V?$allocator@D@std@@@std@@SA_KAEBV?$allocator@D@2@@Z PROC ; std::_Default_allocator_traits<std::allocator<char> >::max_size, COMDAT

; 732  :     _NODISCARD static _CONSTEXPR20 size_type max_size(const _Alloc&) noexcept {

$LN3:
  00000	48 89 4c 24 08	 mov	 QWORD PTR [rsp+8], rcx
  00005	55		 push	 rbp
  00006	57		 push	 rdi
  00007	48 81 ec e8 00
	00 00		 sub	 rsp, 232		; 000000e8H
  0000e	48 8d 6c 24 20	 lea	 rbp, QWORD PTR [rsp+32]
  00013	48 8d 0d 00 00
	00 00		 lea	 rcx, OFFSET FLAT:__A594BF75_xmemory
  0001a	e8 00 00 00 00	 call	 __CheckForDebuggerJustMyCode

; 733  :         return static_cast<size_t>(-1) / sizeof(value_type);

  0001f	48 c7 c0 ff ff
	ff ff		 mov	 rax, -1

; 734  :     }

  00026	48 8d a5 c8 00
	00 00		 lea	 rsp, QWORD PTR [rbp+200]
  0002d	5f		 pop	 rdi
  0002e	5d		 pop	 rbp
  0002f	c3		 ret	 0
?max_size@?$_Default_allocator_traits@V?$allocator@D@std@@@std@@SA_KAEBV?$allocator@D@2@@Z ENDP ; std::_Default_allocator_traits<std::allocator<char> >::max_size
_TEXT	ENDS
; Function compile flags: /Odtp /RTCsu /ZI
; File C:\Program Files\Microsoft Visual Studio\2022\Community\VC\Tools\MSVC\14.37.32822\include\xmemory
;	COMDAT ?allocate@?$allocator@D@std@@QEAAPEAD_K@Z
_TEXT	SEGMENT
this$ = 224
_Count$ = 232
?allocate@?$allocator@D@std@@QEAAPEAD_K@Z PROC		; std::allocator<char>::allocate, COMDAT

; 972  :     _NODISCARD_RAW_PTR_ALLOC _CONSTEXPR20 __declspec(allocator) _Ty* allocate(_CRT_GUARDOVERFLOW const size_t _Count) {

$LN3:
  00000	48 89 54 24 10	 mov	 QWORD PTR [rsp+16], rdx
  00005	48 89 4c 24 08	 mov	 QWORD PTR [rsp+8], rcx
  0000a	55		 push	 rbp
  0000b	57		 push	 rdi
  0000c	48 81 ec e8 00
	00 00		 sub	 rsp, 232		; 000000e8H
  00013	48 8d 6c 24 20	 lea	 rbp, QWORD PTR [rsp+32]
  00018	48 8d 0d 00 00
	00 00		 lea	 rcx, OFFSET FLAT:__A594BF75_xmemory
  0001f	e8 00 00 00 00	 call	 __CheckForDebuggerJustMyCode

; 973  :         static_assert(sizeof(value_type) > 0, "value_type must be complete before calling allocate.");
; 974  :         return static_cast<_Ty*>(_Allocate<_New_alignof<_Ty>>(_Get_size_of_n<sizeof(_Ty)>(_Count)));

  00024	48 8b 8d e8 00
	00 00		 mov	 rcx, QWORD PTR _Count$[rbp]
  0002b	e8 00 00 00 00	 call	 ??$_Get_size_of_n@$00@std@@YA_K_K@Z ; std::_Get_size_of_n<1>
  00030	48 8b c8	 mov	 rcx, rax
  00033	e8 00 00 00 00	 call	 ??$_Allocate@$0BA@U_Default_allocate_traits@std@@$0A@@std@@YAPEAX_K@Z ; std::_Allocate<16,std::_Default_allocate_traits,0>

; 975  :     }

  00038	48 8d a5 c8 00
	00 00		 lea	 rsp, QWORD PTR [rbp+200]
  0003f	5f		 pop	 rdi
  00040	5d		 pop	 rbp
  00041	c3		 ret	 0
?allocate@?$allocator@D@std@@QEAAPEAD_K@Z ENDP		; std::allocator<char>::allocate
_TEXT	ENDS
; Function compile flags: /Odtp /RTCsu /ZI
; File C:\Program Files\Microsoft Visual Studio\2022\Community\VC\Tools\MSVC\14.37.32822\include\xmemory
;	COMDAT ?deallocate@?$allocator@D@std@@QEAAXQEAD_K@Z
_TEXT	SEGMENT
this$ = 224
_Ptr$ = 232
_Count$ = 240
?deallocate@?$allocator@D@std@@QEAAXQEAD_K@Z PROC	; std::allocator<char>::deallocate, COMDAT

; 966  :     _CONSTEXPR20 void deallocate(_Ty* const _Ptr, const size_t _Count) {

$LN13:
  00000	4c 89 44 24 18	 mov	 QWORD PTR [rsp+24], r8
  00005	48 89 54 24 10	 mov	 QWORD PTR [rsp+16], rdx
  0000a	48 89 4c 24 08	 mov	 QWORD PTR [rsp+8], rcx
  0000f	55		 push	 rbp
  00010	57		 push	 rdi
  00011	48 81 ec f8 00
	00 00		 sub	 rsp, 248		; 000000f8H
  00018	48 8d 6c 24 30	 lea	 rbp, QWORD PTR [rsp+48]
  0001d	48 8d 0d 00 00
	00 00		 lea	 rcx, OFFSET FLAT:__A594BF75_xmemory
  00024	e8 00 00 00 00	 call	 __CheckForDebuggerJustMyCode
$LN4@deallocate:

; 967  :         _STL_ASSERT(_Ptr != nullptr || _Count == 0, "null pointer cannot point to a block of non-zero size");

  00029	48 83 bd e8 00
	00 00 00	 cmp	 QWORD PTR _Ptr$[rbp], 0
  00031	75 0a		 jne	 SHORT $LN10@deallocate
  00033	48 83 bd f0 00
	00 00 00	 cmp	 QWORD PTR _Count$[rbp], 0
  0003b	75 02		 jne	 SHORT $LN8@deallocate
$LN10@deallocate:
  0003d	eb 6b		 jmp	 SHORT $LN9@deallocate
$LN8@deallocate:
$LN7@deallocate:
  0003f	48 8d 05 00 00
	00 00		 lea	 rax, OFFSET FLAT:??_C@_0DG@KGHKKGBC@null?5pointer?5cannot?5point?5to?5a?5@
  00046	48 89 44 24 28	 mov	 QWORD PTR [rsp+40], rax
  0004b	48 8d 05 00 00
	00 00		 lea	 rax, OFFSET FLAT:??_C@_02DKCKIIND@?$CFs@
  00052	48 89 44 24 20	 mov	 QWORD PTR [rsp+32], rax
  00057	45 33 c9	 xor	 r9d, r9d
  0005a	41 b8 c7 03 00
	00		 mov	 r8d, 967		; 000003c7H
  00060	48 8d 15 00 00
	00 00		 lea	 rdx, OFFSET FLAT:??_C@_0GC@JDLAECEI@C?3?2Program?5Files?2Microsoft?5Visu@
  00067	b9 02 00 00 00	 mov	 ecx, 2
  0006c	ff 15 00 00 00
	00		 call	 QWORD PTR __imp__CrtDbgReport
  00072	83 f8 01	 cmp	 eax, 1
  00075	75 03		 jne	 SHORT $LN12@deallocate
  00077	cc		 int	 3
  00078	33 c0		 xor	 eax, eax
$LN12@deallocate:
  0007a	48 c7 44 24 20
	00 00 00 00	 mov	 QWORD PTR [rsp+32], 0
  00083	41 b9 c7 03 00
	00		 mov	 r9d, 967		; 000003c7H
  00089	4c 8d 05 00 00
	00 00		 lea	 r8, OFFSET FLAT:??_C@_1ME@PPIEIJND@?$AAC?$AA?3?$AA?2?$AAP?$AAr?$AAo?$AAg?$AAr?$AAa?$AAm?$AA?5?$AAF?$AAi?$AAl?$AAe@
  00090	48 8d 15 00 00
	00 00		 lea	 rdx, OFFSET FLAT:??_C@_11LOCGONAA@@
  00097	48 8d 0d 00 00
	00 00		 lea	 rcx, OFFSET FLAT:??_C@_1HA@FACCKGGH@?$AA?$CC?$AAn?$AAu?$AAl?$AAl?$AA?5?$AAp?$AAo?$AAi?$AAn?$AAt?$AAe?$AAr?$AA?5?$AAc@
  0009e	ff 15 00 00 00
	00		 call	 QWORD PTR __imp__invalid_parameter
  000a4	33 c0		 xor	 eax, eax
  000a6	85 c0		 test	 eax, eax
  000a8	75 95		 jne	 SHORT $LN7@deallocate
$LN9@deallocate:
  000aa	33 c0		 xor	 eax, eax
  000ac	85 c0		 test	 eax, eax
  000ae	0f 85 75 ff ff
	ff		 jne	 $LN4@deallocate

; 968  :         // no overflow check on the following multiply; we assume _Allocate did that check
; 969  :         _Deallocate<_New_alignof<_Ty>>(_Ptr, sizeof(_Ty) * _Count);

  000b4	48 8b 95 f0 00
	00 00		 mov	 rdx, QWORD PTR _Count$[rbp]
  000bb	48 8b 8d e8 00
	00 00		 mov	 rcx, QWORD PTR _Ptr$[rbp]
  000c2	e8 00 00 00 00	 call	 ??$_Deallocate@$0BA@$0A@@std@@YAXPEAX_K@Z ; std::_Deallocate<16,0>

; 970  :     }

  000c7	48 8d a5 c8 00
	00 00		 lea	 rsp, QWORD PTR [rbp+200]
  000ce	5f		 pop	 rdi
  000cf	5d		 pop	 rbp
  000d0	c3		 ret	 0
?deallocate@?$allocator@D@std@@QEAAXQEAD_K@Z ENDP	; std::allocator<char>::deallocate
_TEXT	ENDS
; Function compile flags: /Odtp /RTCsu /ZI
; File C:\Program Files\Microsoft Visual Studio\2022\Community\VC\Tools\MSVC\14.37.32822\include\xmemory
;	COMDAT ??0?$allocator@D@std@@QEAA@XZ
_TEXT	SEGMENT
this$ = 224
??0?$allocator@D@std@@QEAA@XZ PROC			; std::allocator<char>::allocator<char>, COMDAT

; 958  :     constexpr allocator() noexcept {}

$LN3:
  00000	48 89 4c 24 08	 mov	 QWORD PTR [rsp+8], rcx
  00005	55		 push	 rbp
  00006	57		 push	 rdi
  00007	48 81 ec e8 00
	00 00		 sub	 rsp, 232		; 000000e8H
  0000e	48 8d 6c 24 20	 lea	 rbp, QWORD PTR [rsp+32]
  00013	48 8d 0d 00 00
	00 00		 lea	 rcx, OFFSET FLAT:__A594BF75_xmemory
  0001a	e8 00 00 00 00	 call	 __CheckForDebuggerJustMyCode
  0001f	48 8b 85 e0 00
	00 00		 mov	 rax, QWORD PTR this$[rbp]
  00026	48 8d a5 c8 00
	00 00		 lea	 rsp, QWORD PTR [rbp+200]
  0002d	5f		 pop	 rdi
  0002e	5d		 pop	 rbp
  0002f	c3		 ret	 0
??0?$allocator@D@std@@QEAA@XZ ENDP			; std::allocator<char>::allocator<char>
_TEXT	ENDS
; Function compile flags: /Odtp /RTCsu /ZI
; File C:\Program Files\Microsoft Visual Studio\2022\Community\VC\Tools\MSVC\14.37.32822\include\xstring
;	COMDAT ?_Xlen_string@std@@YAXXZ
_TEXT	SEGMENT
?_Xlen_string@std@@YAXXZ PROC				; std::_Xlen_string, COMDAT

; 2311 : [[noreturn]] inline void _Xlen_string() {

$LN3:
  00000	40 55		 push	 rbp
  00002	57		 push	 rdi
  00003	48 81 ec e8 00
	00 00		 sub	 rsp, 232		; 000000e8H
  0000a	48 8d 6c 24 20	 lea	 rbp, QWORD PTR [rsp+32]
  0000f	48 8d 0d 00 00
	00 00		 lea	 rcx, OFFSET FLAT:__D14739E9_xstring
  00016	e8 00 00 00 00	 call	 __CheckForDebuggerJustMyCode

; 2312 :     _Xlength_error("string too long");

  0001b	48 8d 0d 00 00
	00 00		 lea	 rcx, OFFSET FLAT:??_C@_0BA@JFNIOLAK@string?5too?5long@
  00022	e8 00 00 00 00	 call	 ?_Xlength_error@std@@YAXPEBD@Z ; std::_Xlength_error
$LN2@Xlen_strin:

; 2313 : }

  00027	48 8d a5 c8 00
	00 00		 lea	 rsp, QWORD PTR [rbp+200]
  0002e	5f		 pop	 rdi
  0002f	5d		 pop	 rbp
  00030	c3		 ret	 0
?_Xlen_string@std@@YAXXZ ENDP				; std::_Xlen_string
_TEXT	ENDS
; Function compile flags: /Odtp /RTCsu /ZI
; File C:\Program Files\Microsoft Visual Studio\2022\Community\VC\Tools\MSVC\14.37.32822\include\xstring
;	COMDAT ?eof@?$_Narrow_char_traits@DH@std@@SAHXZ
_TEXT	SEGMENT
?eof@?$_Narrow_char_traits@DH@std@@SAHXZ PROC		; std::_Narrow_char_traits<char,int>::eof, COMDAT

; 473  :     _NODISCARD static constexpr int_type eof() noexcept {

$LN3:
  00000	40 55		 push	 rbp
  00002	57		 push	 rdi
  00003	48 81 ec e8 00
	00 00		 sub	 rsp, 232		; 000000e8H
  0000a	48 8d 6c 24 20	 lea	 rbp, QWORD PTR [rsp+32]
  0000f	48 8d 0d 00 00
	00 00		 lea	 rcx, OFFSET FLAT:__D14739E9_xstring
  00016	e8 00 00 00 00	 call	 __CheckForDebuggerJustMyCode

; 474  :         return static_cast<int_type>(EOF);

  0001b	b8 ff ff ff ff	 mov	 eax, -1

; 475  :     }

  00020	48 8d a5 c8 00
	00 00		 lea	 rsp, QWORD PTR [rbp+200]
  00027	5f		 pop	 rdi
  00028	5d		 pop	 rbp
  00029	c3		 ret	 0
?eof@?$_Narrow_char_traits@DH@std@@SAHXZ ENDP		; std::_Narrow_char_traits<char,int>::eof
_TEXT	ENDS
; Function compile flags: /Odtp /RTCsu /ZI
; File C:\Program Files\Microsoft Visual Studio\2022\Community\VC\Tools\MSVC\14.37.32822\include\xstring
;	COMDAT ?eq_int_type@?$_Narrow_char_traits@DH@std@@SA_NAEBH0@Z
_TEXT	SEGMENT
tv65 = 192
_Left$ = 240
_Right$ = 248
?eq_int_type@?$_Narrow_char_traits@DH@std@@SA_NAEBH0@Z PROC ; std::_Narrow_char_traits<char,int>::eq_int_type, COMDAT

; 465  :     _NODISCARD static constexpr bool eq_int_type(const int_type& _Left, const int_type& _Right) noexcept {

$LN5:
  00000	48 89 54 24 10	 mov	 QWORD PTR [rsp+16], rdx
  00005	48 89 4c 24 08	 mov	 QWORD PTR [rsp+8], rcx
  0000a	55		 push	 rbp
  0000b	57		 push	 rdi
  0000c	48 81 ec f8 00
	00 00		 sub	 rsp, 248		; 000000f8H
  00013	48 8d 6c 24 20	 lea	 rbp, QWORD PTR [rsp+32]
  00018	48 8d 0d 00 00
	00 00		 lea	 rcx, OFFSET FLAT:__D14739E9_xstring
  0001f	e8 00 00 00 00	 call	 __CheckForDebuggerJustMyCode

; 466  :         return _Left == _Right;

  00024	48 8b 85 f0 00
	00 00		 mov	 rax, QWORD PTR _Left$[rbp]
  0002b	48 8b 8d f8 00
	00 00		 mov	 rcx, QWORD PTR _Right$[rbp]
  00032	8b 09		 mov	 ecx, DWORD PTR [rcx]
  00034	39 08		 cmp	 DWORD PTR [rax], ecx
  00036	75 0c		 jne	 SHORT $LN3@eq_int_typ
  00038	c7 85 c0 00 00
	00 01 00 00 00	 mov	 DWORD PTR tv65[rbp], 1
  00042	eb 0a		 jmp	 SHORT $LN4@eq_int_typ
$LN3@eq_int_typ:
  00044	c7 85 c0 00 00
	00 00 00 00 00	 mov	 DWORD PTR tv65[rbp], 0
$LN4@eq_int_typ:
  0004e	0f b6 85 c0 00
	00 00		 movzx	 eax, BYTE PTR tv65[rbp]

; 467  :     }

  00055	48 8d a5 d8 00
	00 00		 lea	 rsp, QWORD PTR [rbp+216]
  0005c	5f		 pop	 rdi
  0005d	5d		 pop	 rbp
  0005e	c3		 ret	 0
?eq_int_type@?$_Narrow_char_traits@DH@std@@SA_NAEBH0@Z ENDP ; std::_Narrow_char_traits<char,int>::eq_int_type
_TEXT	ENDS
; Function compile flags: /Odtp /RTCsu /ZI
; File C:\Program Files\Microsoft Visual Studio\2022\Community\VC\Tools\MSVC\14.37.32822\include\xstring
;	COMDAT ?assign@?$_Narrow_char_traits@DH@std@@SAXAEADAEBD@Z
_TEXT	SEGMENT
_Left$ = 224
_Right$ = 232
?assign@?$_Narrow_char_traits@DH@std@@SAXAEADAEBD@Z PROC ; std::_Narrow_char_traits<char,int>::assign, COMDAT

; 440  :     static _CONSTEXPR17 void assign(_Elem& _Left, const _Elem& _Right) noexcept {

$LN3:
  00000	48 89 54 24 10	 mov	 QWORD PTR [rsp+16], rdx
  00005	48 89 4c 24 08	 mov	 QWORD PTR [rsp+8], rcx
  0000a	55		 push	 rbp
  0000b	57		 push	 rdi
  0000c	48 81 ec e8 00
	00 00		 sub	 rsp, 232		; 000000e8H
  00013	48 8d 6c 24 20	 lea	 rbp, QWORD PTR [rsp+32]
  00018	48 8d 0d 00 00
	00 00		 lea	 rcx, OFFSET FLAT:__D14739E9_xstring
  0001f	e8 00 00 00 00	 call	 __CheckForDebuggerJustMyCode

; 441  : #if _HAS_CXX20
; 442  :         if (_STD is_constant_evaluated()) {
; 443  :             return _Primary_char_traits::assign(_Left, _Right);
; 444  :         }
; 445  : #endif // _HAS_CXX20
; 446  :         _Left = _Right;

  00024	48 8b 85 e0 00
	00 00		 mov	 rax, QWORD PTR _Left$[rbp]
  0002b	48 8b 8d e8 00
	00 00		 mov	 rcx, QWORD PTR _Right$[rbp]
  00032	0f b6 09	 movzx	 ecx, BYTE PTR [rcx]
  00035	88 08		 mov	 BYTE PTR [rax], cl

; 447  :     }

  00037	48 8d a5 c8 00
	00 00		 lea	 rsp, QWORD PTR [rbp+200]
  0003e	5f		 pop	 rdi
  0003f	5d		 pop	 rbp
  00040	c3		 ret	 0
?assign@?$_Narrow_char_traits@DH@std@@SAXAEADAEBD@Z ENDP ; std::_Narrow_char_traits<char,int>::assign
_TEXT	ENDS
; Function compile flags: /Odtp /RTCsu /ZI
; File C:\Program Files\Microsoft Visual Studio\2022\Community\VC\Tools\MSVC\14.37.32822\include\xstring
;	COMDAT ?length@?$_Narrow_char_traits@DH@std@@SA_KQEBD@Z
_TEXT	SEGMENT
_First$ = 224
?length@?$_Narrow_char_traits@DH@std@@SA_KQEBD@Z PROC	; std::_Narrow_char_traits<char,int>::length, COMDAT

; 387  :     _NODISCARD static _CONSTEXPR17 size_t length(_In_z_ const _Elem* const _First) noexcept /* strengthened */ {

$LN3:
  00000	48 89 4c 24 08	 mov	 QWORD PTR [rsp+8], rcx
  00005	55		 push	 rbp
  00006	57		 push	 rdi
  00007	48 81 ec e8 00
	00 00		 sub	 rsp, 232		; 000000e8H
  0000e	48 8d 6c 24 20	 lea	 rbp, QWORD PTR [rsp+32]
  00013	48 8d 0d 00 00
	00 00		 lea	 rcx, OFFSET FLAT:__D14739E9_xstring
  0001a	e8 00 00 00 00	 call	 __CheckForDebuggerJustMyCode

; 388  :         // find length of null-terminated string
; 389  : #if _HAS_CXX17
; 390  : #ifdef __cpp_char8_t
; 391  :         if constexpr (is_same_v<_Elem, char8_t>) {
; 392  : #if _HAS_U8_INTRINSICS
; 393  :             return __builtin_u8strlen(_First);
; 394  : #else // ^^^ use u8 intrinsics / no u8 intrinsics vvv
; 395  :             return _Primary_char_traits::length(_First);
; 396  : #endif // _HAS_U8_INTRINSICS
; 397  :         } else
; 398  : #endif // __cpp_char8_t
; 399  :         {
; 400  :             return __builtin_strlen(_First);
; 401  :         }
; 402  : #else // _HAS_CXX17
; 403  :         return _CSTD strlen(reinterpret_cast<const char*>(_First));

  0001f	48 8b 8d e0 00
	00 00		 mov	 rcx, QWORD PTR _First$[rbp]
  00026	e8 00 00 00 00	 call	 strlen

; 404  : #endif // _HAS_CXX17
; 405  :     }

  0002b	48 8d a5 c8 00
	00 00		 lea	 rsp, QWORD PTR [rbp+200]
  00032	5f		 pop	 rdi
  00033	5d		 pop	 rbp
  00034	c3		 ret	 0
?length@?$_Narrow_char_traits@DH@std@@SA_KQEBD@Z ENDP	; std::_Narrow_char_traits<char,int>::length
_TEXT	ENDS
; Function compile flags: /Odtp /RTCsu /ZI
; File C:\Program Files\Microsoft Visual Studio\2022\Community\VC\Tools\MSVC\14.37.32822\include\xstring
;	COMDAT ?copy@?$_Char_traits@DH@std@@SAPEADQEADQEBD_K@Z
_TEXT	SEGMENT
_First1$ = 224
_First2$ = 232
_Count$ = 240
?copy@?$_Char_traits@DH@std@@SAPEADQEADQEBD_K@Z PROC	; std::_Char_traits<char,int>::copy, COMDAT

; 50   :         _In_reads_(_Count) const _Elem* const _First2, const size_t _Count) noexcept /* strengthened */ {

$LN3:
  00000	4c 89 44 24 18	 mov	 QWORD PTR [rsp+24], r8
  00005	48 89 54 24 10	 mov	 QWORD PTR [rsp+16], rdx
  0000a	48 89 4c 24 08	 mov	 QWORD PTR [rsp+8], rcx
  0000f	55		 push	 rbp
  00010	57		 push	 rdi
  00011	48 81 ec e8 00
	00 00		 sub	 rsp, 232		; 000000e8H
  00018	48 8d 6c 24 20	 lea	 rbp, QWORD PTR [rsp+32]
  0001d	48 8d 0d 00 00
	00 00		 lea	 rcx, OFFSET FLAT:__D14739E9_xstring
  00024	e8 00 00 00 00	 call	 __CheckForDebuggerJustMyCode

; 51   :         // copy [_First2, _First2 + _Count) to [_First1, ...)
; 52   : #if _HAS_MEMCPY_MEMMOVE_INTRINSICS
; 53   :         __builtin_memcpy(_First1, _First2, _Count * sizeof(_Elem));
; 54   : #else // ^^^ _HAS_MEMCPY_MEMMOVE_INTRINSICS / !_HAS_MEMCPY_MEMMOVE_INTRINSICS vvv
; 55   : #if _HAS_CXX20
; 56   :         if (_STD is_constant_evaluated()) {
; 57   :             // pre: [_First1, _First1 + _Count) and [_First2, _First2 + _Count) do not overlap
; 58   :             for (size_t _Idx = 0; _Idx != _Count; ++_Idx) {
; 59   :                 _First1[_Idx] = _First2[_Idx];
; 60   :             }
; 61   : 
; 62   :             return _First1;
; 63   :         }
; 64   : #endif // _HAS_CXX20
; 65   : 
; 66   :         _CSTD memcpy(_First1, _First2, _Count * sizeof(_Elem));

  00029	4c 8b 85 f0 00
	00 00		 mov	 r8, QWORD PTR _Count$[rbp]
  00030	48 8b 95 e8 00
	00 00		 mov	 rdx, QWORD PTR _First2$[rbp]
  00037	48 8b 8d e0 00
	00 00		 mov	 rcx, QWORD PTR _First1$[rbp]
  0003e	e8 00 00 00 00	 call	 memcpy

; 67   : #endif // ^^^ !_HAS_MEMCPY_MEMMOVE_INTRINSICS ^^^
; 68   : 
; 69   :         return _First1;

  00043	48 8b 85 e0 00
	00 00		 mov	 rax, QWORD PTR _First1$[rbp]

; 70   :     }

  0004a	48 8d a5 c8 00
	00 00		 lea	 rsp, QWORD PTR [rbp+200]
  00051	5f		 pop	 rdi
  00052	5d		 pop	 rbp
  00053	c3		 ret	 0
?copy@?$_Char_traits@DH@std@@SAPEADQEADQEBD_K@Z ENDP	; std::_Char_traits<char,int>::copy
_TEXT	ENDS
; Function compile flags: /Odtp /RTCsu /ZI
; File C:\Program Files\Microsoft Visual Studio\2022\Community\VC\Tools\MSVC\14.37.32822\include\xutility
;	COMDAT ??$_Construct_in_place@U_Container_proxy@std@@PEAU_Container_base12@2@@std@@YAXAEAU_Container_proxy@0@$$QEAPEAU_Container_base12@0@@Z
_TEXT	SEGMENT
$T1 = 200
_Obj$ = 256
<_Args_0>$ = 264
??$_Construct_in_place@U_Container_proxy@std@@PEAU_Container_base12@2@@std@@YAXAEAU_Container_proxy@0@$$QEAPEAU_Container_base12@0@@Z PROC ; std::_Construct_in_place<std::_Container_proxy,std::_Container_base12 *>, COMDAT

; 247  :     is_nothrow_constructible_v<_Ty, _Types...>) {

$LN3:
  00000	48 89 54 24 10	 mov	 QWORD PTR [rsp+16], rdx
  00005	48 89 4c 24 08	 mov	 QWORD PTR [rsp+8], rcx
  0000a	55		 push	 rbp
  0000b	57		 push	 rdi
  0000c	48 81 ec 08 01
	00 00		 sub	 rsp, 264		; 00000108H
  00013	48 8d 6c 24 20	 lea	 rbp, QWORD PTR [rsp+32]
  00018	48 8d 0d 00 00
	00 00		 lea	 rcx, OFFSET FLAT:__D740E0F1_xutility
  0001f	e8 00 00 00 00	 call	 __CheckForDebuggerJustMyCode

; 248  : #if _HAS_CXX20
; 249  :     if (_STD is_constant_evaluated()) {
; 250  :         _STD construct_at(_STD addressof(_Obj), _STD forward<_Types>(_Args)...);
; 251  :     } else
; 252  : #endif // _HAS_CXX20
; 253  :     {
; 254  :         ::new (static_cast<void*>(_STD addressof(_Obj))) _Ty(_STD forward<_Types>(_Args)...);

  00024	48 8b 8d 00 01
	00 00		 mov	 rcx, QWORD PTR _Obj$[rbp]
  0002b	e8 00 00 00 00	 call	 ??$addressof@U_Container_proxy@std@@@std@@YAPEAU_Container_proxy@0@AEAU10@@Z ; std::addressof<std::_Container_proxy>
  00030	48 8b d0	 mov	 rdx, rax
  00033	b9 10 00 00 00	 mov	 ecx, 16
  00038	e8 00 00 00 00	 call	 ??2@YAPEAX_KPEAX@Z	; operator new
  0003d	48 89 85 c8 00
	00 00		 mov	 QWORD PTR $T1[rbp], rax
  00044	48 8b 85 08 01
	00 00		 mov	 rax, QWORD PTR <_Args_0>$[rbp]
  0004b	48 8b 10	 mov	 rdx, QWORD PTR [rax]
  0004e	48 8b 8d c8 00
	00 00		 mov	 rcx, QWORD PTR $T1[rbp]
  00055	e8 00 00 00 00	 call	 ??0_Container_proxy@std@@QEAA@PEAU_Container_base12@1@@Z ; std::_Container_proxy::_Container_proxy

; 255  :     }
; 256  : }

  0005a	48 8d a5 e8 00
	00 00		 lea	 rsp, QWORD PTR [rbp+232]
  00061	5f		 pop	 rdi
  00062	5d		 pop	 rbp
  00063	c3		 ret	 0
??$_Construct_in_place@U_Container_proxy@std@@PEAU_Container_base12@2@@std@@YAXAEAU_Container_proxy@0@$$QEAPEAU_Container_base12@0@@Z ENDP ; std::_Construct_in_place<std::_Container_proxy,std::_Container_base12 *>
_TEXT	ENDS
; Function compile flags: /Odtp /RTCsu /ZI
; File C:\Program Files\Microsoft Visual Studio\2022\Community\VC\Tools\MSVC\14.37.32822\include\type_traits
;	COMDAT ??$addressof@U_Container_base12@std@@@std@@YAPEAU_Container_base12@0@AEAU10@@Z
_TEXT	SEGMENT
_Val$ = 224
??$addressof@U_Container_base12@std@@@std@@YAPEAU_Container_base12@0@AEAU10@@Z PROC ; std::addressof<std::_Container_base12>, COMDAT

; 1606 : _NODISCARD constexpr _Ty* addressof(_Ty& _Val) noexcept {

$LN3:
  00000	48 89 4c 24 08	 mov	 QWORD PTR [rsp+8], rcx
  00005	55		 push	 rbp
  00006	57		 push	 rdi
  00007	48 81 ec e8 00
	00 00		 sub	 rsp, 232		; 000000e8H
  0000e	48 8d 6c 24 20	 lea	 rbp, QWORD PTR [rsp+32]
  00013	48 8d 0d 00 00
	00 00		 lea	 rcx, OFFSET FLAT:__7FB6D5C7_type_traits
  0001a	e8 00 00 00 00	 call	 __CheckForDebuggerJustMyCode

; 1607 :     return __builtin_addressof(_Val);

  0001f	48 8b 85 e0 00
	00 00		 mov	 rax, QWORD PTR _Val$[rbp]

; 1608 : }

  00026	48 8d a5 c8 00
	00 00		 lea	 rsp, QWORD PTR [rbp+200]
  0002d	5f		 pop	 rdi
  0002e	5d		 pop	 rbp
  0002f	c3		 ret	 0
??$addressof@U_Container_base12@std@@@std@@YAPEAU_Container_base12@0@AEAU10@@Z ENDP ; std::addressof<std::_Container_base12>
_TEXT	ENDS
; Function compile flags: /Odtp /RTCsu /ZI
; File C:\Program Files\Microsoft Visual Studio\2022\Community\VC\Tools\MSVC\14.37.32822\include\xmemory
;	COMDAT ??0_Basic_container_proxy_ptr12@std@@IEAA@XZ
_TEXT	SEGMENT
this$ = 224
??0_Basic_container_proxy_ptr12@std@@IEAA@XZ PROC	; std::_Basic_container_proxy_ptr12::_Basic_container_proxy_ptr12, COMDAT

; 1449 :     _CONSTEXPR20 _Basic_container_proxy_ptr12()                       = default;

$LN3:
  00000	48 89 4c 24 08	 mov	 QWORD PTR [rsp+8], rcx
  00005	55		 push	 rbp
  00006	57		 push	 rdi
  00007	48 81 ec e8 00
	00 00		 sub	 rsp, 232		; 000000e8H
  0000e	48 8d 6c 24 20	 lea	 rbp, QWORD PTR [rsp+32]
  00013	48 8d 0d 00 00
	00 00		 lea	 rcx, OFFSET FLAT:__A594BF75_xmemory
  0001a	e8 00 00 00 00	 call	 __CheckForDebuggerJustMyCode

; 1442 :     _Container_proxy* _Ptr = nullptr;

  0001f	48 8b 85 e0 00
	00 00		 mov	 rax, QWORD PTR this$[rbp]
  00026	48 c7 00 00 00
	00 00		 mov	 QWORD PTR [rax], 0

; 1449 :     _CONSTEXPR20 _Basic_container_proxy_ptr12()                       = default;

  0002d	48 8b 85 e0 00
	00 00		 mov	 rax, QWORD PTR this$[rbp]
  00034	48 8d a5 c8 00
	00 00		 lea	 rsp, QWORD PTR [rbp+200]
  0003b	5f		 pop	 rdi
  0003c	5d		 pop	 rbp
  0003d	c3		 ret	 0
??0_Basic_container_proxy_ptr12@std@@IEAA@XZ ENDP	; std::_Basic_container_proxy_ptr12::_Basic_container_proxy_ptr12
_TEXT	ENDS
; Function compile flags: /Odtp /RTCsu /ZI
; File C:\Program Files\Microsoft Visual Studio\2022\Community\VC\Tools\MSVC\14.37.32822\include\xmemory
;	COMDAT ?_Release@_Basic_container_proxy_ptr12@std@@QEAAXXZ
_TEXT	SEGMENT
this$ = 224
?_Release@_Basic_container_proxy_ptr12@std@@QEAAXXZ PROC ; std::_Basic_container_proxy_ptr12::_Release, COMDAT

; 1444 :     constexpr void _Release() noexcept { // disengage this _Basic_container_proxy_ptr12

$LN3:
  00000	48 89 4c 24 08	 mov	 QWORD PTR [rsp+8], rcx
  00005	55		 push	 rbp
  00006	57		 push	 rdi
  00007	48 81 ec e8 00
	00 00		 sub	 rsp, 232		; 000000e8H
  0000e	48 8d 6c 24 20	 lea	 rbp, QWORD PTR [rsp+32]
  00013	48 8d 0d 00 00
	00 00		 lea	 rcx, OFFSET FLAT:__A594BF75_xmemory
  0001a	e8 00 00 00 00	 call	 __CheckForDebuggerJustMyCode

; 1445 :         _Ptr = nullptr;

  0001f	48 8b 85 e0 00
	00 00		 mov	 rax, QWORD PTR this$[rbp]
  00026	48 c7 00 00 00
	00 00		 mov	 QWORD PTR [rax], 0

; 1446 :     }

  0002d	48 8d a5 c8 00
	00 00		 lea	 rsp, QWORD PTR [rbp+200]
  00034	5f		 pop	 rdi
  00035	5d		 pop	 rbp
  00036	c3		 ret	 0
?_Release@_Basic_container_proxy_ptr12@std@@QEAAXXZ ENDP ; std::_Basic_container_proxy_ptr12::_Release
_TEXT	ENDS
; Function compile flags: /Odtp /RTCsu /ZI
; File C:\Program Files\Microsoft Visual Studio\2022\Community\VC\Tools\MSVC\14.37.32822\include\utility
;	COMDAT ??$exchange@PEAU_Iterator_base12@std@@$$T@std@@YAPEAU_Iterator_base12@0@AEAPEAU10@$$QEA$$T@Z
_TEXT	SEGMENT
_Old_val$ = 8
_Val$ = 256
_New_val$ = 264
??$exchange@PEAU_Iterator_base12@std@@$$T@std@@YAPEAU_Iterator_base12@0@AEAPEAU10@$$QEA$$T@Z PROC ; std::exchange<std::_Iterator_base12 *,std::nullptr_t>, COMDAT

; 752  :     conjunction_v<is_nothrow_move_constructible<_Ty>, is_nothrow_assignable<_Ty&, _Other>>) {

$LN3:
  00000	48 89 54 24 10	 mov	 QWORD PTR [rsp+16], rdx
  00005	48 89 4c 24 08	 mov	 QWORD PTR [rsp+8], rcx
  0000a	55		 push	 rbp
  0000b	57		 push	 rdi
  0000c	48 81 ec 08 01
	00 00		 sub	 rsp, 264		; 00000108H
  00013	48 8d 6c 24 20	 lea	 rbp, QWORD PTR [rsp+32]
  00018	48 8d 0d 00 00
	00 00		 lea	 rcx, OFFSET FLAT:__CF01DCB6_utility
  0001f	e8 00 00 00 00	 call	 __CheckForDebuggerJustMyCode

; 753  :     // assign _New_val to _Val, return previous _Val
; 754  :     _Ty _Old_val = static_cast<_Ty&&>(_Val);

  00024	48 8b 85 00 01
	00 00		 mov	 rax, QWORD PTR _Val$[rbp]
  0002b	48 8b 00	 mov	 rax, QWORD PTR [rax]
  0002e	48 89 45 08	 mov	 QWORD PTR _Old_val$[rbp], rax

; 755  :     _Val         = static_cast<_Other&&>(_New_val);

  00032	48 8b 85 00 01
	00 00		 mov	 rax, QWORD PTR _Val$[rbp]
  00039	48 8b 8d 08 01
	00 00		 mov	 rcx, QWORD PTR _New_val$[rbp]
  00040	48 8b 09	 mov	 rcx, QWORD PTR [rcx]
  00043	48 89 08	 mov	 QWORD PTR [rax], rcx

; 756  :     return _Old_val;

  00046	48 8b 45 08	 mov	 rax, QWORD PTR _Old_val$[rbp]

; 757  : }

  0004a	48 8d a5 e8 00
	00 00		 lea	 rsp, QWORD PTR [rbp+232]
  00051	5f		 pop	 rdi
  00052	5d		 pop	 rbp
  00053	c3		 ret	 0
??$exchange@PEAU_Iterator_base12@std@@$$T@std@@YAPEAU_Iterator_base12@0@AEAPEAU10@$$QEA$$T@Z ENDP ; std::exchange<std::_Iterator_base12 *,std::nullptr_t>
_TEXT	ENDS
; Function compile flags: /Odtp /RTCsu /ZI
; File C:\Program Files\Microsoft Visual Studio\2022\Community\VC\Tools\MSVC\14.37.32822\include\xmemory
;	COMDAT ?_Orphan_all_locked_v3@_Container_base12@std@@AEAAXXZ
_TEXT	SEGMENT
_Lock$ = 4
__$ArrayPad$ = 216
this$ = 256
?_Orphan_all_locked_v3@_Container_base12@std@@AEAAXXZ PROC ; std::_Container_base12::_Orphan_all_locked_v3, COMDAT

; 1225 :     void _Orphan_all_locked_v3() noexcept {

$LN3:
  00000	48 89 4c 24 08	 mov	 QWORD PTR [rsp+8], rcx
  00005	55		 push	 rbp
  00006	57		 push	 rdi
  00007	48 81 ec 08 01
	00 00		 sub	 rsp, 264		; 00000108H
  0000e	48 8d 6c 24 20	 lea	 rbp, QWORD PTR [rsp+32]
  00013	48 8d 7c 24 20	 lea	 rdi, QWORD PTR [rsp+32]
  00018	b9 0a 00 00 00	 mov	 ecx, 10
  0001d	b8 cc cc cc cc	 mov	 eax, -858993460		; ccccccccH
  00022	f3 ab		 rep stosd
  00024	48 8b 8c 24 28
	01 00 00	 mov	 rcx, QWORD PTR [rsp+296]
  0002c	48 8b 05 00 00
	00 00		 mov	 rax, QWORD PTR __security_cookie
  00033	48 33 c5	 xor	 rax, rbp
  00036	48 89 85 d8 00
	00 00		 mov	 QWORD PTR __$ArrayPad$[rbp], rax
  0003d	48 8d 0d 00 00
	00 00		 lea	 rcx, OFFSET FLAT:__A594BF75_xmemory
  00044	e8 00 00 00 00	 call	 __CheckForDebuggerJustMyCode

; 1226 :         _Lockit _Lock(_LOCK_DEBUG);

  00049	ba 03 00 00 00	 mov	 edx, 3
  0004e	48 8d 4d 04	 lea	 rcx, QWORD PTR _Lock$[rbp]
  00052	ff 15 00 00 00
	00		 call	 QWORD PTR __imp_??0_Lockit@std@@QEAA@H@Z

; 1227 :         _Orphan_all_unlocked_v3();

  00058	48 8b 8d 00 01
	00 00		 mov	 rcx, QWORD PTR this$[rbp]
  0005f	e8 00 00 00 00	 call	 ?_Orphan_all_unlocked_v3@_Container_base12@std@@AEAAXXZ ; std::_Container_base12::_Orphan_all_unlocked_v3

; 1228 :     }

  00064	48 8d 4d 04	 lea	 rcx, QWORD PTR _Lock$[rbp]
  00068	ff 15 00 00 00
	00		 call	 QWORD PTR __imp_??1_Lockit@std@@QEAA@XZ
  0006e	48 8d 4d e0	 lea	 rcx, QWORD PTR [rbp-32]
  00072	48 8d 15 00 00
	00 00		 lea	 rdx, OFFSET FLAT:?_Orphan_all_locked_v3@_Container_base12@std@@AEAAXXZ$rtcFrameData
  00079	e8 00 00 00 00	 call	 _RTC_CheckStackVars
  0007e	48 8b 8d d8 00
	00 00		 mov	 rcx, QWORD PTR __$ArrayPad$[rbp]
  00085	48 33 cd	 xor	 rcx, rbp
  00088	e8 00 00 00 00	 call	 __security_check_cookie
  0008d	48 8d a5 e8 00
	00 00		 lea	 rsp, QWORD PTR [rbp+232]
  00094	5f		 pop	 rdi
  00095	5d		 pop	 rbp
  00096	c3		 ret	 0
?_Orphan_all_locked_v3@_Container_base12@std@@AEAAXXZ ENDP ; std::_Container_base12::_Orphan_all_locked_v3
_TEXT	ENDS
; Function compile flags: /Odtp /RTCsu /ZI
; File C:\Program Files\Microsoft Visual Studio\2022\Community\VC\Tools\MSVC\14.37.32822\include\xmemory
;	COMDAT ?_Orphan_all_unlocked_v3@_Container_base12@std@@AEAAXXZ
_TEXT	SEGMENT
_Pnext$1 = 8
$T2 = 228
this$ = 288
?_Orphan_all_unlocked_v3@_Container_base12@std@@AEAAXXZ PROC ; std::_Container_base12::_Orphan_all_unlocked_v3, COMDAT

; 1365 : _CONSTEXPR20 void _Container_base12::_Orphan_all_unlocked_v3() noexcept {

$LN7:
  00000	48 89 4c 24 08	 mov	 QWORD PTR [rsp+8], rcx
  00005	55		 push	 rbp
  00006	57		 push	 rdi
  00007	48 81 ec 28 01
	00 00		 sub	 rsp, 296		; 00000128H
  0000e	48 8d 6c 24 20	 lea	 rbp, QWORD PTR [rsp+32]
  00013	48 8d 0d 00 00
	00 00		 lea	 rcx, OFFSET FLAT:__A594BF75_xmemory
  0001a	e8 00 00 00 00	 call	 __CheckForDebuggerJustMyCode

; 1366 :     if (!_Myproxy) { // no proxy, already done

  0001f	48 8b 85 20 01
	00 00		 mov	 rax, QWORD PTR this$[rbp]
  00026	48 83 38 00	 cmp	 QWORD PTR [rax], 0
  0002a	75 02		 jne	 SHORT $LN5@Orphan_all

; 1367 :         return;

  0002c	eb 4e		 jmp	 SHORT $LN1@Orphan_all
$LN5@Orphan_all:

; 1368 :     }
; 1369 : 
; 1370 :     // proxy allocated, drain it
; 1371 :     for (auto _Pnext = _STD exchange(_Myproxy->_Myfirstiter, nullptr); _Pnext; _Pnext = _Pnext->_Mynextiter) {

  0002e	48 c7 85 e4 00
	00 00 00 00 00
	00		 mov	 QWORD PTR $T2[rbp], 0
  00039	48 8b 85 20 01
	00 00		 mov	 rax, QWORD PTR this$[rbp]
  00040	48 8b 00	 mov	 rax, QWORD PTR [rax]
  00043	48 83 c0 08	 add	 rax, 8
  00047	48 8d 95 e4 00
	00 00		 lea	 rdx, QWORD PTR $T2[rbp]
  0004e	48 8b c8	 mov	 rcx, rax
  00051	e8 00 00 00 00	 call	 ??$exchange@PEAU_Iterator_base12@std@@$$T@std@@YAPEAU_Iterator_base12@0@AEAPEAU10@$$QEA$$T@Z ; std::exchange<std::_Iterator_base12 *,std::nullptr_t>
  00056	48 89 45 08	 mov	 QWORD PTR _Pnext$1[rbp], rax
  0005a	eb 0c		 jmp	 SHORT $LN4@Orphan_all
$LN2@Orphan_all:
  0005c	48 8b 45 08	 mov	 rax, QWORD PTR _Pnext$1[rbp]
  00060	48 8b 40 08	 mov	 rax, QWORD PTR [rax+8]
  00064	48 89 45 08	 mov	 QWORD PTR _Pnext$1[rbp], rax
$LN4@Orphan_all:
  00068	48 83 7d 08 00	 cmp	 QWORD PTR _Pnext$1[rbp], 0
  0006d	74 0d		 je	 SHORT $LN1@Orphan_all

; 1372 :         _Pnext->_Myproxy = nullptr;

  0006f	48 8b 45 08	 mov	 rax, QWORD PTR _Pnext$1[rbp]
  00073	48 c7 00 00 00
	00 00		 mov	 QWORD PTR [rax], 0

; 1373 :     }

  0007a	eb e0		 jmp	 SHORT $LN2@Orphan_all
$LN1@Orphan_all:

; 1374 : }

  0007c	48 8d a5 08 01
	00 00		 lea	 rsp, QWORD PTR [rbp+264]
  00083	5f		 pop	 rdi
  00084	5d		 pop	 rbp
  00085	c3		 ret	 0
?_Orphan_all_unlocked_v3@_Container_base12@std@@AEAAXXZ ENDP ; std::_Container_base12::_Orphan_all_unlocked_v3
_TEXT	ENDS
; Function compile flags: /Odtp /RTCsu /ZI
; File C:\Program Files\Microsoft Visual Studio\2022\Community\VC\Tools\MSVC\14.37.32822\include\xmemory
;	COMDAT ?_Orphan_all@_Container_base12@std@@QEAAXXZ
_TEXT	SEGMENT
this$ = 224
?_Orphan_all@_Container_base12@std@@QEAAXXZ PROC	; std::_Container_base12::_Orphan_all, COMDAT

; 1376 : _CONSTEXPR20 void _Container_base12::_Orphan_all() noexcept {

$LN3:
  00000	48 89 4c 24 08	 mov	 QWORD PTR [rsp+8], rcx
  00005	55		 push	 rbp
  00006	57		 push	 rdi
  00007	48 81 ec e8 00
	00 00		 sub	 rsp, 232		; 000000e8H
  0000e	48 8d 6c 24 20	 lea	 rbp, QWORD PTR [rsp+32]
  00013	48 8d 0d 00 00
	00 00		 lea	 rcx, OFFSET FLAT:__A594BF75_xmemory
  0001a	e8 00 00 00 00	 call	 __CheckForDebuggerJustMyCode

; 1377 : #if _ITERATOR_DEBUG_LEVEL == 2
; 1378 : #if _HAS_CXX20
; 1379 :     if (_STD is_constant_evaluated()) {
; 1380 :         _Orphan_all_unlocked_v3();
; 1381 :     } else
; 1382 : #endif // _HAS_CXX20
; 1383 :     {
; 1384 :         _Orphan_all_locked_v3();

  0001f	48 8b 8d e0 00
	00 00		 mov	 rcx, QWORD PTR this$[rbp]
  00026	e8 00 00 00 00	 call	 ?_Orphan_all_locked_v3@_Container_base12@std@@AEAAXXZ ; std::_Container_base12::_Orphan_all_locked_v3

; 1385 :     }
; 1386 : #endif // _ITERATOR_DEBUG_LEVEL == 2
; 1387 : }

  0002b	48 8d a5 c8 00
	00 00		 lea	 rsp, QWORD PTR [rbp+200]
  00032	5f		 pop	 rdi
  00033	5d		 pop	 rbp
  00034	c3		 ret	 0
?_Orphan_all@_Container_base12@std@@QEAAXXZ ENDP	; std::_Container_base12::_Orphan_all
_TEXT	ENDS
; Function compile flags: /Odtp /RTCsu /ZI
; File C:\Program Files\Microsoft Visual Studio\2022\Community\VC\Tools\MSVC\14.37.32822\include\xmemory
;	COMDAT ??0_Container_base12@std@@QEAA@XZ
_TEXT	SEGMENT
this$ = 224
??0_Container_base12@std@@QEAA@XZ PROC			; std::_Container_base12::_Container_base12, COMDAT

; 1194 :     _CONSTEXPR20 _Container_base12() noexcept = default;

$LN3:
  00000	48 89 4c 24 08	 mov	 QWORD PTR [rsp+8], rcx
  00005	55		 push	 rbp
  00006	57		 push	 rdi
  00007	48 81 ec e8 00
	00 00		 sub	 rsp, 232		; 000000e8H
  0000e	48 8d 6c 24 20	 lea	 rbp, QWORD PTR [rsp+32]
  00013	48 8d 0d 00 00
	00 00		 lea	 rcx, OFFSET FLAT:__A594BF75_xmemory
  0001a	e8 00 00 00 00	 call	 __CheckForDebuggerJustMyCode

; 1195 : 
; 1196 :     _Container_base12(const _Container_base12&)            = delete;
; 1197 :     _Container_base12& operator=(const _Container_base12&) = delete;
; 1198 : 
; 1199 :     _CONSTEXPR20 void _Orphan_all() noexcept;
; 1200 :     _CONSTEXPR20 void _Swap_proxy_and_iterators(_Container_base12&) noexcept;
; 1201 : 
; 1202 :     template <class _Alloc>
; 1203 :     _CONSTEXPR20 void _Alloc_proxy(_Alloc&& _Al) {
; 1204 :         _Container_proxy* const _New_proxy = _Unfancy(_Al.allocate(1));
; 1205 :         _Construct_in_place(*_New_proxy, this);
; 1206 :         _Myproxy            = _New_proxy;
; 1207 :         _New_proxy->_Mycont = this;
; 1208 :     }
; 1209 : 
; 1210 :     template <class _Alloc>
; 1211 :     _CONSTEXPR20 void _Reload_proxy(_Alloc&& _Old_alloc, _Alloc&& _New_alloc) {
; 1212 :         // pre: no iterators refer to the existing proxy
; 1213 :         _Container_proxy* const _New_proxy = _Unfancy(_New_alloc.allocate(1));
; 1214 :         _Construct_in_place(*_New_proxy, this);
; 1215 :         _New_proxy->_Mycont = this;
; 1216 :         _Delete_plain_internal(_Old_alloc, _STD exchange(_Myproxy, _New_proxy));
; 1217 :     }
; 1218 : 
; 1219 :     _Container_proxy* _Myproxy = nullptr;

  0001f	48 8b 85 e0 00
	00 00		 mov	 rax, QWORD PTR this$[rbp]
  00026	48 c7 00 00 00
	00 00		 mov	 QWORD PTR [rax], 0

; 1194 :     _CONSTEXPR20 _Container_base12() noexcept = default;

  0002d	48 8b 85 e0 00
	00 00		 mov	 rax, QWORD PTR this$[rbp]
  00034	48 8d a5 c8 00
	00 00		 lea	 rsp, QWORD PTR [rbp+200]
  0003b	5f		 pop	 rdi
  0003c	5d		 pop	 rbp
  0003d	c3		 ret	 0
??0_Container_base12@std@@QEAA@XZ ENDP			; std::_Container_base12::_Container_base12
_TEXT	ENDS
; Function compile flags: /Odtp /RTCsu /ZI
; File C:\Program Files\Microsoft Visual Studio\2022\Community\VC\Tools\MSVC\14.37.32822\include\xmemory
;	COMDAT ??0_Container_proxy@std@@QEAA@PEAU_Container_base12@1@@Z
_TEXT	SEGMENT
this$ = 224
_Mycont_$ = 232
??0_Container_proxy@std@@QEAA@PEAU_Container_base12@1@@Z PROC ; std::_Container_proxy::_Container_proxy, COMDAT

; 1186 :     _CONSTEXPR20 _Container_proxy(_Container_base12* _Mycont_) noexcept : _Mycont(_Mycont_) {}

$LN3:
  00000	48 89 54 24 10	 mov	 QWORD PTR [rsp+16], rdx
  00005	48 89 4c 24 08	 mov	 QWORD PTR [rsp+8], rcx
  0000a	55		 push	 rbp
  0000b	57		 push	 rdi
  0000c	48 81 ec e8 00
	00 00		 sub	 rsp, 232		; 000000e8H
  00013	48 8d 6c 24 20	 lea	 rbp, QWORD PTR [rsp+32]
  00018	48 8d 0d 00 00
	00 00		 lea	 rcx, OFFSET FLAT:__A594BF75_xmemory
  0001f	e8 00 00 00 00	 call	 __CheckForDebuggerJustMyCode
  00024	48 8b 85 e0 00
	00 00		 mov	 rax, QWORD PTR this$[rbp]
  0002b	48 8b 8d e8 00
	00 00		 mov	 rcx, QWORD PTR _Mycont_$[rbp]
  00032	48 89 08	 mov	 QWORD PTR [rax], rcx

; 1187 : 
; 1188 :     const _Container_base12* _Mycont       = nullptr;
; 1189 :     mutable _Iterator_base12* _Myfirstiter = nullptr;

  00035	48 8b 85 e0 00
	00 00		 mov	 rax, QWORD PTR this$[rbp]
  0003c	48 c7 40 08 00
	00 00 00	 mov	 QWORD PTR [rax+8], 0

; 1186 :     _CONSTEXPR20 _Container_proxy(_Container_base12* _Mycont_) noexcept : _Mycont(_Mycont_) {}

  00044	48 8b 85 e0 00
	00 00		 mov	 rax, QWORD PTR this$[rbp]
  0004b	48 8d a5 c8 00
	00 00		 lea	 rsp, QWORD PTR [rbp+200]
  00052	5f		 pop	 rdi
  00053	5d		 pop	 rbp
  00054	c3		 ret	 0
??0_Container_proxy@std@@QEAA@PEAU_Container_base12@1@@Z ENDP ; std::_Container_proxy::_Container_proxy
_TEXT	ENDS
; Function compile flags: /Odtp /RTCsu /ZI
; File C:\Program Files\Microsoft Visual Studio\2022\Community\VC\Tools\MSVC\14.37.32822\include\xmemory
;	COMDAT ?_Adjust_manually_vector_aligned@std@@YAXAEAPEAXAEA_K@Z
_TEXT	SEGMENT
_Ptr_user$ = 8
_Ptr_container$ = 40
_Min_back_shift$ = 72
_Back_shift$ = 104
_Ptr$ = 352
_Bytes$ = 360
?_Adjust_manually_vector_aligned@std@@YAXAEAPEAXAEA_K@Z PROC ; std::_Adjust_manually_vector_aligned, COMDAT

; 155  : inline void _Adjust_manually_vector_aligned(void*& _Ptr, size_t& _Bytes) {

$LN21:
  00000	48 89 54 24 10	 mov	 QWORD PTR [rsp+16], rdx
  00005	48 89 4c 24 08	 mov	 QWORD PTR [rsp+8], rcx
  0000a	55		 push	 rbp
  0000b	57		 push	 rdi
  0000c	48 81 ec 78 01
	00 00		 sub	 rsp, 376		; 00000178H
  00013	48 8d 6c 24 30	 lea	 rbp, QWORD PTR [rsp+48]
  00018	48 8d 0d 00 00
	00 00		 lea	 rcx, OFFSET FLAT:__A594BF75_xmemory
  0001f	e8 00 00 00 00	 call	 __CheckForDebuggerJustMyCode

; 156  :     // adjust parameters from _Allocate_manually_vector_aligned to pass to operator delete
; 157  :     _Bytes += _Non_user_size;

  00024	48 8b 85 68 01
	00 00		 mov	 rax, QWORD PTR _Bytes$[rbp]
  0002b	48 8b 00	 mov	 rax, QWORD PTR [rax]
  0002e	48 83 c0 2f	 add	 rax, 47			; 0000002fH
  00032	48 8b 8d 68 01
	00 00		 mov	 rcx, QWORD PTR _Bytes$[rbp]
  00039	48 89 01	 mov	 QWORD PTR [rcx], rax

; 158  : 
; 159  :     const uintptr_t* const _Ptr_user = static_cast<uintptr_t*>(_Ptr);

  0003c	48 8b 85 60 01
	00 00		 mov	 rax, QWORD PTR _Ptr$[rbp]
  00043	48 8b 00	 mov	 rax, QWORD PTR [rax]
  00046	48 89 45 08	 mov	 QWORD PTR _Ptr_user$[rbp], rax

; 160  :     const uintptr_t _Ptr_container   = _Ptr_user[-1];

  0004a	b8 08 00 00 00	 mov	 eax, 8
  0004f	48 6b c0 ff	 imul	 rax, rax, -1
  00053	48 8b 4d 08	 mov	 rcx, QWORD PTR _Ptr_user$[rbp]
  00057	48 8b 04 01	 mov	 rax, QWORD PTR [rcx+rax]
  0005b	48 89 45 28	 mov	 QWORD PTR _Ptr_container$[rbp], rax
$LN4@Adjust_man:

; 161  : 
; 162  :     // If the following asserts, it likely means that we are performing
; 163  :     // an aligned delete on memory coming from an unaligned allocation.
; 164  :     _STL_ASSERT(_Ptr_user[-2] == _Big_allocation_sentinel, "invalid argument");

  0005f	b8 08 00 00 00	 mov	 eax, 8
  00064	48 6b c0 fe	 imul	 rax, rax, -2
  00068	48 8b 4d 08	 mov	 rcx, QWORD PTR _Ptr_user$[rbp]
  0006c	48 ba fa fa fa
	fa fa fa fa fa	 mov	 rdx, -361700864190383366 ; fafafafafafafafaH
  00076	48 39 14 01	 cmp	 QWORD PTR [rcx+rax], rdx
  0007a	75 02		 jne	 SHORT $LN14@Adjust_man
  0007c	eb 77		 jmp	 SHORT $LN15@Adjust_man
$LN14@Adjust_man:
$LN7@Adjust_man:
  0007e	8b 05 00 00 00
	00		 mov	 eax, DWORD PTR ?__LINE__Var@?0??_Adjust_manually_vector_aligned@std@@YAXAEAPEAXAEA_K@Z@4JA
  00084	83 c0 09	 add	 eax, 9
  00087	48 8d 0d 00 00
	00 00		 lea	 rcx, OFFSET FLAT:??_C@_0BB@FCMFBGOM@invalid?5argument@
  0008e	48 89 4c 24 28	 mov	 QWORD PTR [rsp+40], rcx
  00093	48 8d 0d 00 00
	00 00		 lea	 rcx, OFFSET FLAT:??_C@_02DKCKIIND@?$CFs@
  0009a	48 89 4c 24 20	 mov	 QWORD PTR [rsp+32], rcx
  0009f	45 33 c9	 xor	 r9d, r9d
  000a2	44 8b c0	 mov	 r8d, eax
  000a5	48 8d 15 00 00
	00 00		 lea	 rdx, OFFSET FLAT:??_C@_0GC@JDLAECEI@C?3?2Program?5Files?2Microsoft?5Visu@
  000ac	b9 02 00 00 00	 mov	 ecx, 2
  000b1	ff 15 00 00 00
	00		 call	 QWORD PTR __imp__CrtDbgReport
  000b7	83 f8 01	 cmp	 eax, 1
  000ba	75 03		 jne	 SHORT $LN19@Adjust_man
  000bc	cc		 int	 3
  000bd	33 c0		 xor	 eax, eax
$LN19@Adjust_man:
  000bf	8b 05 00 00 00
	00		 mov	 eax, DWORD PTR ?__LINE__Var@?0??_Adjust_manually_vector_aligned@std@@YAXAEAPEAXAEA_K@Z@4JA
  000c5	83 c0 09	 add	 eax, 9
  000c8	48 c7 44 24 20
	00 00 00 00	 mov	 QWORD PTR [rsp+32], 0
  000d1	44 8b c8	 mov	 r9d, eax
  000d4	4c 8d 05 00 00
	00 00		 lea	 r8, OFFSET FLAT:??_C@_1ME@PPIEIJND@?$AAC?$AA?3?$AA?2?$AAP?$AAr?$AAo?$AAg?$AAr?$AAa?$AAm?$AA?5?$AAF?$AAi?$AAl?$AAe@
  000db	48 8d 15 00 00
	00 00		 lea	 rdx, OFFSET FLAT:??_C@_11LOCGONAA@@
  000e2	48 8d 0d 00 00
	00 00		 lea	 rcx, OFFSET FLAT:??_C@_1CG@JNLFBNGN@?$AA?$CC?$AAi?$AAn?$AAv?$AAa?$AAl?$AAi?$AAd?$AA?5?$AAa?$AAr?$AAg?$AAu?$AAm?$AAe@
  000e9	ff 15 00 00 00
	00		 call	 QWORD PTR __imp__invalid_parameter
  000ef	33 c0		 xor	 eax, eax
  000f1	85 c0		 test	 eax, eax
  000f3	75 89		 jne	 SHORT $LN7@Adjust_man
$LN15@Adjust_man:
  000f5	33 c0		 xor	 eax, eax
  000f7	85 c0		 test	 eax, eax
  000f9	0f 85 60 ff ff
	ff		 jne	 $LN4@Adjust_man

; 165  : 
; 166  :     // Extra paranoia on aligned allocation/deallocation; ensure _Ptr_container is
; 167  :     // in range [_Min_back_shift, _Non_user_size]
; 168  : #ifdef _DEBUG
; 169  :     constexpr uintptr_t _Min_back_shift = 2 * sizeof(void*);

  000ff	48 c7 45 48 10
	00 00 00	 mov	 QWORD PTR _Min_back_shift$[rbp], 16

; 170  : #else // ^^^ _DEBUG / !_DEBUG vvv
; 171  :     constexpr uintptr_t _Min_back_shift = sizeof(void*);
; 172  : #endif // _DEBUG
; 173  :     const uintptr_t _Back_shift = reinterpret_cast<uintptr_t>(_Ptr) - _Ptr_container;

  00107	48 8b 85 60 01
	00 00		 mov	 rax, QWORD PTR _Ptr$[rbp]
  0010e	48 8b 4d 28	 mov	 rcx, QWORD PTR _Ptr_container$[rbp]
  00112	48 8b 00	 mov	 rax, QWORD PTR [rax]
  00115	48 2b c1	 sub	 rax, rcx
  00118	48 89 45 68	 mov	 QWORD PTR _Back_shift$[rbp], rax
$LN10@Adjust_man:

; 174  :     _STL_VERIFY(_Back_shift >= _Min_back_shift && _Back_shift <= _Non_user_size, "invalid argument");

  0011c	48 83 7d 68 10	 cmp	 QWORD PTR _Back_shift$[rbp], 16
  00121	72 09		 jb	 SHORT $LN16@Adjust_man
  00123	48 83 7d 68 2f	 cmp	 QWORD PTR _Back_shift$[rbp], 47 ; 0000002fH
  00128	77 02		 ja	 SHORT $LN16@Adjust_man
  0012a	eb 77		 jmp	 SHORT $LN17@Adjust_man
$LN16@Adjust_man:
$LN13@Adjust_man:
  0012c	8b 05 00 00 00
	00		 mov	 eax, DWORD PTR ?__LINE__Var@?0??_Adjust_manually_vector_aligned@std@@YAXAEAPEAXAEA_K@Z@4JA
  00132	83 c0 13	 add	 eax, 19
  00135	48 8d 0d 00 00
	00 00		 lea	 rcx, OFFSET FLAT:??_C@_0BB@FCMFBGOM@invalid?5argument@
  0013c	48 89 4c 24 28	 mov	 QWORD PTR [rsp+40], rcx
  00141	48 8d 0d 00 00
	00 00		 lea	 rcx, OFFSET FLAT:??_C@_02DKCKIIND@?$CFs@
  00148	48 89 4c 24 20	 mov	 QWORD PTR [rsp+32], rcx
  0014d	45 33 c9	 xor	 r9d, r9d
  00150	44 8b c0	 mov	 r8d, eax
  00153	48 8d 15 00 00
	00 00		 lea	 rdx, OFFSET FLAT:??_C@_0GC@JDLAECEI@C?3?2Program?5Files?2Microsoft?5Visu@
  0015a	b9 02 00 00 00	 mov	 ecx, 2
  0015f	ff 15 00 00 00
	00		 call	 QWORD PTR __imp__CrtDbgReport
  00165	83 f8 01	 cmp	 eax, 1
  00168	75 03		 jne	 SHORT $LN20@Adjust_man
  0016a	cc		 int	 3
  0016b	33 c0		 xor	 eax, eax
$LN20@Adjust_man:
  0016d	8b 05 00 00 00
	00		 mov	 eax, DWORD PTR ?__LINE__Var@?0??_Adjust_manually_vector_aligned@std@@YAXAEAPEAXAEA_K@Z@4JA
  00173	83 c0 13	 add	 eax, 19
  00176	48 c7 44 24 20
	00 00 00 00	 mov	 QWORD PTR [rsp+32], 0
  0017f	44 8b c8	 mov	 r9d, eax
  00182	4c 8d 05 00 00
	00 00		 lea	 r8, OFFSET FLAT:??_C@_1ME@PPIEIJND@?$AAC?$AA?3?$AA?2?$AAP?$AAr?$AAo?$AAg?$AAr?$AAa?$AAm?$AA?5?$AAF?$AAi?$AAl?$AAe@
  00189	48 8d 15 00 00
	00 00		 lea	 rdx, OFFSET FLAT:??_C@_11LOCGONAA@@
  00190	48 8d 0d 00 00
	00 00		 lea	 rcx, OFFSET FLAT:??_C@_1CG@JNLFBNGN@?$AA?$CC?$AAi?$AAn?$AAv?$AAa?$AAl?$AAi?$AAd?$AA?5?$AAa?$AAr?$AAg?$AAu?$AAm?$AAe@
  00197	ff 15 00 00 00
	00		 call	 QWORD PTR __imp__invalid_parameter
  0019d	33 c0		 xor	 eax, eax
  0019f	85 c0		 test	 eax, eax
  001a1	75 89		 jne	 SHORT $LN13@Adjust_man
$LN17@Adjust_man:
  001a3	33 c0		 xor	 eax, eax
  001a5	85 c0		 test	 eax, eax
  001a7	0f 85 6f ff ff
	ff		 jne	 $LN10@Adjust_man

; 175  :     _Ptr = reinterpret_cast<void*>(_Ptr_container);

  001ad	48 8b 85 60 01
	00 00		 mov	 rax, QWORD PTR _Ptr$[rbp]
  001b4	48 8b 4d 28	 mov	 rcx, QWORD PTR _Ptr_container$[rbp]
  001b8	48 89 08	 mov	 QWORD PTR [rax], rcx

; 176  : }

  001bb	48 8d a5 48 01
	00 00		 lea	 rsp, QWORD PTR [rbp+328]
  001c2	5f		 pop	 rdi
  001c3	5d		 pop	 rbp
  001c4	c3		 ret	 0
?_Adjust_manually_vector_aligned@std@@YAXAEAPEAXAEA_K@Z ENDP ; std::_Adjust_manually_vector_aligned
_TEXT	ENDS
; Function compile flags: /Odtp /RTCsu /ZI
; File C:\Program Files\Microsoft Visual Studio\2022\Community\VC\Tools\MSVC\14.37.32822\include\xmemory
;	COMDAT ?_Allocate@_Default_allocate_traits@std@@SAPEAX_K@Z
_TEXT	SEGMENT
_Bytes$ = 224
?_Allocate@_Default_allocate_traits@std@@SAPEAX_K@Z PROC ; std::_Default_allocate_traits::_Allocate, COMDAT

; 86   :         void* _Allocate(const size_t _Bytes) {

$LN3:
  00000	48 89 4c 24 08	 mov	 QWORD PTR [rsp+8], rcx
  00005	55		 push	 rbp
  00006	57		 push	 rdi
  00007	48 81 ec e8 00
	00 00		 sub	 rsp, 232		; 000000e8H
  0000e	48 8d 6c 24 20	 lea	 rbp, QWORD PTR [rsp+32]
  00013	48 8d 0d 00 00
	00 00		 lea	 rcx, OFFSET FLAT:__A594BF75_xmemory
  0001a	e8 00 00 00 00	 call	 __CheckForDebuggerJustMyCode

; 87   :         return ::operator new(_Bytes);

  0001f	48 8b 8d e0 00
	00 00		 mov	 rcx, QWORD PTR _Bytes$[rbp]
  00026	e8 00 00 00 00	 call	 ??2@YAPEAX_K@Z		; operator new

; 88   :     }

  0002b	48 8d a5 c8 00
	00 00		 lea	 rsp, QWORD PTR [rbp+200]
  00032	5f		 pop	 rdi
  00033	5d		 pop	 rbp
  00034	c3		 ret	 0
?_Allocate@_Default_allocate_traits@std@@SAPEAX_K@Z ENDP ; std::_Default_allocate_traits::_Allocate
_TEXT	ENDS
; Function compile flags: /Odtp /RTCsu /ZI
; File C:\Program Files\Microsoft Visual Studio\2022\Community\VC\Tools\MSVC\14.37.32822\include\limits
;	COMDAT ?max@?$numeric_limits@_J@std@@SA_JXZ
_TEXT	SEGMENT
?max@?$numeric_limits@_J@std@@SA_JXZ PROC		; std::numeric_limits<__int64>::max, COMDAT

; 649  :     _NODISCARD static constexpr long long(max)() noexcept {

$LN3:
  00000	40 55		 push	 rbp
  00002	57		 push	 rdi
  00003	48 81 ec e8 00
	00 00		 sub	 rsp, 232		; 000000e8H
  0000a	48 8d 6c 24 20	 lea	 rbp, QWORD PTR [rsp+32]
  0000f	48 8d 0d 00 00
	00 00		 lea	 rcx, OFFSET FLAT:__EF41832C_limits
  00016	e8 00 00 00 00	 call	 __CheckForDebuggerJustMyCode

; 650  :         return LLONG_MAX;

  0001b	48 b8 ff ff ff
	ff ff ff ff 7f	 mov	 rax, 9223372036854775807 ; 7fffffffffffffffH

; 651  :     }

  00025	48 8d a5 c8 00
	00 00		 lea	 rsp, QWORD PTR [rbp+200]
  0002c	5f		 pop	 rdi
  0002d	5d		 pop	 rbp
  0002e	c3		 ret	 0
?max@?$numeric_limits@_J@std@@SA_JXZ ENDP		; std::numeric_limits<__int64>::max
_TEXT	ENDS
; Function compile flags: /Odtp /RTCsu /ZI
; File C:\Program Files\Microsoft Visual Studio\2022\Community\VC\Tools\MSVC\14.37.32822\include\exception
;	COMDAT ?_Throw_bad_array_new_length@std@@YAXXZ
_TEXT	SEGMENT
$T1 = 200
?_Throw_bad_array_new_length@std@@YAXXZ PROC		; std::_Throw_bad_array_new_length, COMDAT

; 331  : [[noreturn]] inline void _Throw_bad_array_new_length() {

$LN3:
  00000	40 55		 push	 rbp
  00002	57		 push	 rdi
  00003	48 81 ec 18 01
	00 00		 sub	 rsp, 280		; 00000118H
  0000a	48 8d 6c 24 20	 lea	 rbp, QWORD PTR [rsp+32]
  0000f	48 8d 0d 00 00
	00 00		 lea	 rcx, OFFSET FLAT:__7C536CCC_exception
  00016	e8 00 00 00 00	 call	 __CheckForDebuggerJustMyCode

; 332  :     _THROW(bad_array_new_length{});

  0001b	48 8d 8d c8 00
	00 00		 lea	 rcx, QWORD PTR $T1[rbp]
  00022	e8 00 00 00 00	 call	 ??0bad_array_new_length@std@@QEAA@XZ ; std::bad_array_new_length::bad_array_new_length
  00027	48 8d 15 00 00
	00 00		 lea	 rdx, OFFSET FLAT:_TI3?AVbad_array_new_length@std@@
  0002e	48 8d 8d c8 00
	00 00		 lea	 rcx, QWORD PTR $T1[rbp]
  00035	e8 00 00 00 00	 call	 _CxxThrowException
$LN2@Throw_bad_:

; 333  : }

  0003a	48 8d a5 f8 00
	00 00		 lea	 rsp, QWORD PTR [rbp+248]
  00041	5f		 pop	 rdi
  00042	5d		 pop	 rbp
  00043	c3		 ret	 0
?_Throw_bad_array_new_length@std@@YAXXZ ENDP		; std::_Throw_bad_array_new_length
_TEXT	ENDS
; Function compile flags: /Odtp /RTCsu /ZI
;	COMDAT ??_Gbad_array_new_length@std@@UEAAPEAXI@Z
_TEXT	SEGMENT
this$ = 224
__flags$ = 232
??_Gbad_array_new_length@std@@UEAAPEAXI@Z PROC		; std::bad_array_new_length::`scalar deleting destructor', COMDAT
$LN4:
  00000	89 54 24 10	 mov	 DWORD PTR [rsp+16], edx
  00004	48 89 4c 24 08	 mov	 QWORD PTR [rsp+8], rcx
  00009	55		 push	 rbp
  0000a	57		 push	 rdi
  0000b	48 81 ec e8 00
	00 00		 sub	 rsp, 232		; 000000e8H
  00012	48 8d 6c 24 20	 lea	 rbp, QWORD PTR [rsp+32]
  00017	48 8b 8d e0 00
	00 00		 mov	 rcx, QWORD PTR this$[rbp]
  0001e	e8 00 00 00 00	 call	 ??1bad_array_new_length@std@@UEAA@XZ
  00023	8b 85 e8 00 00
	00		 mov	 eax, DWORD PTR __flags$[rbp]
  00029	83 e0 01	 and	 eax, 1
  0002c	85 c0		 test	 eax, eax
  0002e	74 11		 je	 SHORT $LN2@scalar
  00030	ba 18 00 00 00	 mov	 edx, 24
  00035	48 8b 8d e0 00
	00 00		 mov	 rcx, QWORD PTR this$[rbp]
  0003c	e8 00 00 00 00	 call	 ??3@YAXPEAX_K@Z		; operator delete
$LN2@scalar:
  00041	48 8b 85 e0 00
	00 00		 mov	 rax, QWORD PTR this$[rbp]
  00048	48 8d a5 c8 00
	00 00		 lea	 rsp, QWORD PTR [rbp+200]
  0004f	5f		 pop	 rdi
  00050	5d		 pop	 rbp
  00051	c3		 ret	 0
??_Gbad_array_new_length@std@@UEAAPEAXI@Z ENDP		; std::bad_array_new_length::`scalar deleting destructor'
_TEXT	ENDS
; Function compile flags: /Odtp /RTCsu /ZI
;	COMDAT ??0bad_array_new_length@std@@QEAA@AEBV01@@Z
_TEXT	SEGMENT
this$ = 224
__that$ = 232
??0bad_array_new_length@std@@QEAA@AEBV01@@Z PROC	; std::bad_array_new_length::bad_array_new_length, COMDAT
$LN3:
  00000	48 89 54 24 10	 mov	 QWORD PTR [rsp+16], rdx
  00005	48 89 4c 24 08	 mov	 QWORD PTR [rsp+8], rcx
  0000a	55		 push	 rbp
  0000b	57		 push	 rdi
  0000c	48 81 ec e8 00
	00 00		 sub	 rsp, 232		; 000000e8H
  00013	48 8d 6c 24 20	 lea	 rbp, QWORD PTR [rsp+32]
  00018	48 8b 95 e8 00
	00 00		 mov	 rdx, QWORD PTR __that$[rbp]
  0001f	48 8b 8d e0 00
	00 00		 mov	 rcx, QWORD PTR this$[rbp]
  00026	e8 00 00 00 00	 call	 ??0bad_alloc@std@@QEAA@AEBV01@@Z
  0002b	48 8b 85 e0 00
	00 00		 mov	 rax, QWORD PTR this$[rbp]
  00032	48 8d 0d 00 00
	00 00		 lea	 rcx, OFFSET FLAT:??_7bad_array_new_length@std@@6B@
  00039	48 89 08	 mov	 QWORD PTR [rax], rcx
  0003c	48 8b 85 e0 00
	00 00		 mov	 rax, QWORD PTR this$[rbp]
  00043	48 8d a5 c8 00
	00 00		 lea	 rsp, QWORD PTR [rbp+200]
  0004a	5f		 pop	 rdi
  0004b	5d		 pop	 rbp
  0004c	c3		 ret	 0
??0bad_array_new_length@std@@QEAA@AEBV01@@Z ENDP	; std::bad_array_new_length::bad_array_new_length
_TEXT	ENDS
; Function compile flags: /Odtp /RTCsu /ZI
;	COMDAT ??1bad_array_new_length@std@@UEAA@XZ
_TEXT	SEGMENT
this$ = 224
??1bad_array_new_length@std@@UEAA@XZ PROC		; std::bad_array_new_length::~bad_array_new_length, COMDAT
$LN3:
  00000	48 89 4c 24 08	 mov	 QWORD PTR [rsp+8], rcx
  00005	55		 push	 rbp
  00006	57		 push	 rdi
  00007	48 81 ec e8 00
	00 00		 sub	 rsp, 232		; 000000e8H
  0000e	48 8d 6c 24 20	 lea	 rbp, QWORD PTR [rsp+32]
  00013	48 8b 8d e0 00
	00 00		 mov	 rcx, QWORD PTR this$[rbp]
  0001a	e8 00 00 00 00	 call	 ??1bad_alloc@std@@UEAA@XZ
  0001f	48 8d a5 c8 00
	00 00		 lea	 rsp, QWORD PTR [rbp+200]
  00026	5f		 pop	 rdi
  00027	5d		 pop	 rbp
  00028	c3		 ret	 0
??1bad_array_new_length@std@@UEAA@XZ ENDP		; std::bad_array_new_length::~bad_array_new_length
_TEXT	ENDS
; Function compile flags: /Odtp /RTCsu /ZI
; File C:\Program Files\Microsoft Visual Studio\2022\Community\VC\Tools\MSVC\14.37.32822\include\vcruntime_exception.h
;	COMDAT ??0bad_array_new_length@std@@QEAA@XZ
_TEXT	SEGMENT
this$ = 224
??0bad_array_new_length@std@@QEAA@XZ PROC		; std::bad_array_new_length::bad_array_new_length, COMDAT

; 141  :     {

$LN3:
  00000	48 89 4c 24 08	 mov	 QWORD PTR [rsp+8], rcx
  00005	55		 push	 rbp
  00006	57		 push	 rdi
  00007	48 81 ec e8 00
	00 00		 sub	 rsp, 232		; 000000e8H
  0000e	48 8d 6c 24 20	 lea	 rbp, QWORD PTR [rsp+32]
  00013	48 8d 0d 00 00
	00 00		 lea	 rcx, OFFSET FLAT:__E5C78335_vcruntime_exception@h
  0001a	e8 00 00 00 00	 call	 __CheckForDebuggerJustMyCode

; 140  :         : bad_alloc("bad array new length")

  0001f	48 8d 15 00 00
	00 00		 lea	 rdx, OFFSET FLAT:??_C@_0BF@KINCDENJ@bad?5array?5new?5length@
  00026	48 8b 8d e0 00
	00 00		 mov	 rcx, QWORD PTR this$[rbp]
  0002d	e8 00 00 00 00	 call	 ??0bad_alloc@std@@AEAA@QEBD@Z ; std::bad_alloc::bad_alloc

; 141  :     {

  00032	48 8b 85 e0 00
	00 00		 mov	 rax, QWORD PTR this$[rbp]
  00039	48 8d 0d 00 00
	00 00		 lea	 rcx, OFFSET FLAT:??_7bad_array_new_length@std@@6B@
  00040	48 89 08	 mov	 QWORD PTR [rax], rcx

; 142  :     }

  00043	48 8b 85 e0 00
	00 00		 mov	 rax, QWORD PTR this$[rbp]
  0004a	48 8d a5 c8 00
	00 00		 lea	 rsp, QWORD PTR [rbp+200]
  00051	5f		 pop	 rdi
  00052	5d		 pop	 rbp
  00053	c3		 ret	 0
??0bad_array_new_length@std@@QEAA@XZ ENDP		; std::bad_array_new_length::bad_array_new_length
_TEXT	ENDS
; Function compile flags: /Odtp /RTCsu /ZI
;	COMDAT ??_Gbad_alloc@std@@UEAAPEAXI@Z
_TEXT	SEGMENT
this$ = 224
__flags$ = 232
??_Gbad_alloc@std@@UEAAPEAXI@Z PROC			; std::bad_alloc::`scalar deleting destructor', COMDAT
$LN4:
  00000	89 54 24 10	 mov	 DWORD PTR [rsp+16], edx
  00004	48 89 4c 24 08	 mov	 QWORD PTR [rsp+8], rcx
  00009	55		 push	 rbp
  0000a	57		 push	 rdi
  0000b	48 81 ec e8 00
	00 00		 sub	 rsp, 232		; 000000e8H
  00012	48 8d 6c 24 20	 lea	 rbp, QWORD PTR [rsp+32]
  00017	48 8b 8d e0 00
	00 00		 mov	 rcx, QWORD PTR this$[rbp]
  0001e	e8 00 00 00 00	 call	 ??1bad_alloc@std@@UEAA@XZ
  00023	8b 85 e8 00 00
	00		 mov	 eax, DWORD PTR __flags$[rbp]
  00029	83 e0 01	 and	 eax, 1
  0002c	85 c0		 test	 eax, eax
  0002e	74 11		 je	 SHORT $LN2@scalar
  00030	ba 18 00 00 00	 mov	 edx, 24
  00035	48 8b 8d e0 00
	00 00		 mov	 rcx, QWORD PTR this$[rbp]
  0003c	e8 00 00 00 00	 call	 ??3@YAXPEAX_K@Z		; operator delete
$LN2@scalar:
  00041	48 8b 85 e0 00
	00 00		 mov	 rax, QWORD PTR this$[rbp]
  00048	48 8d a5 c8 00
	00 00		 lea	 rsp, QWORD PTR [rbp+200]
  0004f	5f		 pop	 rdi
  00050	5d		 pop	 rbp
  00051	c3		 ret	 0
??_Gbad_alloc@std@@UEAAPEAXI@Z ENDP			; std::bad_alloc::`scalar deleting destructor'
_TEXT	ENDS
; Function compile flags: /Odtp /RTCsu /ZI
;	COMDAT ??0bad_alloc@std@@QEAA@AEBV01@@Z
_TEXT	SEGMENT
this$ = 224
__that$ = 232
??0bad_alloc@std@@QEAA@AEBV01@@Z PROC			; std::bad_alloc::bad_alloc, COMDAT
$LN3:
  00000	48 89 54 24 10	 mov	 QWORD PTR [rsp+16], rdx
  00005	48 89 4c 24 08	 mov	 QWORD PTR [rsp+8], rcx
  0000a	55		 push	 rbp
  0000b	57		 push	 rdi
  0000c	48 81 ec e8 00
	00 00		 sub	 rsp, 232		; 000000e8H
  00013	48 8d 6c 24 20	 lea	 rbp, QWORD PTR [rsp+32]
  00018	48 8b 95 e8 00
	00 00		 mov	 rdx, QWORD PTR __that$[rbp]
  0001f	48 8b 8d e0 00
	00 00		 mov	 rcx, QWORD PTR this$[rbp]
  00026	e8 00 00 00 00	 call	 ??0exception@std@@QEAA@AEBV01@@Z ; std::exception::exception
  0002b	48 8b 85 e0 00
	00 00		 mov	 rax, QWORD PTR this$[rbp]
  00032	48 8d 0d 00 00
	00 00		 lea	 rcx, OFFSET FLAT:??_7bad_alloc@std@@6B@
  00039	48 89 08	 mov	 QWORD PTR [rax], rcx
  0003c	48 8b 85 e0 00
	00 00		 mov	 rax, QWORD PTR this$[rbp]
  00043	48 8d a5 c8 00
	00 00		 lea	 rsp, QWORD PTR [rbp+200]
  0004a	5f		 pop	 rdi
  0004b	5d		 pop	 rbp
  0004c	c3		 ret	 0
??0bad_alloc@std@@QEAA@AEBV01@@Z ENDP			; std::bad_alloc::bad_alloc
_TEXT	ENDS
; Function compile flags: /Odtp /RTCsu /ZI
;	COMDAT ??1bad_alloc@std@@UEAA@XZ
_TEXT	SEGMENT
this$ = 224
??1bad_alloc@std@@UEAA@XZ PROC				; std::bad_alloc::~bad_alloc, COMDAT
$LN3:
  00000	48 89 4c 24 08	 mov	 QWORD PTR [rsp+8], rcx
  00005	55		 push	 rbp
  00006	57		 push	 rdi
  00007	48 81 ec e8 00
	00 00		 sub	 rsp, 232		; 000000e8H
  0000e	48 8d 6c 24 20	 lea	 rbp, QWORD PTR [rsp+32]
  00013	48 8b 8d e0 00
	00 00		 mov	 rcx, QWORD PTR this$[rbp]
  0001a	e8 00 00 00 00	 call	 ??1exception@std@@UEAA@XZ ; std::exception::~exception
  0001f	48 8d a5 c8 00
	00 00		 lea	 rsp, QWORD PTR [rbp+200]
  00026	5f		 pop	 rdi
  00027	5d		 pop	 rbp
  00028	c3		 ret	 0
??1bad_alloc@std@@UEAA@XZ ENDP				; std::bad_alloc::~bad_alloc
_TEXT	ENDS
; Function compile flags: /Odtp /RTCsu /ZI
; File C:\Program Files\Microsoft Visual Studio\2022\Community\VC\Tools\MSVC\14.37.32822\include\vcruntime_exception.h
;	COMDAT ??0bad_alloc@std@@AEAA@QEBD@Z
_TEXT	SEGMENT
this$ = 224
_Message$ = 232
??0bad_alloc@std@@AEAA@QEBD@Z PROC			; std::bad_alloc::bad_alloc, COMDAT

; 130  :     {

$LN3:
  00000	48 89 54 24 10	 mov	 QWORD PTR [rsp+16], rdx
  00005	48 89 4c 24 08	 mov	 QWORD PTR [rsp+8], rcx
  0000a	55		 push	 rbp
  0000b	57		 push	 rdi
  0000c	48 81 ec e8 00
	00 00		 sub	 rsp, 232		; 000000e8H
  00013	48 8d 6c 24 20	 lea	 rbp, QWORD PTR [rsp+32]
  00018	48 8d 0d 00 00
	00 00		 lea	 rcx, OFFSET FLAT:__E5C78335_vcruntime_exception@h
  0001f	e8 00 00 00 00	 call	 __CheckForDebuggerJustMyCode

; 129  :         : exception(_Message, 1)

  00024	41 b8 01 00 00
	00		 mov	 r8d, 1
  0002a	48 8b 95 e8 00
	00 00		 mov	 rdx, QWORD PTR _Message$[rbp]
  00031	48 8b 8d e0 00
	00 00		 mov	 rcx, QWORD PTR this$[rbp]
  00038	e8 00 00 00 00	 call	 ??0exception@std@@QEAA@QEBDH@Z ; std::exception::exception

; 130  :     {

  0003d	48 8b 85 e0 00
	00 00		 mov	 rax, QWORD PTR this$[rbp]
  00044	48 8d 0d 00 00
	00 00		 lea	 rcx, OFFSET FLAT:??_7bad_alloc@std@@6B@
  0004b	48 89 08	 mov	 QWORD PTR [rax], rcx

; 131  :     }

  0004e	48 8b 85 e0 00
	00 00		 mov	 rax, QWORD PTR this$[rbp]
  00055	48 8d a5 c8 00
	00 00		 lea	 rsp, QWORD PTR [rbp+200]
  0005c	5f		 pop	 rdi
  0005d	5d		 pop	 rbp
  0005e	c3		 ret	 0
??0bad_alloc@std@@AEAA@QEBD@Z ENDP			; std::bad_alloc::bad_alloc
_TEXT	ENDS
; Function compile flags: /Odtp /RTCsu /ZI
;	COMDAT ??_Gexception@std@@UEAAPEAXI@Z
_TEXT	SEGMENT
this$ = 224
__flags$ = 232
??_Gexception@std@@UEAAPEAXI@Z PROC			; std::exception::`scalar deleting destructor', COMDAT
$LN4:
  00000	89 54 24 10	 mov	 DWORD PTR [rsp+16], edx
  00004	48 89 4c 24 08	 mov	 QWORD PTR [rsp+8], rcx
  00009	55		 push	 rbp
  0000a	57		 push	 rdi
  0000b	48 81 ec e8 00
	00 00		 sub	 rsp, 232		; 000000e8H
  00012	48 8d 6c 24 20	 lea	 rbp, QWORD PTR [rsp+32]
  00017	48 8b 8d e0 00
	00 00		 mov	 rcx, QWORD PTR this$[rbp]
  0001e	e8 00 00 00 00	 call	 ??1exception@std@@UEAA@XZ ; std::exception::~exception
  00023	8b 85 e8 00 00
	00		 mov	 eax, DWORD PTR __flags$[rbp]
  00029	83 e0 01	 and	 eax, 1
  0002c	85 c0		 test	 eax, eax
  0002e	74 11		 je	 SHORT $LN2@scalar
  00030	ba 18 00 00 00	 mov	 edx, 24
  00035	48 8b 8d e0 00
	00 00		 mov	 rcx, QWORD PTR this$[rbp]
  0003c	e8 00 00 00 00	 call	 ??3@YAXPEAX_K@Z		; operator delete
$LN2@scalar:
  00041	48 8b 85 e0 00
	00 00		 mov	 rax, QWORD PTR this$[rbp]
  00048	48 8d a5 c8 00
	00 00		 lea	 rsp, QWORD PTR [rbp+200]
  0004f	5f		 pop	 rdi
  00050	5d		 pop	 rbp
  00051	c3		 ret	 0
??_Gexception@std@@UEAAPEAXI@Z ENDP			; std::exception::`scalar deleting destructor'
_TEXT	ENDS
; Function compile flags: /Odtp /RTCsu /ZI
; File C:\Program Files\Microsoft Visual Studio\2022\Community\VC\Tools\MSVC\14.37.32822\include\vcruntime_exception.h
;	COMDAT ?what@exception@std@@UEBAPEBDXZ
_TEXT	SEGMENT
tv69 = 192
this$ = 240
?what@exception@std@@UEBAPEBDXZ PROC			; std::exception::what, COMDAT

; 94   :     {

$LN5:
  00000	48 89 4c 24 08	 mov	 QWORD PTR [rsp+8], rcx
  00005	55		 push	 rbp
  00006	57		 push	 rdi
  00007	48 81 ec f8 00
	00 00		 sub	 rsp, 248		; 000000f8H
  0000e	48 8d 6c 24 20	 lea	 rbp, QWORD PTR [rsp+32]
  00013	48 8d 0d 00 00
	00 00		 lea	 rcx, OFFSET FLAT:__E5C78335_vcruntime_exception@h
  0001a	e8 00 00 00 00	 call	 __CheckForDebuggerJustMyCode

; 95   :         return _Data._What ? _Data._What : "Unknown exception";

  0001f	48 8b 85 f0 00
	00 00		 mov	 rax, QWORD PTR this$[rbp]
  00026	48 83 78 08 00	 cmp	 QWORD PTR [rax+8], 0
  0002b	74 14		 je	 SHORT $LN3@what
  0002d	48 8b 85 f0 00
	00 00		 mov	 rax, QWORD PTR this$[rbp]
  00034	48 8b 40 08	 mov	 rax, QWORD PTR [rax+8]
  00038	48 89 85 c0 00
	00 00		 mov	 QWORD PTR tv69[rbp], rax
  0003f	eb 0e		 jmp	 SHORT $LN4@what
$LN3@what:
  00041	48 8d 05 00 00
	00 00		 lea	 rax, OFFSET FLAT:??_C@_0BC@EOODALEL@Unknown?5exception@
  00048	48 89 85 c0 00
	00 00		 mov	 QWORD PTR tv69[rbp], rax
$LN4@what:
  0004f	48 8b 85 c0 00
	00 00		 mov	 rax, QWORD PTR tv69[rbp]

; 96   :     }

  00056	48 8d a5 d8 00
	00 00		 lea	 rsp, QWORD PTR [rbp+216]
  0005d	5f		 pop	 rdi
  0005e	5d		 pop	 rbp
  0005f	c3		 ret	 0
?what@exception@std@@UEBAPEBDXZ ENDP			; std::exception::what
_TEXT	ENDS
; Function compile flags: /Odtp /RTCsu /ZI
; File C:\Program Files\Microsoft Visual Studio\2022\Community\VC\Tools\MSVC\14.37.32822\include\vcruntime_exception.h
;	COMDAT ??1exception@std@@UEAA@XZ
_TEXT	SEGMENT
this$ = 224
??1exception@std@@UEAA@XZ PROC				; std::exception::~exception, COMDAT

; 89   :     {

$LN3:
  00000	48 89 4c 24 08	 mov	 QWORD PTR [rsp+8], rcx
  00005	55		 push	 rbp
  00006	57		 push	 rdi
  00007	48 81 ec e8 00
	00 00		 sub	 rsp, 232		; 000000e8H
  0000e	48 8d 6c 24 20	 lea	 rbp, QWORD PTR [rsp+32]
  00013	48 8d 0d 00 00
	00 00		 lea	 rcx, OFFSET FLAT:__E5C78335_vcruntime_exception@h
  0001a	e8 00 00 00 00	 call	 __CheckForDebuggerJustMyCode
  0001f	48 8b 85 e0 00
	00 00		 mov	 rax, QWORD PTR this$[rbp]
  00026	48 8d 0d 00 00
	00 00		 lea	 rcx, OFFSET FLAT:??_7exception@std@@6B@
  0002d	48 89 08	 mov	 QWORD PTR [rax], rcx

; 90   :         __std_exception_destroy(&_Data);

  00030	48 8b 85 e0 00
	00 00		 mov	 rax, QWORD PTR this$[rbp]
  00037	48 83 c0 08	 add	 rax, 8
  0003b	48 8b c8	 mov	 rcx, rax
  0003e	e8 00 00 00 00	 call	 __std_exception_destroy

; 91   :     }

  00043	48 8d a5 c8 00
	00 00		 lea	 rsp, QWORD PTR [rbp+200]
  0004a	5f		 pop	 rdi
  0004b	5d		 pop	 rbp
  0004c	c3		 ret	 0
??1exception@std@@UEAA@XZ ENDP				; std::exception::~exception
_TEXT	ENDS
; Function compile flags: /Odtp /RTCsu /ZI
; File C:\Program Files\Microsoft Visual Studio\2022\Community\VC\Tools\MSVC\14.37.32822\include\vcruntime_exception.h
;	COMDAT ??0exception@std@@QEAA@AEBV01@@Z
_TEXT	SEGMENT
this$ = 224
_Other$ = 232
??0exception@std@@QEAA@AEBV01@@Z PROC			; std::exception::exception, COMDAT

; 72   :     {

$LN3:
  00000	48 89 54 24 10	 mov	 QWORD PTR [rsp+16], rdx
  00005	48 89 4c 24 08	 mov	 QWORD PTR [rsp+8], rcx
  0000a	55		 push	 rbp
  0000b	57		 push	 rdi
  0000c	48 81 ec e8 00
	00 00		 sub	 rsp, 232		; 000000e8H
  00013	48 8d 6c 24 20	 lea	 rbp, QWORD PTR [rsp+32]
  00018	48 8d 0d 00 00
	00 00		 lea	 rcx, OFFSET FLAT:__E5C78335_vcruntime_exception@h
  0001f	e8 00 00 00 00	 call	 __CheckForDebuggerJustMyCode
  00024	48 8b 85 e0 00
	00 00		 mov	 rax, QWORD PTR this$[rbp]
  0002b	48 8d 0d 00 00
	00 00		 lea	 rcx, OFFSET FLAT:??_7exception@std@@6B@
  00032	48 89 08	 mov	 QWORD PTR [rax], rcx

; 71   :         : _Data()

  00035	48 8b 85 e0 00
	00 00		 mov	 rax, QWORD PTR this$[rbp]
  0003c	48 83 c0 08	 add	 rax, 8
  00040	48 8b f8	 mov	 rdi, rax
  00043	33 c0		 xor	 eax, eax
  00045	b9 10 00 00 00	 mov	 ecx, 16
  0004a	f3 aa		 rep stosb

; 73   :         __std_exception_copy(&_Other._Data, &_Data);

  0004c	48 8b 85 e0 00
	00 00		 mov	 rax, QWORD PTR this$[rbp]
  00053	48 83 c0 08	 add	 rax, 8
  00057	48 8b 8d e8 00
	00 00		 mov	 rcx, QWORD PTR _Other$[rbp]
  0005e	48 83 c1 08	 add	 rcx, 8
  00062	48 8b d0	 mov	 rdx, rax
  00065	e8 00 00 00 00	 call	 __std_exception_copy

; 74   :     }

  0006a	48 8b 85 e0 00
	00 00		 mov	 rax, QWORD PTR this$[rbp]
  00071	48 8d a5 c8 00
	00 00		 lea	 rsp, QWORD PTR [rbp+200]
  00078	5f		 pop	 rdi
  00079	5d		 pop	 rbp
  0007a	c3		 ret	 0
??0exception@std@@QEAA@AEBV01@@Z ENDP			; std::exception::exception
_TEXT	ENDS
; Function compile flags: /Odtp /RTCsu /ZI
; File C:\Program Files\Microsoft Visual Studio\2022\Community\VC\Tools\MSVC\14.37.32822\include\vcruntime_exception.h
;	COMDAT ??0exception@std@@QEAA@QEBDH@Z
_TEXT	SEGMENT
this$ = 224
_Message$ = 232
__formal$ = 240
??0exception@std@@QEAA@QEBDH@Z PROC			; std::exception::exception, COMDAT

; 66   :     {

$LN3:
  00000	44 89 44 24 18	 mov	 DWORD PTR [rsp+24], r8d
  00005	48 89 54 24 10	 mov	 QWORD PTR [rsp+16], rdx
  0000a	48 89 4c 24 08	 mov	 QWORD PTR [rsp+8], rcx
  0000f	55		 push	 rbp
  00010	57		 push	 rdi
  00011	48 81 ec e8 00
	00 00		 sub	 rsp, 232		; 000000e8H
  00018	48 8d 6c 24 20	 lea	 rbp, QWORD PTR [rsp+32]
  0001d	48 8d 0d 00 00
	00 00		 lea	 rcx, OFFSET FLAT:__E5C78335_vcruntime_exception@h
  00024	e8 00 00 00 00	 call	 __CheckForDebuggerJustMyCode
  00029	48 8b 85 e0 00
	00 00		 mov	 rax, QWORD PTR this$[rbp]
  00030	48 8d 0d 00 00
	00 00		 lea	 rcx, OFFSET FLAT:??_7exception@std@@6B@
  00037	48 89 08	 mov	 QWORD PTR [rax], rcx

; 65   :         : _Data()

  0003a	48 8b 85 e0 00
	00 00		 mov	 rax, QWORD PTR this$[rbp]
  00041	48 83 c0 08	 add	 rax, 8
  00045	48 8b f8	 mov	 rdi, rax
  00048	33 c0		 xor	 eax, eax
  0004a	b9 10 00 00 00	 mov	 ecx, 16
  0004f	f3 aa		 rep stosb

; 67   :         _Data._What = _Message;

  00051	48 8b 85 e0 00
	00 00		 mov	 rax, QWORD PTR this$[rbp]
  00058	48 8b 8d e8 00
	00 00		 mov	 rcx, QWORD PTR _Message$[rbp]
  0005f	48 89 48 08	 mov	 QWORD PTR [rax+8], rcx

; 68   :     }

  00063	48 8b 85 e0 00
	00 00		 mov	 rax, QWORD PTR this$[rbp]
  0006a	48 8d a5 c8 00
	00 00		 lea	 rsp, QWORD PTR [rbp+200]
  00071	5f		 pop	 rdi
  00072	5d		 pop	 rbp
  00073	c3		 ret	 0
??0exception@std@@QEAA@QEBDH@Z ENDP			; std::exception::exception
_TEXT	ENDS
; Function compile flags: /Odtp /RTCsu /ZI
; File C:\Program Files\Microsoft Visual Studio\2022\Community\VC\Tools\MSVC\14.37.32822\include\vcruntime_new.h
;	COMDAT ??2@YAPEAX_KPEAX@Z
_TEXT	SEGMENT
_Size$ = 224
_Where$ = 232
??2@YAPEAX_KPEAX@Z PROC					; operator new, COMDAT

; 168  :     {

$LN3:
  00000	48 89 54 24 10	 mov	 QWORD PTR [rsp+16], rdx
  00005	48 89 4c 24 08	 mov	 QWORD PTR [rsp+8], rcx
  0000a	55		 push	 rbp
  0000b	57		 push	 rdi
  0000c	48 81 ec e8 00
	00 00		 sub	 rsp, 232		; 000000e8H
  00013	48 8d 6c 24 20	 lea	 rbp, QWORD PTR [rsp+32]
  00018	48 8d 0d 00 00
	00 00		 lea	 rcx, OFFSET FLAT:__D5F74309_vcruntime_new@h
  0001f	e8 00 00 00 00	 call	 __CheckForDebuggerJustMyCode

; 169  :         (void)_Size;
; 170  :         return _Where;

  00024	48 8b 85 e8 00
	00 00		 mov	 rax, QWORD PTR _Where$[rbp]

; 171  :     }

  0002b	48 8d a5 c8 00
	00 00		 lea	 rsp, QWORD PTR [rbp+200]
  00032	5f		 pop	 rdi
  00033	5d		 pop	 rbp
  00034	c3		 ret	 0
??2@YAPEAX_KPEAX@Z ENDP					; operator new
_TEXT	ENDS
; Function compile flags: /Odtp /RTCsu /ZI
; File C:\\\\lab_03\ConsoleApplication1\main.cpp
;	COMDAT ?__empty_global_delete@@YAXPEAX_K@Z
_TEXT	SEGMENT
__formal$ = 224
__formal$ = 232
?__empty_global_delete@@YAXPEAX_K@Z PROC		; __empty_global_delete, COMDAT

$LN3:
  00000	48 89 54 24 10	 mov	 QWORD PTR [rsp+16], rdx
  00005	48 89 4c 24 08	 mov	 QWORD PTR [rsp+8], rcx
  0000a	55		 push	 rbp
  0000b	57		 push	 rdi
  0000c	48 81 ec e8 00
	00 00		 sub	 rsp, 232		; 000000e8H
  00013	48 8d 6c 24 20	 lea	 rbp, QWORD PTR [rsp+32]
  00018	48 8d 0d 00 00
	00 00		 lea	 rcx, OFFSET FLAT:__0E5718B5_main@cpp
  0001f	e8 00 00 00 00	 call	 __CheckForDebuggerJustMyCode
  00024	48 8d a5 c8 00
	00 00		 lea	 rsp, QWORD PTR [rbp+200]
  0002b	5f		 pop	 rdi
  0002c	5d		 pop	 rbp
  0002d	c3		 ret	 0
?__empty_global_delete@@YAXPEAX_K@Z ENDP		; __empty_global_delete
_TEXT	ENDS
; Function compile flags: /Odtp /RTCsu /ZI
; File C:\\\\lab_03\ConsoleApplication1\main.cpp
;	COMDAT ?__empty_global_delete@@YAXPEAX@Z
_TEXT	SEGMENT
__formal$ = 224
?__empty_global_delete@@YAXPEAX@Z PROC			; __empty_global_delete, COMDAT

$LN3:
  00000	48 89 4c 24 08	 mov	 QWORD PTR [rsp+8], rcx
  00005	55		 push	 rbp
  00006	57		 push	 rdi
  00007	48 81 ec e8 00
	00 00		 sub	 rsp, 232		; 000000e8H
  0000e	48 8d 6c 24 20	 lea	 rbp, QWORD PTR [rsp+32]
  00013	48 8d 0d 00 00
	00 00		 lea	 rcx, OFFSET FLAT:__0E5718B5_main@cpp
  0001a	e8 00 00 00 00	 call	 __CheckForDebuggerJustMyCode
  0001f	48 8d a5 c8 00
	00 00		 lea	 rsp, QWORD PTR [rbp+200]
  00026	5f		 pop	 rdi
  00027	5d		 pop	 rbp
  00028	c3		 ret	 0
?__empty_global_delete@@YAXPEAX@Z ENDP			; __empty_global_delete
_TEXT	ENDS
END
